
SAME70-LCD-EXT2.elf:     file format elf32-littlearm

Sections:
Idx Name          Size      VMA       LMA       File off  Algn
  0 .text         0000c640  00400000  00400000  00010000  2**6
                  CONTENTS, ALLOC, LOAD, READONLY, CODE
  1 .ARM.exidx    00000008  0040c640  0040c640  0001c640  2**2
                  CONTENTS, ALLOC, LOAD, READONLY, DATA
  2 .relocate     0000086c  20400000  0040c648  00020000  2**3
                  CONTENTS, ALLOC, LOAD, DATA
  3 .bss          000004a8  2040086c  0040ceb4  0002086c  2**2
                  ALLOC
  4 .stack        00002004  20400d14  0040d35c  0002086c  2**0
                  ALLOC
  5 .heap         00000200  20402d18  0040f360  0002086c  2**0
                  ALLOC
  6 .ARM.attributes 0000002e  00000000  00000000  0002086c  2**0
                  CONTENTS, READONLY
  7 .comment      00000059  00000000  00000000  0002089a  2**0
                  CONTENTS, READONLY
  8 .debug_info   0000f010  00000000  00000000  000208f3  2**0
                  CONTENTS, READONLY, DEBUGGING
  9 .debug_abbrev 00002589  00000000  00000000  0002f903  2**0
                  CONTENTS, READONLY, DEBUGGING
 10 .debug_loc    00006e85  00000000  00000000  00031e8c  2**0
                  CONTENTS, READONLY, DEBUGGING
 11 .debug_aranges 00000ba0  00000000  00000000  00038d11  2**0
                  CONTENTS, READONLY, DEBUGGING
 12 .debug_ranges 00000b98  00000000  00000000  000398b1  2**0
                  CONTENTS, READONLY, DEBUGGING
 13 .debug_macro  00006c4e  00000000  00000000  0003a449  2**0
                  CONTENTS, READONLY, DEBUGGING
 14 .debug_line   0000c84c  00000000  00000000  00041097  2**0
                  CONTENTS, READONLY, DEBUGGING
 15 .debug_str    0008d062  00000000  00000000  0004d8e3  2**0
                  CONTENTS, READONLY, DEBUGGING
 16 .debug_frame  00002794  00000000  00000000  000da948  2**2
                  CONTENTS, READONLY, DEBUGGING

Disassembly of section .text:

00400000 <_sfixed>:
  400000:	20402d18 	.word	0x20402d18
  400004:	0040155d 	.word	0x0040155d
  400008:	00401559 	.word	0x00401559
  40000c:	00401559 	.word	0x00401559
  400010:	00401559 	.word	0x00401559
  400014:	00401559 	.word	0x00401559
  400018:	00401559 	.word	0x00401559
	...
  40002c:	00401559 	.word	0x00401559
  400030:	00401559 	.word	0x00401559
  400034:	00000000 	.word	0x00000000
  400038:	00401559 	.word	0x00401559
  40003c:	00401559 	.word	0x00401559
  400040:	00401559 	.word	0x00401559
  400044:	00401559 	.word	0x00401559
  400048:	00401559 	.word	0x00401559
  40004c:	00401559 	.word	0x00401559
  400050:	00401559 	.word	0x00401559
  400054:	00401559 	.word	0x00401559
  400058:	00401559 	.word	0x00401559
  40005c:	00401559 	.word	0x00401559
  400060:	00401559 	.word	0x00401559
  400064:	00000000 	.word	0x00000000
  400068:	004010a9 	.word	0x004010a9
  40006c:	004010bd 	.word	0x004010bd
  400070:	004010d1 	.word	0x004010d1
  400074:	00401559 	.word	0x00401559
  400078:	00401559 	.word	0x00401559
  40007c:	00401559 	.word	0x00401559
  400080:	004010e5 	.word	0x004010e5
  400084:	004010f9 	.word	0x004010f9
  400088:	00401559 	.word	0x00401559
  40008c:	00401559 	.word	0x00401559
  400090:	00401559 	.word	0x00401559
  400094:	00401559 	.word	0x00401559
  400098:	00401559 	.word	0x00401559
  40009c:	00401559 	.word	0x00401559
  4000a0:	00401559 	.word	0x00401559
  4000a4:	00401559 	.word	0x00401559
  4000a8:	00401559 	.word	0x00401559
  4000ac:	00401559 	.word	0x00401559
  4000b0:	00401559 	.word	0x00401559
  4000b4:	00401559 	.word	0x00401559
  4000b8:	00401559 	.word	0x00401559
  4000bc:	00401559 	.word	0x00401559
  4000c0:	00401559 	.word	0x00401559
  4000c4:	00401559 	.word	0x00401559
  4000c8:	00401559 	.word	0x00401559
  4000cc:	00401559 	.word	0x00401559
  4000d0:	00000000 	.word	0x00000000
  4000d4:	00401559 	.word	0x00401559
  4000d8:	00000000 	.word	0x00000000
  4000dc:	00401559 	.word	0x00401559
  4000e0:	00401559 	.word	0x00401559
  4000e4:	00401559 	.word	0x00401559
  4000e8:	00401559 	.word	0x00401559
  4000ec:	00401559 	.word	0x00401559
  4000f0:	00401559 	.word	0x00401559
  4000f4:	00401559 	.word	0x00401559
  4000f8:	00401559 	.word	0x00401559
  4000fc:	00401559 	.word	0x00401559
  400100:	00401559 	.word	0x00401559
  400104:	00401559 	.word	0x00401559
  400108:	00401559 	.word	0x00401559
  40010c:	00401559 	.word	0x00401559
  400110:	00401559 	.word	0x00401559
	...
  400120:	00401559 	.word	0x00401559
  400124:	00401559 	.word	0x00401559
  400128:	00401559 	.word	0x00401559
  40012c:	00401559 	.word	0x00401559
  400130:	00401559 	.word	0x00401559
  400134:	00000000 	.word	0x00000000
  400138:	00401559 	.word	0x00401559
  40013c:	00401559 	.word	0x00401559

00400140 <__do_global_dtors_aux>:
  400140:	b510      	push	{r4, lr}
  400142:	4c05      	ldr	r4, [pc, #20]	; (400158 <__do_global_dtors_aux+0x18>)
  400144:	7823      	ldrb	r3, [r4, #0]
  400146:	b933      	cbnz	r3, 400156 <__do_global_dtors_aux+0x16>
  400148:	4b04      	ldr	r3, [pc, #16]	; (40015c <__do_global_dtors_aux+0x1c>)
  40014a:	b113      	cbz	r3, 400152 <__do_global_dtors_aux+0x12>
  40014c:	4804      	ldr	r0, [pc, #16]	; (400160 <__do_global_dtors_aux+0x20>)
  40014e:	f3af 8000 	nop.w
  400152:	2301      	movs	r3, #1
  400154:	7023      	strb	r3, [r4, #0]
  400156:	bd10      	pop	{r4, pc}
  400158:	2040086c 	.word	0x2040086c
  40015c:	00000000 	.word	0x00000000
  400160:	0040c648 	.word	0x0040c648

00400164 <frame_dummy>:
  400164:	4b08      	ldr	r3, [pc, #32]	; (400188 <frame_dummy+0x24>)
  400166:	b510      	push	{r4, lr}
  400168:	b11b      	cbz	r3, 400172 <frame_dummy+0xe>
  40016a:	4908      	ldr	r1, [pc, #32]	; (40018c <frame_dummy+0x28>)
  40016c:	4808      	ldr	r0, [pc, #32]	; (400190 <frame_dummy+0x2c>)
  40016e:	f3af 8000 	nop.w
  400172:	4808      	ldr	r0, [pc, #32]	; (400194 <frame_dummy+0x30>)
  400174:	6803      	ldr	r3, [r0, #0]
  400176:	b903      	cbnz	r3, 40017a <frame_dummy+0x16>
  400178:	bd10      	pop	{r4, pc}
  40017a:	4b07      	ldr	r3, [pc, #28]	; (400198 <frame_dummy+0x34>)
  40017c:	2b00      	cmp	r3, #0
  40017e:	d0fb      	beq.n	400178 <frame_dummy+0x14>
  400180:	e8bd 4010 	ldmia.w	sp!, {r4, lr}
  400184:	4718      	bx	r3
  400186:	bf00      	nop
  400188:	00000000 	.word	0x00000000
  40018c:	20400870 	.word	0x20400870
  400190:	0040c648 	.word	0x0040c648
  400194:	0040c648 	.word	0x0040c648
  400198:	00000000 	.word	0x00000000

0040019c <sysclk_init>:
  40019c:	b510      	push	{r4, lr}
  40019e:	4810      	ldr	r0, [pc, #64]	; (4001e0 <sysclk_init+0x44>)
  4001a0:	4b10      	ldr	r3, [pc, #64]	; (4001e4 <sysclk_init+0x48>)
  4001a2:	4798      	blx	r3
  4001a4:	213e      	movs	r1, #62	; 0x3e
  4001a6:	2000      	movs	r0, #0
  4001a8:	4b0f      	ldr	r3, [pc, #60]	; (4001e8 <sysclk_init+0x4c>)
  4001aa:	4798      	blx	r3
  4001ac:	4c0f      	ldr	r4, [pc, #60]	; (4001ec <sysclk_init+0x50>)
  4001ae:	47a0      	blx	r4
  4001b0:	2800      	cmp	r0, #0
  4001b2:	d0fc      	beq.n	4001ae <sysclk_init+0x12>
  4001b4:	4b0e      	ldr	r3, [pc, #56]	; (4001f0 <sysclk_init+0x54>)
  4001b6:	4798      	blx	r3
  4001b8:	4a0e      	ldr	r2, [pc, #56]	; (4001f4 <sysclk_init+0x58>)
  4001ba:	4b0f      	ldr	r3, [pc, #60]	; (4001f8 <sysclk_init+0x5c>)
  4001bc:	629a      	str	r2, [r3, #40]	; 0x28
  4001be:	4c0f      	ldr	r4, [pc, #60]	; (4001fc <sysclk_init+0x60>)
  4001c0:	47a0      	blx	r4
  4001c2:	2800      	cmp	r0, #0
  4001c4:	d0fc      	beq.n	4001c0 <sysclk_init+0x24>
  4001c6:	2002      	movs	r0, #2
  4001c8:	4b0d      	ldr	r3, [pc, #52]	; (400200 <sysclk_init+0x64>)
  4001ca:	4798      	blx	r3
  4001cc:	2000      	movs	r0, #0
  4001ce:	4b0d      	ldr	r3, [pc, #52]	; (400204 <sysclk_init+0x68>)
  4001d0:	4798      	blx	r3
  4001d2:	4b0d      	ldr	r3, [pc, #52]	; (400208 <sysclk_init+0x6c>)
  4001d4:	4798      	blx	r3
  4001d6:	4802      	ldr	r0, [pc, #8]	; (4001e0 <sysclk_init+0x44>)
  4001d8:	4b02      	ldr	r3, [pc, #8]	; (4001e4 <sysclk_init+0x48>)
  4001da:	4798      	blx	r3
  4001dc:	bd10      	pop	{r4, pc}
  4001de:	bf00      	nop
  4001e0:	11e1a300 	.word	0x11e1a300
  4001e4:	00401749 	.word	0x00401749
  4001e8:	004011b1 	.word	0x004011b1
  4001ec:	00401205 	.word	0x00401205
  4001f0:	00401215 	.word	0x00401215
  4001f4:	20183f01 	.word	0x20183f01
  4001f8:	400e0600 	.word	0x400e0600
  4001fc:	00401225 	.word	0x00401225
  400200:	0040110d 	.word	0x0040110d
  400204:	00401149 	.word	0x00401149
  400208:	00401639 	.word	0x00401639

0040020c <spi_master_init>:
  40020c:	b510      	push	{r4, lr}
  40020e:	4604      	mov	r4, r0
  400210:	4b10      	ldr	r3, [pc, #64]	; (400254 <spi_master_init+0x48>)
  400212:	4798      	blx	r3
  400214:	2380      	movs	r3, #128	; 0x80
  400216:	6023      	str	r3, [r4, #0]
  400218:	6863      	ldr	r3, [r4, #4]
  40021a:	f043 0301 	orr.w	r3, r3, #1
  40021e:	6063      	str	r3, [r4, #4]
  400220:	6863      	ldr	r3, [r4, #4]
  400222:	f043 0310 	orr.w	r3, r3, #16
  400226:	6063      	str	r3, [r4, #4]
  400228:	6863      	ldr	r3, [r4, #4]
  40022a:	f023 0380 	bic.w	r3, r3, #128	; 0x80
  40022e:	6063      	str	r3, [r4, #4]
  400230:	2100      	movs	r1, #0
  400232:	4620      	mov	r0, r4
  400234:	4b08      	ldr	r3, [pc, #32]	; (400258 <spi_master_init+0x4c>)
  400236:	4798      	blx	r3
  400238:	6863      	ldr	r3, [r4, #4]
  40023a:	f023 0302 	bic.w	r3, r3, #2
  40023e:	6063      	str	r3, [r4, #4]
  400240:	6863      	ldr	r3, [r4, #4]
  400242:	f023 0304 	bic.w	r3, r3, #4
  400246:	6063      	str	r3, [r4, #4]
  400248:	2100      	movs	r1, #0
  40024a:	4620      	mov	r0, r4
  40024c:	4b03      	ldr	r3, [pc, #12]	; (40025c <spi_master_init+0x50>)
  40024e:	4798      	blx	r3
  400250:	bd10      	pop	{r4, pc}
  400252:	bf00      	nop
  400254:	00401289 	.word	0x00401289
  400258:	004012b5 	.word	0x004012b5
  40025c:	004012cd 	.word	0x004012cd

00400260 <spi_master_setup_device>:
  400260:	e92d 41f0 	stmdb	sp!, {r4, r5, r6, r7, r8, lr}
  400264:	4604      	mov	r4, r0
  400266:	460d      	mov	r5, r1
  400268:	4616      	mov	r6, r2
  40026a:	4915      	ldr	r1, [pc, #84]	; (4002c0 <spi_master_setup_device+0x60>)
  40026c:	4618      	mov	r0, r3
  40026e:	4b15      	ldr	r3, [pc, #84]	; (4002c4 <spi_master_setup_device+0x64>)
  400270:	4798      	blx	r3
  400272:	4607      	mov	r7, r0
  400274:	2301      	movs	r3, #1
  400276:	461a      	mov	r2, r3
  400278:	6829      	ldr	r1, [r5, #0]
  40027a:	4620      	mov	r0, r4
  40027c:	f8df 805c 	ldr.w	r8, [pc, #92]	; 4002dc <spi_master_setup_device+0x7c>
  400280:	47c0      	blx	r8
  400282:	2200      	movs	r2, #0
  400284:	6829      	ldr	r1, [r5, #0]
  400286:	4620      	mov	r0, r4
  400288:	4b0f      	ldr	r3, [pc, #60]	; (4002c8 <spi_master_setup_device+0x68>)
  40028a:	4798      	blx	r3
  40028c:	b2fa      	uxtb	r2, r7
  40028e:	6829      	ldr	r1, [r5, #0]
  400290:	4620      	mov	r0, r4
  400292:	4b0e      	ldr	r3, [pc, #56]	; (4002cc <spi_master_setup_device+0x6c>)
  400294:	4798      	blx	r3
  400296:	2208      	movs	r2, #8
  400298:	6829      	ldr	r1, [r5, #0]
  40029a:	4620      	mov	r0, r4
  40029c:	4b0c      	ldr	r3, [pc, #48]	; (4002d0 <spi_master_setup_device+0x70>)
  40029e:	4798      	blx	r3
  4002a0:	0872      	lsrs	r2, r6, #1
  4002a2:	6829      	ldr	r1, [r5, #0]
  4002a4:	4620      	mov	r0, r4
  4002a6:	4b0b      	ldr	r3, [pc, #44]	; (4002d4 <spi_master_setup_device+0x74>)
  4002a8:	4798      	blx	r3
  4002aa:	f086 0201 	eor.w	r2, r6, #1
  4002ae:	f002 0201 	and.w	r2, r2, #1
  4002b2:	6829      	ldr	r1, [r5, #0]
  4002b4:	4620      	mov	r0, r4
  4002b6:	4b08      	ldr	r3, [pc, #32]	; (4002d8 <spi_master_setup_device+0x78>)
  4002b8:	4798      	blx	r3
  4002ba:	e8bd 81f0 	ldmia.w	sp!, {r4, r5, r6, r7, r8, pc}
  4002be:	bf00      	nop
  4002c0:	08f0d180 	.word	0x08f0d180
  4002c4:	004013b1 	.word	0x004013b1
  4002c8:	0040139d 	.word	0x0040139d
  4002cc:	004013c9 	.word	0x004013c9
  4002d0:	00401359 	.word	0x00401359
  4002d4:	00401319 	.word	0x00401319
  4002d8:	00401339 	.word	0x00401339
  4002dc:	004013f5 	.word	0x004013f5

004002e0 <spi_select_device>:
  4002e0:	b508      	push	{r3, lr}
  4002e2:	6843      	ldr	r3, [r0, #4]
  4002e4:	f013 0f04 	tst.w	r3, #4
  4002e8:	d005      	beq.n	4002f6 <spi_select_device+0x16>
  4002ea:	6809      	ldr	r1, [r1, #0]
  4002ec:	290f      	cmp	r1, #15
  4002ee:	d80a      	bhi.n	400306 <spi_select_device+0x26>
  4002f0:	4b05      	ldr	r3, [pc, #20]	; (400308 <spi_select_device+0x28>)
  4002f2:	4798      	blx	r3
  4002f4:	bd08      	pop	{r3, pc}
  4002f6:	680b      	ldr	r3, [r1, #0]
  4002f8:	2b03      	cmp	r3, #3
  4002fa:	d804      	bhi.n	400306 <spi_select_device+0x26>
  4002fc:	2101      	movs	r1, #1
  4002fe:	4099      	lsls	r1, r3
  400300:	43c9      	mvns	r1, r1
  400302:	4b01      	ldr	r3, [pc, #4]	; (400308 <spi_select_device+0x28>)
  400304:	4798      	blx	r3
  400306:	bd08      	pop	{r3, pc}
  400308:	004012b5 	.word	0x004012b5

0040030c <spi_write_packet>:
  40030c:	b922      	cbnz	r2, 400318 <spi_write_packet+0xc>
  40030e:	2000      	movs	r0, #0
  400310:	4770      	bx	lr
  400312:	3b01      	subs	r3, #1
  400314:	d105      	bne.n	400322 <spi_write_packet+0x16>
  400316:	e00f      	b.n	400338 <spi_write_packet+0x2c>
  400318:	b410      	push	{r4}
  40031a:	4614      	mov	r4, r2
  40031c:	3901      	subs	r1, #1
  40031e:	f643 2399 	movw	r3, #15001	; 0x3a99
  400322:	6902      	ldr	r2, [r0, #16]
  400324:	f012 0f02 	tst.w	r2, #2
  400328:	d0f3      	beq.n	400312 <spi_write_packet+0x6>
  40032a:	f811 3f01 	ldrb.w	r3, [r1, #1]!
  40032e:	60c3      	str	r3, [r0, #12]
  400330:	3c01      	subs	r4, #1
  400332:	d1f4      	bne.n	40031e <spi_write_packet+0x12>
  400334:	2000      	movs	r0, #0
  400336:	e001      	b.n	40033c <spi_write_packet+0x30>
  400338:	f06f 0002 	mvn.w	r0, #2
  40033c:	f85d 4b04 	ldr.w	r4, [sp], #4
  400340:	4770      	bx	lr
  400342:	bf00      	nop

00400344 <spi_read_packet>:
  400344:	b922      	cbnz	r2, 400350 <spi_read_packet+0xc>
  400346:	2000      	movs	r0, #0
  400348:	4770      	bx	lr
  40034a:	3b01      	subs	r3, #1
  40034c:	d108      	bne.n	400360 <spi_read_packet+0x1c>
  40034e:	e01c      	b.n	40038a <spi_read_packet+0x46>
  400350:	b470      	push	{r4, r5, r6}
  400352:	4615      	mov	r5, r2
  400354:	3901      	subs	r1, #1
  400356:	26ff      	movs	r6, #255	; 0xff
  400358:	f240 2401 	movw	r4, #513	; 0x201
  40035c:	f643 2399 	movw	r3, #15001	; 0x3a99
  400360:	6902      	ldr	r2, [r0, #16]
  400362:	f012 0f02 	tst.w	r2, #2
  400366:	d0f0      	beq.n	40034a <spi_read_packet+0x6>
  400368:	60c6      	str	r6, [r0, #12]
  40036a:	f643 2399 	movw	r3, #15001	; 0x3a99
  40036e:	e001      	b.n	400374 <spi_read_packet+0x30>
  400370:	3b01      	subs	r3, #1
  400372:	d00d      	beq.n	400390 <spi_read_packet+0x4c>
  400374:	6902      	ldr	r2, [r0, #16]
  400376:	ea34 0202 	bics.w	r2, r4, r2
  40037a:	d1f9      	bne.n	400370 <spi_read_packet+0x2c>
  40037c:	6883      	ldr	r3, [r0, #8]
  40037e:	f801 3f01 	strb.w	r3, [r1, #1]!
  400382:	3d01      	subs	r5, #1
  400384:	d1ea      	bne.n	40035c <spi_read_packet+0x18>
  400386:	2000      	movs	r0, #0
  400388:	e004      	b.n	400394 <spi_read_packet+0x50>
  40038a:	f06f 0002 	mvn.w	r0, #2
  40038e:	e001      	b.n	400394 <spi_read_packet+0x50>
  400390:	f06f 0002 	mvn.w	r0, #2
  400394:	bc70      	pop	{r4, r5, r6}
  400396:	4770      	bx	lr

00400398 <_read>:
  400398:	b990      	cbnz	r0, 4003c0 <_read+0x28>
  40039a:	e92d 41f0 	stmdb	sp!, {r4, r5, r6, r7, r8, lr}
  40039e:	460c      	mov	r4, r1
  4003a0:	4690      	mov	r8, r2
  4003a2:	2a00      	cmp	r2, #0
  4003a4:	dd0f      	ble.n	4003c6 <_read+0x2e>
  4003a6:	188f      	adds	r7, r1, r2
  4003a8:	4e08      	ldr	r6, [pc, #32]	; (4003cc <_read+0x34>)
  4003aa:	4d09      	ldr	r5, [pc, #36]	; (4003d0 <_read+0x38>)
  4003ac:	6830      	ldr	r0, [r6, #0]
  4003ae:	4621      	mov	r1, r4
  4003b0:	682b      	ldr	r3, [r5, #0]
  4003b2:	4798      	blx	r3
  4003b4:	3401      	adds	r4, #1
  4003b6:	42a7      	cmp	r7, r4
  4003b8:	d1f8      	bne.n	4003ac <_read+0x14>
  4003ba:	4640      	mov	r0, r8
  4003bc:	e8bd 81f0 	ldmia.w	sp!, {r4, r5, r6, r7, r8, pc}
  4003c0:	f04f 30ff 	mov.w	r0, #4294967295
  4003c4:	4770      	bx	lr
  4003c6:	2000      	movs	r0, #0
  4003c8:	e8bd 81f0 	ldmia.w	sp!, {r4, r5, r6, r7, r8, pc}
  4003cc:	20400cfc 	.word	0x20400cfc
  4003d0:	20400cf4 	.word	0x20400cf4

004003d4 <_write>:
  4003d4:	3801      	subs	r0, #1
  4003d6:	2802      	cmp	r0, #2
  4003d8:	d815      	bhi.n	400406 <_write+0x32>
  4003da:	e92d 41f0 	stmdb	sp!, {r4, r5, r6, r7, r8, lr}
  4003de:	460e      	mov	r6, r1
  4003e0:	4614      	mov	r4, r2
  4003e2:	b19a      	cbz	r2, 40040c <_write+0x38>
  4003e4:	460d      	mov	r5, r1
  4003e6:	f8df 8038 	ldr.w	r8, [pc, #56]	; 400420 <_write+0x4c>
  4003ea:	4f0c      	ldr	r7, [pc, #48]	; (40041c <_write+0x48>)
  4003ec:	f8d8 0000 	ldr.w	r0, [r8]
  4003f0:	f815 1b01 	ldrb.w	r1, [r5], #1
  4003f4:	683b      	ldr	r3, [r7, #0]
  4003f6:	4798      	blx	r3
  4003f8:	2800      	cmp	r0, #0
  4003fa:	db0a      	blt.n	400412 <_write+0x3e>
  4003fc:	1ba8      	subs	r0, r5, r6
  4003fe:	3c01      	subs	r4, #1
  400400:	d1f4      	bne.n	4003ec <_write+0x18>
  400402:	e8bd 81f0 	ldmia.w	sp!, {r4, r5, r6, r7, r8, pc}
  400406:	f04f 30ff 	mov.w	r0, #4294967295
  40040a:	4770      	bx	lr
  40040c:	2000      	movs	r0, #0
  40040e:	e8bd 81f0 	ldmia.w	sp!, {r4, r5, r6, r7, r8, pc}
  400412:	f04f 30ff 	mov.w	r0, #4294967295
  400416:	e8bd 81f0 	ldmia.w	sp!, {r4, r5, r6, r7, r8, pc}
  40041a:	bf00      	nop
  40041c:	20400cf8 	.word	0x20400cf8
  400420:	20400cfc 	.word	0x20400cfc

00400424 <board_init>:
  400424:	e92d 41f0 	stmdb	sp!, {r4, r5, r6, r7, r8, lr}
  400428:	f44f 4200 	mov.w	r2, #32768	; 0x8000
  40042c:	4b99      	ldr	r3, [pc, #612]	; (400694 <board_init+0x270>)
  40042e:	605a      	str	r2, [r3, #4]
  400430:	f3bf 8f4f 	dsb	sy
  400434:	f3bf 8f6f 	isb	sy
  400438:	4b97      	ldr	r3, [pc, #604]	; (400698 <board_init+0x274>)
  40043a:	2200      	movs	r2, #0
  40043c:	f8c3 2250 	str.w	r2, [r3, #592]	; 0x250
  400440:	695a      	ldr	r2, [r3, #20]
  400442:	f442 3200 	orr.w	r2, r2, #131072	; 0x20000
  400446:	615a      	str	r2, [r3, #20]
  400448:	f3bf 8f4f 	dsb	sy
  40044c:	f3bf 8f6f 	isb	sy
  400450:	f8d3 6080 	ldr.w	r6, [r3, #128]	; 0x80
  400454:	f3c6 354e 	ubfx	r5, r6, #13, #15
  400458:	f006 0707 	and.w	r7, r6, #7
  40045c:	3704      	adds	r7, #4
  40045e:	f3c6 06c9 	ubfx	r6, r6, #3, #10
  400462:	fab6 f086 	clz	r0, r6
  400466:	f000 001f 	and.w	r0, r0, #31
  40046a:	f3bf 8f4f 	dsb	sy
  40046e:	461c      	mov	r4, r3
  400470:	4633      	mov	r3, r6
  400472:	fa05 f107 	lsl.w	r1, r5, r7
  400476:	fa03 f200 	lsl.w	r2, r3, r0
  40047a:	430a      	orrs	r2, r1
  40047c:	f8c4 2260 	str.w	r2, [r4, #608]	; 0x260
  400480:	3b01      	subs	r3, #1
  400482:	f1b3 3fff 	cmp.w	r3, #4294967295
  400486:	d1f6      	bne.n	400476 <board_init+0x52>
  400488:	3d01      	subs	r5, #1
  40048a:	f1b5 3fff 	cmp.w	r5, #4294967295
  40048e:	d1ef      	bne.n	400470 <board_init+0x4c>
  400490:	f3bf 8f4f 	dsb	sy
  400494:	4b80      	ldr	r3, [pc, #512]	; (400698 <board_init+0x274>)
  400496:	695a      	ldr	r2, [r3, #20]
  400498:	f442 3280 	orr.w	r2, r2, #65536	; 0x10000
  40049c:	615a      	str	r2, [r3, #20]
  40049e:	f3bf 8f4f 	dsb	sy
  4004a2:	f3bf 8f6f 	isb	sy
  4004a6:	4a7d      	ldr	r2, [pc, #500]	; (40069c <board_init+0x278>)
  4004a8:	497d      	ldr	r1, [pc, #500]	; (4006a0 <board_init+0x27c>)
  4004aa:	6051      	str	r1, [r2, #4]
  4004ac:	f5a1 7180 	sub.w	r1, r1, #256	; 0x100
  4004b0:	6051      	str	r1, [r2, #4]
  4004b2:	f3bf 8f4f 	dsb	sy
  4004b6:	f3bf 8f6f 	isb	sy
  4004ba:	f8d3 2290 	ldr.w	r2, [r3, #656]	; 0x290
  4004be:	f022 0201 	bic.w	r2, r2, #1
  4004c2:	f8c3 2290 	str.w	r2, [r3, #656]	; 0x290
  4004c6:	f8d3 2294 	ldr.w	r2, [r3, #660]	; 0x294
  4004ca:	f022 0201 	bic.w	r2, r2, #1
  4004ce:	f8c3 2294 	str.w	r2, [r3, #660]	; 0x294
  4004d2:	f3bf 8f4f 	dsb	sy
  4004d6:	f3bf 8f6f 	isb	sy
  4004da:	200a      	movs	r0, #10
  4004dc:	4c71      	ldr	r4, [pc, #452]	; (4006a4 <board_init+0x280>)
  4004de:	47a0      	blx	r4
  4004e0:	200b      	movs	r0, #11
  4004e2:	47a0      	blx	r4
  4004e4:	200c      	movs	r0, #12
  4004e6:	47a0      	blx	r4
  4004e8:	2010      	movs	r0, #16
  4004ea:	47a0      	blx	r4
  4004ec:	2011      	movs	r0, #17
  4004ee:	47a0      	blx	r4
  4004f0:	4e6d      	ldr	r6, [pc, #436]	; (4006a8 <board_init+0x284>)
  4004f2:	f44f 7880 	mov.w	r8, #256	; 0x100
  4004f6:	f8c6 8010 	str.w	r8, [r6, #16]
  4004fa:	f8c6 80a0 	str.w	r8, [r6, #160]	; 0xa0
  4004fe:	f8c6 8030 	str.w	r8, [r6, #48]	; 0x30
  400502:	4c6a      	ldr	r4, [pc, #424]	; (4006ac <board_init+0x288>)
  400504:	f44f 6500 	mov.w	r5, #2048	; 0x800
  400508:	6165      	str	r5, [r4, #20]
  40050a:	f8c4 50a0 	str.w	r5, [r4, #160]	; 0xa0
  40050e:	6665      	str	r5, [r4, #100]	; 0x64
  400510:	f8c4 5090 	str.w	r5, [r4, #144]	; 0x90
  400514:	6565      	str	r5, [r4, #84]	; 0x54
  400516:	6225      	str	r5, [r4, #32]
  400518:	f8c4 5084 	str.w	r5, [r4, #132]	; 0x84
  40051c:	6f23      	ldr	r3, [r4, #112]	; 0x70
  40051e:	f423 6300 	bic.w	r3, r3, #2048	; 0x800
  400522:	6723      	str	r3, [r4, #112]	; 0x70
  400524:	6f63      	ldr	r3, [r4, #116]	; 0x74
  400526:	f423 6300 	bic.w	r3, r3, #2048	; 0x800
  40052a:	6763      	str	r3, [r4, #116]	; 0x74
  40052c:	f8c4 50c0 	str.w	r5, [r4, #192]	; 0xc0
  400530:	f8c4 50d4 	str.w	r5, [r4, #212]	; 0xd4
  400534:	f8c4 50b0 	str.w	r5, [r4, #176]	; 0xb0
  400538:	f44f 1300 	mov.w	r3, #2097152	; 0x200000
  40053c:	6623      	str	r3, [r4, #96]	; 0x60
  40053e:	f8c4 3090 	str.w	r3, [r4, #144]	; 0x90
  400542:	6563      	str	r3, [r4, #84]	; 0x54
  400544:	6263      	str	r3, [r4, #36]	; 0x24
  400546:	f8c4 3080 	str.w	r3, [r4, #128]	; 0x80
  40054a:	6f22      	ldr	r2, [r4, #112]	; 0x70
  40054c:	f422 1200 	bic.w	r2, r2, #2097152	; 0x200000
  400550:	6722      	str	r2, [r4, #112]	; 0x70
  400552:	6f62      	ldr	r2, [r4, #116]	; 0x74
  400554:	f422 1200 	bic.w	r2, r2, #2097152	; 0x200000
  400558:	6762      	str	r2, [r4, #116]	; 0x74
  40055a:	6063      	str	r3, [r4, #4]
  40055c:	4a54      	ldr	r2, [pc, #336]	; (4006b0 <board_init+0x28c>)
  40055e:	f8d2 3114 	ldr.w	r3, [r2, #276]	; 0x114
  400562:	f043 0310 	orr.w	r3, r3, #16
  400566:	f8c2 3114 	str.w	r3, [r2, #276]	; 0x114
  40056a:	f502 22b2 	add.w	r2, r2, #364544	; 0x59000
  40056e:	2310      	movs	r3, #16
  400570:	6613      	str	r3, [r2, #96]	; 0x60
  400572:	f8c2 3090 	str.w	r3, [r2, #144]	; 0x90
  400576:	6553      	str	r3, [r2, #84]	; 0x54
  400578:	6253      	str	r3, [r2, #36]	; 0x24
  40057a:	f8c2 3080 	str.w	r3, [r2, #128]	; 0x80
  40057e:	6f11      	ldr	r1, [r2, #112]	; 0x70
  400580:	4319      	orrs	r1, r3
  400582:	6711      	str	r1, [r2, #112]	; 0x70
  400584:	6f51      	ldr	r1, [r2, #116]	; 0x74
  400586:	4319      	orrs	r1, r3
  400588:	6751      	str	r1, [r2, #116]	; 0x74
  40058a:	6053      	str	r3, [r2, #4]
  40058c:	2208      	movs	r2, #8
  40058e:	6622      	str	r2, [r4, #96]	; 0x60
  400590:	f8c4 2090 	str.w	r2, [r4, #144]	; 0x90
  400594:	6562      	str	r2, [r4, #84]	; 0x54
  400596:	6262      	str	r2, [r4, #36]	; 0x24
  400598:	f8c4 2080 	str.w	r2, [r4, #128]	; 0x80
  40059c:	6f21      	ldr	r1, [r4, #112]	; 0x70
  40059e:	f021 0108 	bic.w	r1, r1, #8
  4005a2:	6721      	str	r1, [r4, #112]	; 0x70
  4005a4:	6f61      	ldr	r1, [r4, #116]	; 0x74
  4005a6:	f021 0108 	bic.w	r1, r1, #8
  4005aa:	6761      	str	r1, [r4, #116]	; 0x74
  4005ac:	6062      	str	r2, [r4, #4]
  4005ae:	6623      	str	r3, [r4, #96]	; 0x60
  4005b0:	f8c4 3090 	str.w	r3, [r4, #144]	; 0x90
  4005b4:	6563      	str	r3, [r4, #84]	; 0x54
  4005b6:	6263      	str	r3, [r4, #36]	; 0x24
  4005b8:	f8c4 3080 	str.w	r3, [r4, #128]	; 0x80
  4005bc:	6f22      	ldr	r2, [r4, #112]	; 0x70
  4005be:	f022 0210 	bic.w	r2, r2, #16
  4005c2:	6722      	str	r2, [r4, #112]	; 0x70
  4005c4:	6f62      	ldr	r2, [r4, #116]	; 0x74
  4005c6:	f022 0210 	bic.w	r2, r2, #16
  4005ca:	6762      	str	r2, [r4, #116]	; 0x74
  4005cc:	6063      	str	r3, [r4, #4]
  4005ce:	2300      	movs	r3, #0
  4005d0:	f44f 5200 	mov.w	r2, #8192	; 0x2000
  4005d4:	f04f 5160 	mov.w	r1, #939524096	; 0x38000000
  4005d8:	4630      	mov	r0, r6
  4005da:	4f36      	ldr	r7, [pc, #216]	; (4006b4 <board_init+0x290>)
  4005dc:	47b8      	blx	r7
  4005de:	2300      	movs	r3, #0
  4005e0:	f04f 4280 	mov.w	r2, #1073741824	; 0x40000000
  4005e4:	f04f 5160 	mov.w	r1, #939524096	; 0x38000000
  4005e8:	4630      	mov	r0, r6
  4005ea:	47b8      	blx	r7
  4005ec:	2301      	movs	r3, #1
  4005ee:	22ff      	movs	r2, #255	; 0xff
  4005f0:	f04f 6100 	mov.w	r1, #134217728	; 0x8000000
  4005f4:	4630      	mov	r0, r6
  4005f6:	47b8      	blx	r7
  4005f8:	2301      	movs	r3, #1
  4005fa:	223f      	movs	r2, #63	; 0x3f
  4005fc:	f04f 6100 	mov.w	r1, #134217728	; 0x8000000
  400600:	482d      	ldr	r0, [pc, #180]	; (4006b8 <board_init+0x294>)
  400602:	47b8      	blx	r7
  400604:	2301      	movs	r3, #1
  400606:	f44f 32c0 	mov.w	r2, #98304	; 0x18000
  40060a:	f04f 6100 	mov.w	r1, #134217728	; 0x8000000
  40060e:	4620      	mov	r0, r4
  400610:	47b8      	blx	r7
  400612:	2301      	movs	r3, #1
  400614:	4642      	mov	r2, r8
  400616:	f04f 6100 	mov.w	r1, #134217728	; 0x8000000
  40061a:	4630      	mov	r0, r6
  40061c:	47b8      	blx	r7
  40061e:	2301      	movs	r3, #1
  400620:	462a      	mov	r2, r5
  400622:	f04f 6100 	mov.w	r1, #134217728	; 0x8000000
  400626:	4630      	mov	r0, r6
  400628:	47b8      	blx	r7
  40062a:	2301      	movs	r3, #1
  40062c:	f44f 2200 	mov.w	r2, #524288	; 0x80000
  400630:	f04f 6100 	mov.w	r1, #134217728	; 0x8000000
  400634:	4821      	ldr	r0, [pc, #132]	; (4006bc <board_init+0x298>)
  400636:	47b8      	blx	r7
  400638:	2300      	movs	r3, #0
  40063a:	f44f 7200 	mov.w	r2, #512	; 0x200
  40063e:	f04f 5180 	mov.w	r1, #268435456	; 0x10000000
  400642:	4630      	mov	r0, r6
  400644:	47b8      	blx	r7
  400646:	f44f 7100 	mov.w	r1, #512	; 0x200
  40064a:	4630      	mov	r0, r6
  40064c:	4b1c      	ldr	r3, [pc, #112]	; (4006c0 <board_init+0x29c>)
  40064e:	4798      	blx	r3
  400650:	f04f 5180 	mov.w	r1, #268435456	; 0x10000000
  400654:	2074      	movs	r0, #116	; 0x74
  400656:	4c1b      	ldr	r4, [pc, #108]	; (4006c4 <board_init+0x2a0>)
  400658:	47a0      	blx	r4
  40065a:	f04f 5180 	mov.w	r1, #268435456	; 0x10000000
  40065e:	2075      	movs	r0, #117	; 0x75
  400660:	47a0      	blx	r4
  400662:	f04f 5180 	mov.w	r1, #268435456	; 0x10000000
  400666:	2076      	movs	r0, #118	; 0x76
  400668:	47a0      	blx	r4
  40066a:	f04f 5180 	mov.w	r1, #268435456	; 0x10000000
  40066e:	207b      	movs	r0, #123	; 0x7b
  400670:	47a0      	blx	r4
  400672:	f04f 5160 	mov.w	r1, #939524096	; 0x38000000
  400676:	2018      	movs	r0, #24
  400678:	47a0      	blx	r4
  40067a:	f04f 5160 	mov.w	r1, #939524096	; 0x38000000
  40067e:	2006      	movs	r0, #6
  400680:	47a0      	blx	r4
  400682:	f04f 5160 	mov.w	r1, #939524096	; 0x38000000
  400686:	2053      	movs	r0, #83	; 0x53
  400688:	47a0      	blx	r4
  40068a:	2053      	movs	r0, #83	; 0x53
  40068c:	4b0e      	ldr	r3, [pc, #56]	; (4006c8 <board_init+0x2a4>)
  40068e:	4798      	blx	r3
  400690:	e8bd 81f0 	ldmia.w	sp!, {r4, r5, r6, r7, r8, pc}
  400694:	400e1850 	.word	0x400e1850
  400698:	e000ed00 	.word	0xe000ed00
  40069c:	400e0c00 	.word	0x400e0c00
  4006a0:	5a00080c 	.word	0x5a00080c
  4006a4:	00401235 	.word	0x00401235
  4006a8:	400e1200 	.word	0x400e1200
  4006ac:	400e0e00 	.word	0x400e0e00
  4006b0:	40088000 	.word	0x40088000
  4006b4:	00400e51 	.word	0x00400e51
  4006b8:	400e1600 	.word	0x400e1600
  4006bc:	400e1400 	.word	0x400e1400
  4006c0:	00400d59 	.word	0x00400d59
  4006c4:	00400f25 	.word	0x00400f25
  4006c8:	00400eed 	.word	0x00400eed

004006cc <ili9488_check_box_coordinates>:
  4006cc:	b430      	push	{r4, r5}
  4006ce:	6804      	ldr	r4, [r0, #0]
  4006d0:	f5b4 7fa0 	cmp.w	r4, #320	; 0x140
  4006d4:	d302      	bcc.n	4006dc <ili9488_check_box_coordinates+0x10>
  4006d6:	f240 143f 	movw	r4, #319	; 0x13f
  4006da:	6004      	str	r4, [r0, #0]
  4006dc:	6814      	ldr	r4, [r2, #0]
  4006de:	f5b4 7fa0 	cmp.w	r4, #320	; 0x140
  4006e2:	d302      	bcc.n	4006ea <ili9488_check_box_coordinates+0x1e>
  4006e4:	f240 143f 	movw	r4, #319	; 0x13f
  4006e8:	6014      	str	r4, [r2, #0]
  4006ea:	680c      	ldr	r4, [r1, #0]
  4006ec:	f5b4 7ff0 	cmp.w	r4, #480	; 0x1e0
  4006f0:	d302      	bcc.n	4006f8 <ili9488_check_box_coordinates+0x2c>
  4006f2:	f240 14df 	movw	r4, #479	; 0x1df
  4006f6:	600c      	str	r4, [r1, #0]
  4006f8:	681c      	ldr	r4, [r3, #0]
  4006fa:	f5b4 7ff0 	cmp.w	r4, #480	; 0x1e0
  4006fe:	d302      	bcc.n	400706 <ili9488_check_box_coordinates+0x3a>
  400700:	f240 14df 	movw	r4, #479	; 0x1df
  400704:	601c      	str	r4, [r3, #0]
  400706:	6804      	ldr	r4, [r0, #0]
  400708:	6815      	ldr	r5, [r2, #0]
  40070a:	42ac      	cmp	r4, r5
  40070c:	d901      	bls.n	400712 <ili9488_check_box_coordinates+0x46>
  40070e:	6005      	str	r5, [r0, #0]
  400710:	6014      	str	r4, [r2, #0]
  400712:	680a      	ldr	r2, [r1, #0]
  400714:	6818      	ldr	r0, [r3, #0]
  400716:	4282      	cmp	r2, r0
  400718:	d901      	bls.n	40071e <ili9488_check_box_coordinates+0x52>
  40071a:	6008      	str	r0, [r1, #0]
  40071c:	601a      	str	r2, [r3, #0]
  40071e:	bc30      	pop	{r4, r5}
  400720:	4770      	bx	lr
  400722:	bf00      	nop

00400724 <ili9488_write_ram_prepare>:
  400724:	b510      	push	{r4, lr}
  400726:	b082      	sub	sp, #8
  400728:	2006      	movs	r0, #6
  40072a:	4b0a      	ldr	r3, [pc, #40]	; (400754 <ili9488_write_ram_prepare+0x30>)
  40072c:	4798      	blx	r3
  40072e:	2300      	movs	r3, #0
  400730:	2203      	movs	r2, #3
  400732:	212c      	movs	r1, #44	; 0x2c
  400734:	4808      	ldr	r0, [pc, #32]	; (400758 <ili9488_write_ram_prepare+0x34>)
  400736:	4c09      	ldr	r4, [pc, #36]	; (40075c <ili9488_write_ram_prepare+0x38>)
  400738:	47a0      	blx	r4
  40073a:	2300      	movs	r3, #0
  40073c:	9301      	str	r3, [sp, #4]
  40073e:	9b01      	ldr	r3, [sp, #4]
  400740:	2bfe      	cmp	r3, #254	; 0xfe
  400742:	d805      	bhi.n	400750 <ili9488_write_ram_prepare+0x2c>
  400744:	9b01      	ldr	r3, [sp, #4]
  400746:	3301      	adds	r3, #1
  400748:	9301      	str	r3, [sp, #4]
  40074a:	9b01      	ldr	r3, [sp, #4]
  40074c:	2bfe      	cmp	r3, #254	; 0xfe
  40074e:	d9f9      	bls.n	400744 <ili9488_write_ram_prepare+0x20>
  400750:	b002      	add	sp, #8
  400752:	bd10      	pop	{r4, pc}
  400754:	00400f09 	.word	0x00400f09
  400758:	40008000 	.word	0x40008000
  40075c:	004012e1 	.word	0x004012e1

00400760 <ili9488_write_register>:
  400760:	b570      	push	{r4, r5, r6, lr}
  400762:	b082      	sub	sp, #8
  400764:	4605      	mov	r5, r0
  400766:	460e      	mov	r6, r1
  400768:	4614      	mov	r4, r2
  40076a:	2006      	movs	r0, #6
  40076c:	4b14      	ldr	r3, [pc, #80]	; (4007c0 <ili9488_write_register+0x60>)
  40076e:	4798      	blx	r3
  400770:	2300      	movs	r3, #0
  400772:	2203      	movs	r2, #3
  400774:	4629      	mov	r1, r5
  400776:	4813      	ldr	r0, [pc, #76]	; (4007c4 <ili9488_write_register+0x64>)
  400778:	4d13      	ldr	r5, [pc, #76]	; (4007c8 <ili9488_write_register+0x68>)
  40077a:	47a8      	blx	r5
  40077c:	2300      	movs	r3, #0
  40077e:	9301      	str	r3, [sp, #4]
  400780:	9b01      	ldr	r3, [sp, #4]
  400782:	2bfe      	cmp	r3, #254	; 0xfe
  400784:	d805      	bhi.n	400792 <ili9488_write_register+0x32>
  400786:	9b01      	ldr	r3, [sp, #4]
  400788:	3301      	adds	r3, #1
  40078a:	9301      	str	r3, [sp, #4]
  40078c:	9b01      	ldr	r3, [sp, #4]
  40078e:	2bfe      	cmp	r3, #254	; 0xfe
  400790:	d9f9      	bls.n	400786 <ili9488_write_register+0x26>
  400792:	b194      	cbz	r4, 4007ba <ili9488_write_register+0x5a>
  400794:	2006      	movs	r0, #6
  400796:	4b0d      	ldr	r3, [pc, #52]	; (4007cc <ili9488_write_register+0x6c>)
  400798:	4798      	blx	r3
  40079a:	4622      	mov	r2, r4
  40079c:	4631      	mov	r1, r6
  40079e:	4809      	ldr	r0, [pc, #36]	; (4007c4 <ili9488_write_register+0x64>)
  4007a0:	4b0b      	ldr	r3, [pc, #44]	; (4007d0 <ili9488_write_register+0x70>)
  4007a2:	4798      	blx	r3
  4007a4:	2300      	movs	r3, #0
  4007a6:	9301      	str	r3, [sp, #4]
  4007a8:	9b01      	ldr	r3, [sp, #4]
  4007aa:	2b5e      	cmp	r3, #94	; 0x5e
  4007ac:	d805      	bhi.n	4007ba <ili9488_write_register+0x5a>
  4007ae:	9b01      	ldr	r3, [sp, #4]
  4007b0:	3301      	adds	r3, #1
  4007b2:	9301      	str	r3, [sp, #4]
  4007b4:	9b01      	ldr	r3, [sp, #4]
  4007b6:	2b5e      	cmp	r3, #94	; 0x5e
  4007b8:	d9f9      	bls.n	4007ae <ili9488_write_register+0x4e>
  4007ba:	b002      	add	sp, #8
  4007bc:	bd70      	pop	{r4, r5, r6, pc}
  4007be:	bf00      	nop
  4007c0:	00400f09 	.word	0x00400f09
  4007c4:	40008000 	.word	0x40008000
  4007c8:	004012e1 	.word	0x004012e1
  4007cc:	00400eed 	.word	0x00400eed
  4007d0:	0040030d 	.word	0x0040030d

004007d4 <ili9488_write_ram_buffer>:
  4007d4:	b530      	push	{r4, r5, lr}
  4007d6:	b083      	sub	sp, #12
  4007d8:	4604      	mov	r4, r0
  4007da:	460d      	mov	r5, r1
  4007dc:	2006      	movs	r0, #6
  4007de:	4b0a      	ldr	r3, [pc, #40]	; (400808 <ili9488_write_ram_buffer+0x34>)
  4007e0:	4798      	blx	r3
  4007e2:	462a      	mov	r2, r5
  4007e4:	4621      	mov	r1, r4
  4007e6:	4809      	ldr	r0, [pc, #36]	; (40080c <ili9488_write_ram_buffer+0x38>)
  4007e8:	4b09      	ldr	r3, [pc, #36]	; (400810 <ili9488_write_ram_buffer+0x3c>)
  4007ea:	4798      	blx	r3
  4007ec:	2300      	movs	r3, #0
  4007ee:	9301      	str	r3, [sp, #4]
  4007f0:	9b01      	ldr	r3, [sp, #4]
  4007f2:	2bfe      	cmp	r3, #254	; 0xfe
  4007f4:	d805      	bhi.n	400802 <ili9488_write_ram_buffer+0x2e>
  4007f6:	9b01      	ldr	r3, [sp, #4]
  4007f8:	3301      	adds	r3, #1
  4007fa:	9301      	str	r3, [sp, #4]
  4007fc:	9b01      	ldr	r3, [sp, #4]
  4007fe:	2bfe      	cmp	r3, #254	; 0xfe
  400800:	d9f9      	bls.n	4007f6 <ili9488_write_ram_buffer+0x22>
  400802:	b003      	add	sp, #12
  400804:	bd30      	pop	{r4, r5, pc}
  400806:	bf00      	nop
  400808:	00400eed 	.word	0x00400eed
  40080c:	40008000 	.word	0x40008000
  400810:	0040030d 	.word	0x0040030d

00400814 <ili9488_delay>:
  400814:	4601      	mov	r1, r0
  400816:	b928      	cbnz	r0, 400824 <ili9488_delay+0x10>
  400818:	4770      	bx	lr
  40081a:	3b01      	subs	r3, #1
  40081c:	d1fd      	bne.n	40081a <ili9488_delay+0x6>
  40081e:	4291      	cmp	r1, r2
  400820:	d801      	bhi.n	400826 <ili9488_delay+0x12>
  400822:	4770      	bx	lr
  400824:	4a01      	ldr	r2, [pc, #4]	; (40082c <ili9488_delay+0x18>)
  400826:	4b02      	ldr	r3, [pc, #8]	; (400830 <ili9488_delay+0x1c>)
  400828:	e7f7      	b.n	40081a <ili9488_delay+0x6>
  40082a:	bf00      	nop
  40082c:	000186a1 	.word	0x000186a1
  400830:	000186a0 	.word	0x000186a0

00400834 <ili9488_set_display_direction>:
  400834:	b500      	push	{lr}
  400836:	b083      	sub	sp, #12
  400838:	b118      	cbz	r0, 400842 <ili9488_set_display_direction+0xe>
  40083a:	23e8      	movs	r3, #232	; 0xe8
  40083c:	f88d 3007 	strb.w	r3, [sp, #7]
  400840:	e002      	b.n	400848 <ili9488_set_display_direction+0x14>
  400842:	2348      	movs	r3, #72	; 0x48
  400844:	f88d 3007 	strb.w	r3, [sp, #7]
  400848:	2201      	movs	r2, #1
  40084a:	f10d 0107 	add.w	r1, sp, #7
  40084e:	2036      	movs	r0, #54	; 0x36
  400850:	4b02      	ldr	r3, [pc, #8]	; (40085c <ili9488_set_display_direction+0x28>)
  400852:	4798      	blx	r3
  400854:	b003      	add	sp, #12
  400856:	f85d fb04 	ldr.w	pc, [sp], #4
  40085a:	bf00      	nop
  40085c:	00400761 	.word	0x00400761

00400860 <ili9488_set_window>:
  400860:	b510      	push	{r4, lr}
  400862:	b084      	sub	sp, #16
  400864:	f8ad 000e 	strh.w	r0, [sp, #14]
  400868:	3a01      	subs	r2, #1
  40086a:	4402      	add	r2, r0
  40086c:	f8ad 200c 	strh.w	r2, [sp, #12]
  400870:	f8ad 100a 	strh.w	r1, [sp, #10]
  400874:	3b01      	subs	r3, #1
  400876:	4419      	add	r1, r3
  400878:	f8ad 1008 	strh.w	r1, [sp, #8]
  40087c:	0a03      	lsrs	r3, r0, #8
  40087e:	f88d 3004 	strb.w	r3, [sp, #4]
  400882:	f88d 0005 	strb.w	r0, [sp, #5]
  400886:	f3c2 2307 	ubfx	r3, r2, #8, #8
  40088a:	f88d 3006 	strb.w	r3, [sp, #6]
  40088e:	f88d 2007 	strb.w	r2, [sp, #7]
  400892:	2204      	movs	r2, #4
  400894:	eb0d 0102 	add.w	r1, sp, r2
  400898:	202a      	movs	r0, #42	; 0x2a
  40089a:	4c10      	ldr	r4, [pc, #64]	; (4008dc <ili9488_set_window+0x7c>)
  40089c:	47a0      	blx	r4
  40089e:	2200      	movs	r2, #0
  4008a0:	4611      	mov	r1, r2
  4008a2:	4610      	mov	r0, r2
  4008a4:	47a0      	blx	r4
  4008a6:	f89d 300b 	ldrb.w	r3, [sp, #11]
  4008aa:	f88d 3004 	strb.w	r3, [sp, #4]
  4008ae:	f89d 300a 	ldrb.w	r3, [sp, #10]
  4008b2:	f88d 3005 	strb.w	r3, [sp, #5]
  4008b6:	f89d 3009 	ldrb.w	r3, [sp, #9]
  4008ba:	f88d 3006 	strb.w	r3, [sp, #6]
  4008be:	f89d 3008 	ldrb.w	r3, [sp, #8]
  4008c2:	f88d 3007 	strb.w	r3, [sp, #7]
  4008c6:	2204      	movs	r2, #4
  4008c8:	eb0d 0102 	add.w	r1, sp, r2
  4008cc:	202b      	movs	r0, #43	; 0x2b
  4008ce:	47a0      	blx	r4
  4008d0:	2200      	movs	r2, #0
  4008d2:	4611      	mov	r1, r2
  4008d4:	4610      	mov	r0, r2
  4008d6:	47a0      	blx	r4
  4008d8:	b004      	add	sp, #16
  4008da:	bd10      	pop	{r4, pc}
  4008dc:	00400761 	.word	0x00400761

004008e0 <ili9488_display_on>:
  4008e0:	b508      	push	{r3, lr}
  4008e2:	2200      	movs	r2, #0
  4008e4:	4611      	mov	r1, r2
  4008e6:	2029      	movs	r0, #41	; 0x29
  4008e8:	4b01      	ldr	r3, [pc, #4]	; (4008f0 <ili9488_display_on+0x10>)
  4008ea:	4798      	blx	r3
  4008ec:	bd08      	pop	{r3, pc}
  4008ee:	bf00      	nop
  4008f0:	00400761 	.word	0x00400761

004008f4 <ili9488_set_foreground_color>:
  4008f4:	b410      	push	{r4}
  4008f6:	f3c0 4407 	ubfx	r4, r0, #16, #8
  4008fa:	f3c0 2107 	ubfx	r1, r0, #8, #8
  4008fe:	4b06      	ldr	r3, [pc, #24]	; (400918 <ili9488_set_foreground_color+0x24>)
  400900:	f503 7270 	add.w	r2, r3, #960	; 0x3c0
  400904:	701c      	strb	r4, [r3, #0]
  400906:	7059      	strb	r1, [r3, #1]
  400908:	7098      	strb	r0, [r3, #2]
  40090a:	3303      	adds	r3, #3
  40090c:	4293      	cmp	r3, r2
  40090e:	d1f9      	bne.n	400904 <ili9488_set_foreground_color+0x10>
  400910:	f85d 4b04 	ldr.w	r4, [sp], #4
  400914:	4770      	bx	lr
  400916:	bf00      	nop
  400918:	20400888 	.word	0x20400888

0040091c <ili9488_set_cursor_position>:
  40091c:	b510      	push	{r4, lr}
  40091e:	b084      	sub	sp, #16
  400920:	f8ad 0006 	strh.w	r0, [sp, #6]
  400924:	f8ad 1004 	strh.w	r1, [sp, #4]
  400928:	0a03      	lsrs	r3, r0, #8
  40092a:	f88d 300c 	strb.w	r3, [sp, #12]
  40092e:	b2c0      	uxtb	r0, r0
  400930:	f88d 000d 	strb.w	r0, [sp, #13]
  400934:	f88d 300e 	strb.w	r3, [sp, #14]
  400938:	f88d 000f 	strb.w	r0, [sp, #15]
  40093c:	2204      	movs	r2, #4
  40093e:	a903      	add	r1, sp, #12
  400940:	202a      	movs	r0, #42	; 0x2a
  400942:	4c0e      	ldr	r4, [pc, #56]	; (40097c <ili9488_set_cursor_position+0x60>)
  400944:	47a0      	blx	r4
  400946:	2200      	movs	r2, #0
  400948:	4611      	mov	r1, r2
  40094a:	4610      	mov	r0, r2
  40094c:	47a0      	blx	r4
  40094e:	f89d 2005 	ldrb.w	r2, [sp, #5]
  400952:	f88d 200c 	strb.w	r2, [sp, #12]
  400956:	f89d 3004 	ldrb.w	r3, [sp, #4]
  40095a:	f88d 300d 	strb.w	r3, [sp, #13]
  40095e:	f88d 200e 	strb.w	r2, [sp, #14]
  400962:	f88d 300f 	strb.w	r3, [sp, #15]
  400966:	2204      	movs	r2, #4
  400968:	a903      	add	r1, sp, #12
  40096a:	202b      	movs	r0, #43	; 0x2b
  40096c:	47a0      	blx	r4
  40096e:	2200      	movs	r2, #0
  400970:	4611      	mov	r1, r2
  400972:	4610      	mov	r0, r2
  400974:	47a0      	blx	r4
  400976:	b004      	add	sp, #16
  400978:	bd10      	pop	{r4, pc}
  40097a:	bf00      	nop
  40097c:	00400761 	.word	0x00400761

00400980 <ili9488_init>:
  400980:	e92d 43f0 	stmdb	sp!, {r4, r5, r6, r7, r8, r9, lr}
  400984:	b087      	sub	sp, #28
  400986:	4681      	mov	r9, r0
  400988:	2403      	movs	r4, #3
  40098a:	af06      	add	r7, sp, #24
  40098c:	f847 4d08 	str.w	r4, [r7, #-8]!
  400990:	4e5c      	ldr	r6, [pc, #368]	; (400b04 <ili9488_init+0x184>)
  400992:	4630      	mov	r0, r6
  400994:	4b5c      	ldr	r3, [pc, #368]	; (400b08 <ili9488_init+0x188>)
  400996:	4798      	blx	r3
  400998:	2500      	movs	r5, #0
  40099a:	9500      	str	r5, [sp, #0]
  40099c:	4b5b      	ldr	r3, [pc, #364]	; (400b0c <ili9488_init+0x18c>)
  40099e:	4622      	mov	r2, r4
  4009a0:	4639      	mov	r1, r7
  4009a2:	4630      	mov	r0, r6
  4009a4:	f8df 8194 	ldr.w	r8, [pc, #404]	; 400b3c <ili9488_init+0x1bc>
  4009a8:	47c0      	blx	r8
  4009aa:	462a      	mov	r2, r5
  4009ac:	4621      	mov	r1, r4
  4009ae:	4630      	mov	r0, r6
  4009b0:	4b57      	ldr	r3, [pc, #348]	; (400b10 <ili9488_init+0x190>)
  4009b2:	4798      	blx	r3
  4009b4:	4639      	mov	r1, r7
  4009b6:	4630      	mov	r0, r6
  4009b8:	4b56      	ldr	r3, [pc, #344]	; (400b14 <ili9488_init+0x194>)
  4009ba:	4798      	blx	r3
  4009bc:	2001      	movs	r0, #1
  4009be:	6030      	str	r0, [r6, #0]
  4009c0:	6170      	str	r0, [r6, #20]
  4009c2:	462a      	mov	r2, r5
  4009c4:	4629      	mov	r1, r5
  4009c6:	4f54      	ldr	r7, [pc, #336]	; (400b18 <ili9488_init+0x198>)
  4009c8:	47b8      	blx	r7
  4009ca:	20c8      	movs	r0, #200	; 0xc8
  4009cc:	4e53      	ldr	r6, [pc, #332]	; (400b1c <ili9488_init+0x19c>)
  4009ce:	47b0      	blx	r6
  4009d0:	462a      	mov	r2, r5
  4009d2:	4629      	mov	r1, r5
  4009d4:	2011      	movs	r0, #17
  4009d6:	47b8      	blx	r7
  4009d8:	20c8      	movs	r0, #200	; 0xc8
  4009da:	47b0      	blx	r6
  4009dc:	2381      	movs	r3, #129	; 0x81
  4009de:	f88d 300a 	strb.w	r3, [sp, #10]
  4009e2:	f88d 500b 	strb.w	r5, [sp, #11]
  4009e6:	f04f 0801 	mov.w	r8, #1
  4009ea:	462e      	mov	r6, r5
  4009ec:	4642      	mov	r2, r8
  4009ee:	f10d 010a 	add.w	r1, sp, #10
  4009f2:	20fb      	movs	r0, #251	; 0xfb
  4009f4:	47b8      	blx	r7
  4009f6:	f89d 300a 	ldrb.w	r3, [sp, #10]
  4009fa:	3301      	adds	r3, #1
  4009fc:	f88d 300a 	strb.w	r3, [sp, #10]
  400a00:	9603      	str	r6, [sp, #12]
  400a02:	9b03      	ldr	r3, [sp, #12]
  400a04:	2bfe      	cmp	r3, #254	; 0xfe
  400a06:	d805      	bhi.n	400a14 <ili9488_init+0x94>
  400a08:	9b03      	ldr	r3, [sp, #12]
  400a0a:	3301      	adds	r3, #1
  400a0c:	9303      	str	r3, [sp, #12]
  400a0e:	9b03      	ldr	r3, [sp, #12]
  400a10:	2bfe      	cmp	r3, #254	; 0xfe
  400a12:	d9f9      	bls.n	400a08 <ili9488_init+0x88>
  400a14:	4632      	mov	r2, r6
  400a16:	4631      	mov	r1, r6
  400a18:	20d3      	movs	r0, #211	; 0xd3
  400a1a:	47b8      	blx	r7
  400a1c:	2006      	movs	r0, #6
  400a1e:	4b40      	ldr	r3, [pc, #256]	; (400b20 <ili9488_init+0x1a0>)
  400a20:	4798      	blx	r3
  400a22:	4642      	mov	r2, r8
  400a24:	f10d 0109 	add.w	r1, sp, #9
  400a28:	4836      	ldr	r0, [pc, #216]	; (400b04 <ili9488_init+0x184>)
  400a2a:	4b3e      	ldr	r3, [pc, #248]	; (400b24 <ili9488_init+0x1a4>)
  400a2c:	4798      	blx	r3
  400a2e:	9603      	str	r6, [sp, #12]
  400a30:	9b03      	ldr	r3, [sp, #12]
  400a32:	2bfe      	cmp	r3, #254	; 0xfe
  400a34:	d805      	bhi.n	400a42 <ili9488_init+0xc2>
  400a36:	9b03      	ldr	r3, [sp, #12]
  400a38:	3301      	adds	r3, #1
  400a3a:	9303      	str	r3, [sp, #12]
  400a3c:	9b03      	ldr	r3, [sp, #12]
  400a3e:	2bfe      	cmp	r3, #254	; 0xfe
  400a40:	d9f9      	bls.n	400a36 <ili9488_init+0xb6>
  400a42:	3c01      	subs	r4, #1
  400a44:	f89d 3009 	ldrb.w	r3, [sp, #9]
  400a48:	00e2      	lsls	r2, r4, #3
  400a4a:	4093      	lsls	r3, r2
  400a4c:	431d      	orrs	r5, r3
  400a4e:	4642      	mov	r2, r8
  400a50:	f10d 010b 	add.w	r1, sp, #11
  400a54:	20fb      	movs	r0, #251	; 0xfb
  400a56:	47b8      	blx	r7
  400a58:	9603      	str	r6, [sp, #12]
  400a5a:	9a03      	ldr	r2, [sp, #12]
  400a5c:	f640 73fe 	movw	r3, #4094	; 0xffe
  400a60:	429a      	cmp	r2, r3
  400a62:	d806      	bhi.n	400a72 <ili9488_init+0xf2>
  400a64:	461a      	mov	r2, r3
  400a66:	9b03      	ldr	r3, [sp, #12]
  400a68:	3301      	adds	r3, #1
  400a6a:	9303      	str	r3, [sp, #12]
  400a6c:	9b03      	ldr	r3, [sp, #12]
  400a6e:	4293      	cmp	r3, r2
  400a70:	d9f9      	bls.n	400a66 <ili9488_init+0xe6>
  400a72:	2c00      	cmp	r4, #0
  400a74:	d1ba      	bne.n	4009ec <ili9488_init+0x6c>
  400a76:	f249 4388 	movw	r3, #38024	; 0x9488
  400a7a:	429d      	cmp	r5, r3
  400a7c:	d13e      	bne.n	400afc <ili9488_init+0x17c>
  400a7e:	ad06      	add	r5, sp, #24
  400a80:	2348      	movs	r3, #72	; 0x48
  400a82:	f805 3d01 	strb.w	r3, [r5, #-1]!
  400a86:	2201      	movs	r2, #1
  400a88:	4629      	mov	r1, r5
  400a8a:	2036      	movs	r0, #54	; 0x36
  400a8c:	4e22      	ldr	r6, [pc, #136]	; (400b18 <ili9488_init+0x198>)
  400a8e:	47b0      	blx	r6
  400a90:	2064      	movs	r0, #100	; 0x64
  400a92:	4c22      	ldr	r4, [pc, #136]	; (400b1c <ili9488_init+0x19c>)
  400a94:	47a0      	blx	r4
  400a96:	2304      	movs	r3, #4
  400a98:	f88d 3017 	strb.w	r3, [sp, #23]
  400a9c:	2201      	movs	r2, #1
  400a9e:	4629      	mov	r1, r5
  400aa0:	20cf      	movs	r0, #207	; 0xcf
  400aa2:	47b0      	blx	r6
  400aa4:	2064      	movs	r0, #100	; 0x64
  400aa6:	47a0      	blx	r4
  400aa8:	2306      	movs	r3, #6
  400aaa:	f88d 3017 	strb.w	r3, [sp, #23]
  400aae:	2201      	movs	r2, #1
  400ab0:	4629      	mov	r1, r5
  400ab2:	203a      	movs	r0, #58	; 0x3a
  400ab4:	47b0      	blx	r6
  400ab6:	2064      	movs	r0, #100	; 0x64
  400ab8:	47a0      	blx	r4
  400aba:	2200      	movs	r2, #0
  400abc:	4611      	mov	r1, r2
  400abe:	2013      	movs	r0, #19
  400ac0:	47b0      	blx	r6
  400ac2:	2064      	movs	r0, #100	; 0x64
  400ac4:	47a0      	blx	r4
  400ac6:	4b18      	ldr	r3, [pc, #96]	; (400b28 <ili9488_init+0x1a8>)
  400ac8:	4798      	blx	r3
  400aca:	2064      	movs	r0, #100	; 0x64
  400acc:	47a0      	blx	r4
  400ace:	2000      	movs	r0, #0
  400ad0:	4b16      	ldr	r3, [pc, #88]	; (400b2c <ili9488_init+0x1ac>)
  400ad2:	4798      	blx	r3
  400ad4:	2064      	movs	r0, #100	; 0x64
  400ad6:	47a0      	blx	r4
  400ad8:	f8b9 3004 	ldrh.w	r3, [r9, #4]
  400adc:	f8b9 2000 	ldrh.w	r2, [r9]
  400ae0:	2100      	movs	r1, #0
  400ae2:	4608      	mov	r0, r1
  400ae4:	4c12      	ldr	r4, [pc, #72]	; (400b30 <ili9488_init+0x1b0>)
  400ae6:	47a0      	blx	r4
  400ae8:	f8d9 0008 	ldr.w	r0, [r9, #8]
  400aec:	4b11      	ldr	r3, [pc, #68]	; (400b34 <ili9488_init+0x1b4>)
  400aee:	4798      	blx	r3
  400af0:	2100      	movs	r1, #0
  400af2:	4608      	mov	r0, r1
  400af4:	4b10      	ldr	r3, [pc, #64]	; (400b38 <ili9488_init+0x1b8>)
  400af6:	4798      	blx	r3
  400af8:	2000      	movs	r0, #0
  400afa:	e000      	b.n	400afe <ili9488_init+0x17e>
  400afc:	2001      	movs	r0, #1
  400afe:	b007      	add	sp, #28
  400b00:	e8bd 83f0 	ldmia.w	sp!, {r4, r5, r6, r7, r8, r9, pc}
  400b04:	40008000 	.word	0x40008000
  400b08:	0040020d 	.word	0x0040020d
  400b0c:	01312d00 	.word	0x01312d00
  400b10:	00401359 	.word	0x00401359
  400b14:	004002e1 	.word	0x004002e1
  400b18:	00400761 	.word	0x00400761
  400b1c:	00400815 	.word	0x00400815
  400b20:	00400eed 	.word	0x00400eed
  400b24:	00400345 	.word	0x00400345
  400b28:	004008e1 	.word	0x004008e1
  400b2c:	00400835 	.word	0x00400835
  400b30:	00400861 	.word	0x00400861
  400b34:	004008f5 	.word	0x004008f5
  400b38:	0040091d 	.word	0x0040091d
  400b3c:	00400261 	.word	0x00400261

00400b40 <ili9488_draw_pixel>:
  400b40:	f5b0 7fa0 	cmp.w	r0, #320	; 0x140
  400b44:	d20f      	bcs.n	400b66 <ili9488_draw_pixel+0x26>
  400b46:	f5b1 7ff0 	cmp.w	r1, #480	; 0x1e0
  400b4a:	d20c      	bcs.n	400b66 <ili9488_draw_pixel+0x26>
  400b4c:	b508      	push	{r3, lr}
  400b4e:	b289      	uxth	r1, r1
  400b50:	b280      	uxth	r0, r0
  400b52:	4b06      	ldr	r3, [pc, #24]	; (400b6c <ili9488_draw_pixel+0x2c>)
  400b54:	4798      	blx	r3
  400b56:	4b06      	ldr	r3, [pc, #24]	; (400b70 <ili9488_draw_pixel+0x30>)
  400b58:	4798      	blx	r3
  400b5a:	2103      	movs	r1, #3
  400b5c:	4805      	ldr	r0, [pc, #20]	; (400b74 <ili9488_draw_pixel+0x34>)
  400b5e:	4b06      	ldr	r3, [pc, #24]	; (400b78 <ili9488_draw_pixel+0x38>)
  400b60:	4798      	blx	r3
  400b62:	2000      	movs	r0, #0
  400b64:	bd08      	pop	{r3, pc}
  400b66:	2001      	movs	r0, #1
  400b68:	4770      	bx	lr
  400b6a:	bf00      	nop
  400b6c:	0040091d 	.word	0x0040091d
  400b70:	00400725 	.word	0x00400725
  400b74:	20400888 	.word	0x20400888
  400b78:	004007d5 	.word	0x004007d5

00400b7c <ili9488_draw_filled_rectangle>:
  400b7c:	e92d 41f0 	stmdb	sp!, {r4, r5, r6, r7, r8, lr}
  400b80:	b084      	sub	sp, #16
  400b82:	9003      	str	r0, [sp, #12]
  400b84:	9102      	str	r1, [sp, #8]
  400b86:	9201      	str	r2, [sp, #4]
  400b88:	aa04      	add	r2, sp, #16
  400b8a:	f842 3d10 	str.w	r3, [r2, #-16]!
  400b8e:	4613      	mov	r3, r2
  400b90:	aa01      	add	r2, sp, #4
  400b92:	a902      	add	r1, sp, #8
  400b94:	a803      	add	r0, sp, #12
  400b96:	4c21      	ldr	r4, [pc, #132]	; (400c1c <ili9488_draw_filled_rectangle+0xa0>)
  400b98:	47a0      	blx	r4
  400b9a:	f8bd 000c 	ldrh.w	r0, [sp, #12]
  400b9e:	f8bd 1008 	ldrh.w	r1, [sp, #8]
  400ba2:	9b00      	ldr	r3, [sp, #0]
  400ba4:	3301      	adds	r3, #1
  400ba6:	1a5b      	subs	r3, r3, r1
  400ba8:	9a01      	ldr	r2, [sp, #4]
  400baa:	3201      	adds	r2, #1
  400bac:	1a12      	subs	r2, r2, r0
  400bae:	b29b      	uxth	r3, r3
  400bb0:	b292      	uxth	r2, r2
  400bb2:	4c1b      	ldr	r4, [pc, #108]	; (400c20 <ili9488_draw_filled_rectangle+0xa4>)
  400bb4:	47a0      	blx	r4
  400bb6:	4b1b      	ldr	r3, [pc, #108]	; (400c24 <ili9488_draw_filled_rectangle+0xa8>)
  400bb8:	4798      	blx	r3
  400bba:	9d03      	ldr	r5, [sp, #12]
  400bbc:	9b01      	ldr	r3, [sp, #4]
  400bbe:	1b59      	subs	r1, r3, r5
  400bc0:	9b00      	ldr	r3, [sp, #0]
  400bc2:	3301      	adds	r3, #1
  400bc4:	9d02      	ldr	r5, [sp, #8]
  400bc6:	1b5d      	subs	r5, r3, r5
  400bc8:	fb01 5505 	mla	r5, r1, r5, r5
  400bcc:	4c16      	ldr	r4, [pc, #88]	; (400c28 <ili9488_draw_filled_rectangle+0xac>)
  400bce:	fba4 3405 	umull	r3, r4, r4, r5
  400bd2:	0a24      	lsrs	r4, r4, #8
  400bd4:	d009      	beq.n	400bea <ili9488_draw_filled_rectangle+0x6e>
  400bd6:	f8df 8058 	ldr.w	r8, [pc, #88]	; 400c30 <ili9488_draw_filled_rectangle+0xb4>
  400bda:	f44f 7770 	mov.w	r7, #960	; 0x3c0
  400bde:	4e13      	ldr	r6, [pc, #76]	; (400c2c <ili9488_draw_filled_rectangle+0xb0>)
  400be0:	4639      	mov	r1, r7
  400be2:	4640      	mov	r0, r8
  400be4:	47b0      	blx	r6
  400be6:	3c01      	subs	r4, #1
  400be8:	d1fa      	bne.n	400be0 <ili9488_draw_filled_rectangle+0x64>
  400bea:	490f      	ldr	r1, [pc, #60]	; (400c28 <ili9488_draw_filled_rectangle+0xac>)
  400bec:	fba1 3105 	umull	r3, r1, r1, r5
  400bf0:	0a09      	lsrs	r1, r1, #8
  400bf2:	eb01 0181 	add.w	r1, r1, r1, lsl #2
  400bf6:	eba5 1181 	sub.w	r1, r5, r1, lsl #6
  400bfa:	eb01 0141 	add.w	r1, r1, r1, lsl #1
  400bfe:	480c      	ldr	r0, [pc, #48]	; (400c30 <ili9488_draw_filled_rectangle+0xb4>)
  400c00:	4b0a      	ldr	r3, [pc, #40]	; (400c2c <ili9488_draw_filled_rectangle+0xb0>)
  400c02:	4798      	blx	r3
  400c04:	f44f 73f0 	mov.w	r3, #480	; 0x1e0
  400c08:	f44f 72a0 	mov.w	r2, #320	; 0x140
  400c0c:	2100      	movs	r1, #0
  400c0e:	4608      	mov	r0, r1
  400c10:	4c03      	ldr	r4, [pc, #12]	; (400c20 <ili9488_draw_filled_rectangle+0xa4>)
  400c12:	47a0      	blx	r4
  400c14:	b004      	add	sp, #16
  400c16:	e8bd 81f0 	ldmia.w	sp!, {r4, r5, r6, r7, r8, pc}
  400c1a:	bf00      	nop
  400c1c:	004006cd 	.word	0x004006cd
  400c20:	00400861 	.word	0x00400861
  400c24:	00400725 	.word	0x00400725
  400c28:	cccccccd 	.word	0xcccccccd
  400c2c:	004007d5 	.word	0x004007d5
  400c30:	20400888 	.word	0x20400888

00400c34 <ili9488_draw_string>:
  400c34:	e92d 4ff0 	stmdb	sp!, {r4, r5, r6, r7, r8, r9, sl, fp, lr}
  400c38:	b085      	sub	sp, #20
  400c3a:	9003      	str	r0, [sp, #12]
  400c3c:	9202      	str	r2, [sp, #8]
  400c3e:	7813      	ldrb	r3, [r2, #0]
  400c40:	2b00      	cmp	r3, #0
  400c42:	d045      	beq.n	400cd0 <ili9488_draw_string+0x9c>
  400c44:	468a      	mov	sl, r1
  400c46:	9001      	str	r0, [sp, #4]
  400c48:	f8df 8090 	ldr.w	r8, [pc, #144]	; 400cdc <ili9488_draw_string+0xa8>
  400c4c:	2b0a      	cmp	r3, #10
  400c4e:	d104      	bne.n	400c5a <ili9488_draw_string+0x26>
  400c50:	f10a 0a10 	add.w	sl, sl, #16
  400c54:	9b03      	ldr	r3, [sp, #12]
  400c56:	9301      	str	r3, [sp, #4]
  400c58:	e034      	b.n	400cc4 <ili9488_draw_string+0x90>
  400c5a:	eb03 0383 	add.w	r3, r3, r3, lsl #2
  400c5e:	4e1e      	ldr	r6, [pc, #120]	; (400cd8 <ili9488_draw_string+0xa4>)
  400c60:	eb06 0383 	add.w	r3, r6, r3, lsl #2
  400c64:	f2a3 267f 	subw	r6, r3, #639	; 0x27f
  400c68:	9f01      	ldr	r7, [sp, #4]
  400c6a:	463b      	mov	r3, r7
  400c6c:	330a      	adds	r3, #10
  400c6e:	9300      	str	r3, [sp, #0]
  400c70:	f10a 0907 	add.w	r9, sl, #7
  400c74:	2407      	movs	r4, #7
  400c76:	46b3      	mov	fp, r6
  400c78:	465d      	mov	r5, fp
  400c7a:	f816 3c01 	ldrb.w	r3, [r6, #-1]
  400c7e:	4123      	asrs	r3, r4
  400c80:	f013 0f01 	tst.w	r3, #1
  400c84:	d003      	beq.n	400c8e <ili9488_draw_string+0x5a>
  400c86:	ebc4 0109 	rsb	r1, r4, r9
  400c8a:	4638      	mov	r0, r7
  400c8c:	47c0      	blx	r8
  400c8e:	3c01      	subs	r4, #1
  400c90:	f1b4 3fff 	cmp.w	r4, #4294967295
  400c94:	d1f0      	bne.n	400c78 <ili9488_draw_string+0x44>
  400c96:	2407      	movs	r4, #7
  400c98:	f10a 0b0f 	add.w	fp, sl, #15
  400c9c:	782b      	ldrb	r3, [r5, #0]
  400c9e:	4123      	asrs	r3, r4
  400ca0:	f013 0f01 	tst.w	r3, #1
  400ca4:	d003      	beq.n	400cae <ili9488_draw_string+0x7a>
  400ca6:	ebc4 010b 	rsb	r1, r4, fp
  400caa:	4638      	mov	r0, r7
  400cac:	47c0      	blx	r8
  400cae:	3c01      	subs	r4, #1
  400cb0:	2c01      	cmp	r4, #1
  400cb2:	d1f3      	bne.n	400c9c <ili9488_draw_string+0x68>
  400cb4:	3602      	adds	r6, #2
  400cb6:	3701      	adds	r7, #1
  400cb8:	9b00      	ldr	r3, [sp, #0]
  400cba:	42bb      	cmp	r3, r7
  400cbc:	d1da      	bne.n	400c74 <ili9488_draw_string+0x40>
  400cbe:	9b01      	ldr	r3, [sp, #4]
  400cc0:	330c      	adds	r3, #12
  400cc2:	9301      	str	r3, [sp, #4]
  400cc4:	9a02      	ldr	r2, [sp, #8]
  400cc6:	f812 3f01 	ldrb.w	r3, [r2, #1]!
  400cca:	9202      	str	r2, [sp, #8]
  400ccc:	2b00      	cmp	r3, #0
  400cce:	d1bd      	bne.n	400c4c <ili9488_draw_string+0x18>
  400cd0:	b005      	add	sp, #20
  400cd2:	e8bd 8ff0 	ldmia.w	sp!, {r4, r5, r6, r7, r8, r9, sl, fp, pc}
  400cd6:	bf00      	nop
  400cd8:	00404c6c 	.word	0x00404c6c
  400cdc:	00400b41 	.word	0x00400b41

00400ce0 <ili9488_draw_pixmap>:
  400ce0:	b510      	push	{r4, lr}
  400ce2:	b084      	sub	sp, #16
  400ce4:	9003      	str	r0, [sp, #12]
  400ce6:	9102      	str	r1, [sp, #8]
  400ce8:	3a01      	subs	r2, #1
  400cea:	4410      	add	r0, r2
  400cec:	9001      	str	r0, [sp, #4]
  400cee:	3b01      	subs	r3, #1
  400cf0:	4419      	add	r1, r3
  400cf2:	ab04      	add	r3, sp, #16
  400cf4:	f843 1d10 	str.w	r1, [r3, #-16]!
  400cf8:	aa01      	add	r2, sp, #4
  400cfa:	a902      	add	r1, sp, #8
  400cfc:	a803      	add	r0, sp, #12
  400cfe:	4c13      	ldr	r4, [pc, #76]	; (400d4c <ili9488_draw_pixmap+0x6c>)
  400d00:	47a0      	blx	r4
  400d02:	f8bd 000c 	ldrh.w	r0, [sp, #12]
  400d06:	f8bd 1008 	ldrh.w	r1, [sp, #8]
  400d0a:	9b00      	ldr	r3, [sp, #0]
  400d0c:	3301      	adds	r3, #1
  400d0e:	1a5b      	subs	r3, r3, r1
  400d10:	9a01      	ldr	r2, [sp, #4]
  400d12:	3201      	adds	r2, #1
  400d14:	1a12      	subs	r2, r2, r0
  400d16:	b29b      	uxth	r3, r3
  400d18:	b292      	uxth	r2, r2
  400d1a:	4c0d      	ldr	r4, [pc, #52]	; (400d50 <ili9488_draw_pixmap+0x70>)
  400d1c:	47a0      	blx	r4
  400d1e:	9a03      	ldr	r2, [sp, #12]
  400d20:	9b01      	ldr	r3, [sp, #4]
  400d22:	1a99      	subs	r1, r3, r2
  400d24:	9a02      	ldr	r2, [sp, #8]
  400d26:	9b00      	ldr	r3, [sp, #0]
  400d28:	1a9b      	subs	r3, r3, r2
  400d2a:	fb03 f201 	mul.w	r2, r3, r1
  400d2e:	eb02 0242 	add.w	r2, r2, r2, lsl #1
  400d32:	9906      	ldr	r1, [sp, #24]
  400d34:	202c      	movs	r0, #44	; 0x2c
  400d36:	4b07      	ldr	r3, [pc, #28]	; (400d54 <ili9488_draw_pixmap+0x74>)
  400d38:	4798      	blx	r3
  400d3a:	f44f 73f0 	mov.w	r3, #480	; 0x1e0
  400d3e:	f44f 72a0 	mov.w	r2, #320	; 0x140
  400d42:	2100      	movs	r1, #0
  400d44:	4608      	mov	r0, r1
  400d46:	47a0      	blx	r4
  400d48:	b004      	add	sp, #16
  400d4a:	bd10      	pop	{r4, pc}
  400d4c:	004006cd 	.word	0x004006cd
  400d50:	00400861 	.word	0x00400861
  400d54:	00400761 	.word	0x00400761

00400d58 <pio_set>:
  400d58:	6301      	str	r1, [r0, #48]	; 0x30
  400d5a:	4770      	bx	lr

00400d5c <pio_set_peripheral>:
  400d5c:	6442      	str	r2, [r0, #68]	; 0x44
  400d5e:	f1b1 5fc0 	cmp.w	r1, #402653184	; 0x18000000
  400d62:	d02f      	beq.n	400dc4 <pio_set_peripheral+0x68>
  400d64:	d807      	bhi.n	400d76 <pio_set_peripheral+0x1a>
  400d66:	f1b1 6f00 	cmp.w	r1, #134217728	; 0x8000000
  400d6a:	d014      	beq.n	400d96 <pio_set_peripheral+0x3a>
  400d6c:	f1b1 5f80 	cmp.w	r1, #268435456	; 0x10000000
  400d70:	d01e      	beq.n	400db0 <pio_set_peripheral+0x54>
  400d72:	b939      	cbnz	r1, 400d84 <pio_set_peripheral+0x28>
  400d74:	4770      	bx	lr
  400d76:	f1b1 5f20 	cmp.w	r1, #671088640	; 0x28000000
  400d7a:	d037      	beq.n	400dec <pio_set_peripheral+0x90>
  400d7c:	d804      	bhi.n	400d88 <pio_set_peripheral+0x2c>
  400d7e:	f1b1 5f00 	cmp.w	r1, #536870912	; 0x20000000
  400d82:	d029      	beq.n	400dd8 <pio_set_peripheral+0x7c>
  400d84:	6042      	str	r2, [r0, #4]
  400d86:	4770      	bx	lr
  400d88:	f1b1 5f40 	cmp.w	r1, #805306368	; 0x30000000
  400d8c:	d02e      	beq.n	400dec <pio_set_peripheral+0x90>
  400d8e:	f1b1 5f60 	cmp.w	r1, #939524096	; 0x38000000
  400d92:	d02b      	beq.n	400dec <pio_set_peripheral+0x90>
  400d94:	e7f6      	b.n	400d84 <pio_set_peripheral+0x28>
  400d96:	b410      	push	{r4}
  400d98:	6f04      	ldr	r4, [r0, #112]	; 0x70
  400d9a:	6f01      	ldr	r1, [r0, #112]	; 0x70
  400d9c:	43d3      	mvns	r3, r2
  400d9e:	4021      	ands	r1, r4
  400da0:	4019      	ands	r1, r3
  400da2:	6701      	str	r1, [r0, #112]	; 0x70
  400da4:	6f44      	ldr	r4, [r0, #116]	; 0x74
  400da6:	6f41      	ldr	r1, [r0, #116]	; 0x74
  400da8:	4021      	ands	r1, r4
  400daa:	400b      	ands	r3, r1
  400dac:	6743      	str	r3, [r0, #116]	; 0x74
  400dae:	e01a      	b.n	400de6 <pio_set_peripheral+0x8a>
  400db0:	6f03      	ldr	r3, [r0, #112]	; 0x70
  400db2:	4313      	orrs	r3, r2
  400db4:	6703      	str	r3, [r0, #112]	; 0x70
  400db6:	6f41      	ldr	r1, [r0, #116]	; 0x74
  400db8:	6f43      	ldr	r3, [r0, #116]	; 0x74
  400dba:	400b      	ands	r3, r1
  400dbc:	ea23 0302 	bic.w	r3, r3, r2
  400dc0:	6743      	str	r3, [r0, #116]	; 0x74
  400dc2:	e7df      	b.n	400d84 <pio_set_peripheral+0x28>
  400dc4:	6f01      	ldr	r1, [r0, #112]	; 0x70
  400dc6:	6f03      	ldr	r3, [r0, #112]	; 0x70
  400dc8:	400b      	ands	r3, r1
  400dca:	ea23 0302 	bic.w	r3, r3, r2
  400dce:	6703      	str	r3, [r0, #112]	; 0x70
  400dd0:	6f43      	ldr	r3, [r0, #116]	; 0x74
  400dd2:	4313      	orrs	r3, r2
  400dd4:	6743      	str	r3, [r0, #116]	; 0x74
  400dd6:	e7d5      	b.n	400d84 <pio_set_peripheral+0x28>
  400dd8:	6f03      	ldr	r3, [r0, #112]	; 0x70
  400dda:	4313      	orrs	r3, r2
  400ddc:	6703      	str	r3, [r0, #112]	; 0x70
  400dde:	6f43      	ldr	r3, [r0, #116]	; 0x74
  400de0:	4313      	orrs	r3, r2
  400de2:	6743      	str	r3, [r0, #116]	; 0x74
  400de4:	e7ce      	b.n	400d84 <pio_set_peripheral+0x28>
  400de6:	6042      	str	r2, [r0, #4]
  400de8:	f85d 4b04 	ldr.w	r4, [sp], #4
  400dec:	4770      	bx	lr
  400dee:	bf00      	nop

00400df0 <pio_set_input>:
  400df0:	6441      	str	r1, [r0, #68]	; 0x44
  400df2:	f012 0f01 	tst.w	r2, #1
  400df6:	d001      	beq.n	400dfc <pio_set_input+0xc>
  400df8:	6641      	str	r1, [r0, #100]	; 0x64
  400dfa:	e000      	b.n	400dfe <pio_set_input+0xe>
  400dfc:	6601      	str	r1, [r0, #96]	; 0x60
  400dfe:	f012 0f0a 	tst.w	r2, #10
  400e02:	d001      	beq.n	400e08 <pio_set_input+0x18>
  400e04:	6201      	str	r1, [r0, #32]
  400e06:	e000      	b.n	400e0a <pio_set_input+0x1a>
  400e08:	6241      	str	r1, [r0, #36]	; 0x24
  400e0a:	f012 0f02 	tst.w	r2, #2
  400e0e:	d002      	beq.n	400e16 <pio_set_input+0x26>
  400e10:	f8c0 1080 	str.w	r1, [r0, #128]	; 0x80
  400e14:	e004      	b.n	400e20 <pio_set_input+0x30>
  400e16:	f012 0f08 	tst.w	r2, #8
  400e1a:	d001      	beq.n	400e20 <pio_set_input+0x30>
  400e1c:	f8c0 1084 	str.w	r1, [r0, #132]	; 0x84
  400e20:	6141      	str	r1, [r0, #20]
  400e22:	6001      	str	r1, [r0, #0]
  400e24:	4770      	bx	lr
  400e26:	bf00      	nop

00400e28 <pio_set_output>:
  400e28:	b410      	push	{r4}
  400e2a:	6441      	str	r1, [r0, #68]	; 0x44
  400e2c:	9c01      	ldr	r4, [sp, #4]
  400e2e:	b10c      	cbz	r4, 400e34 <pio_set_output+0xc>
  400e30:	6641      	str	r1, [r0, #100]	; 0x64
  400e32:	e000      	b.n	400e36 <pio_set_output+0xe>
  400e34:	6601      	str	r1, [r0, #96]	; 0x60
  400e36:	b10b      	cbz	r3, 400e3c <pio_set_output+0x14>
  400e38:	6501      	str	r1, [r0, #80]	; 0x50
  400e3a:	e000      	b.n	400e3e <pio_set_output+0x16>
  400e3c:	6541      	str	r1, [r0, #84]	; 0x54
  400e3e:	b10a      	cbz	r2, 400e44 <pio_set_output+0x1c>
  400e40:	6301      	str	r1, [r0, #48]	; 0x30
  400e42:	e000      	b.n	400e46 <pio_set_output+0x1e>
  400e44:	6341      	str	r1, [r0, #52]	; 0x34
  400e46:	6101      	str	r1, [r0, #16]
  400e48:	6001      	str	r1, [r0, #0]
  400e4a:	f85d 4b04 	ldr.w	r4, [sp], #4
  400e4e:	4770      	bx	lr

00400e50 <pio_configure>:
  400e50:	b570      	push	{r4, r5, r6, lr}
  400e52:	b082      	sub	sp, #8
  400e54:	4605      	mov	r5, r0
  400e56:	4616      	mov	r6, r2
  400e58:	461c      	mov	r4, r3
  400e5a:	f1b1 5f00 	cmp.w	r1, #536870912	; 0x20000000
  400e5e:	d014      	beq.n	400e8a <pio_configure+0x3a>
  400e60:	d809      	bhi.n	400e76 <pio_configure+0x26>
  400e62:	f1b1 5f80 	cmp.w	r1, #268435456	; 0x10000000
  400e66:	d010      	beq.n	400e8a <pio_configure+0x3a>
  400e68:	f1b1 5fc0 	cmp.w	r1, #402653184	; 0x18000000
  400e6c:	d00d      	beq.n	400e8a <pio_configure+0x3a>
  400e6e:	f1b1 6f00 	cmp.w	r1, #134217728	; 0x8000000
  400e72:	d12d      	bne.n	400ed0 <pio_configure+0x80>
  400e74:	e009      	b.n	400e8a <pio_configure+0x3a>
  400e76:	f1b1 5f40 	cmp.w	r1, #805306368	; 0x30000000
  400e7a:	d019      	beq.n	400eb0 <pio_configure+0x60>
  400e7c:	f1b1 5f60 	cmp.w	r1, #939524096	; 0x38000000
  400e80:	d016      	beq.n	400eb0 <pio_configure+0x60>
  400e82:	f1b1 5f20 	cmp.w	r1, #671088640	; 0x28000000
  400e86:	d00d      	beq.n	400ea4 <pio_configure+0x54>
  400e88:	e022      	b.n	400ed0 <pio_configure+0x80>
  400e8a:	4632      	mov	r2, r6
  400e8c:	4628      	mov	r0, r5
  400e8e:	4b12      	ldr	r3, [pc, #72]	; (400ed8 <pio_configure+0x88>)
  400e90:	4798      	blx	r3
  400e92:	f014 0f01 	tst.w	r4, #1
  400e96:	d002      	beq.n	400e9e <pio_configure+0x4e>
  400e98:	666e      	str	r6, [r5, #100]	; 0x64
  400e9a:	2001      	movs	r0, #1
  400e9c:	e019      	b.n	400ed2 <pio_configure+0x82>
  400e9e:	662e      	str	r6, [r5, #96]	; 0x60
  400ea0:	2001      	movs	r0, #1
  400ea2:	e016      	b.n	400ed2 <pio_configure+0x82>
  400ea4:	461a      	mov	r2, r3
  400ea6:	4631      	mov	r1, r6
  400ea8:	4b0c      	ldr	r3, [pc, #48]	; (400edc <pio_configure+0x8c>)
  400eaa:	4798      	blx	r3
  400eac:	2001      	movs	r0, #1
  400eae:	e010      	b.n	400ed2 <pio_configure+0x82>
  400eb0:	f004 0301 	and.w	r3, r4, #1
  400eb4:	9300      	str	r3, [sp, #0]
  400eb6:	f3c4 0380 	ubfx	r3, r4, #2, #1
  400eba:	f1b1 5f60 	cmp.w	r1, #939524096	; 0x38000000
  400ebe:	bf14      	ite	ne
  400ec0:	2200      	movne	r2, #0
  400ec2:	2201      	moveq	r2, #1
  400ec4:	4631      	mov	r1, r6
  400ec6:	4628      	mov	r0, r5
  400ec8:	4c05      	ldr	r4, [pc, #20]	; (400ee0 <pio_configure+0x90>)
  400eca:	47a0      	blx	r4
  400ecc:	2001      	movs	r0, #1
  400ece:	e000      	b.n	400ed2 <pio_configure+0x82>
  400ed0:	2000      	movs	r0, #0
  400ed2:	b002      	add	sp, #8
  400ed4:	bd70      	pop	{r4, r5, r6, pc}
  400ed6:	bf00      	nop
  400ed8:	00400d5d 	.word	0x00400d5d
  400edc:	00400df1 	.word	0x00400df1
  400ee0:	00400e29 	.word	0x00400e29

00400ee4 <pio_get_interrupt_status>:
  400ee4:	6cc0      	ldr	r0, [r0, #76]	; 0x4c
  400ee6:	4770      	bx	lr

00400ee8 <pio_get_interrupt_mask>:
  400ee8:	6c80      	ldr	r0, [r0, #72]	; 0x48
  400eea:	4770      	bx	lr

00400eec <pio_set_pin_high>:
  400eec:	4b05      	ldr	r3, [pc, #20]	; (400f04 <pio_set_pin_high+0x18>)
  400eee:	eb03 1350 	add.w	r3, r3, r0, lsr #5
  400ef2:	025b      	lsls	r3, r3, #9
  400ef4:	f000 001f 	and.w	r0, r0, #31
  400ef8:	2201      	movs	r2, #1
  400efa:	fa02 f000 	lsl.w	r0, r2, r0
  400efe:	6318      	str	r0, [r3, #48]	; 0x30
  400f00:	4770      	bx	lr
  400f02:	bf00      	nop
  400f04:	00200707 	.word	0x00200707

00400f08 <pio_set_pin_low>:
  400f08:	4b05      	ldr	r3, [pc, #20]	; (400f20 <pio_set_pin_low+0x18>)
  400f0a:	eb03 1350 	add.w	r3, r3, r0, lsr #5
  400f0e:	025b      	lsls	r3, r3, #9
  400f10:	f000 001f 	and.w	r0, r0, #31
  400f14:	2201      	movs	r2, #1
  400f16:	fa02 f000 	lsl.w	r0, r2, r0
  400f1a:	6358      	str	r0, [r3, #52]	; 0x34
  400f1c:	4770      	bx	lr
  400f1e:	bf00      	nop
  400f20:	00200707 	.word	0x00200707

00400f24 <pio_configure_pin>:
  400f24:	b570      	push	{r4, r5, r6, lr}
  400f26:	b082      	sub	sp, #8
  400f28:	460d      	mov	r5, r1
  400f2a:	4c47      	ldr	r4, [pc, #284]	; (401048 <pio_configure_pin+0x124>)
  400f2c:	eb04 1450 	add.w	r4, r4, r0, lsr #5
  400f30:	0264      	lsls	r4, r4, #9
  400f32:	f001 43f0 	and.w	r3, r1, #2013265920	; 0x78000000
  400f36:	f1b3 5f00 	cmp.w	r3, #536870912	; 0x20000000
  400f3a:	d04d      	beq.n	400fd8 <pio_configure_pin+0xb4>
  400f3c:	d809      	bhi.n	400f52 <pio_configure_pin+0x2e>
  400f3e:	f1b3 5f80 	cmp.w	r3, #268435456	; 0x10000000
  400f42:	d023      	beq.n	400f8c <pio_configure_pin+0x68>
  400f44:	f1b3 5fc0 	cmp.w	r3, #402653184	; 0x18000000
  400f48:	d033      	beq.n	400fb2 <pio_configure_pin+0x8e>
  400f4a:	f1b3 6f00 	cmp.w	r3, #134217728	; 0x8000000
  400f4e:	d177      	bne.n	401040 <pio_configure_pin+0x11c>
  400f50:	e009      	b.n	400f66 <pio_configure_pin+0x42>
  400f52:	f1b3 5f40 	cmp.w	r3, #805306368	; 0x30000000
  400f56:	d05d      	beq.n	401014 <pio_configure_pin+0xf0>
  400f58:	f1b3 5f60 	cmp.w	r3, #939524096	; 0x38000000
  400f5c:	d05a      	beq.n	401014 <pio_configure_pin+0xf0>
  400f5e:	f1b3 5f20 	cmp.w	r3, #671088640	; 0x28000000
  400f62:	d04c      	beq.n	400ffe <pio_configure_pin+0xda>
  400f64:	e06c      	b.n	401040 <pio_configure_pin+0x11c>
  400f66:	f000 001f 	and.w	r0, r0, #31
  400f6a:	2601      	movs	r6, #1
  400f6c:	4086      	lsls	r6, r0
  400f6e:	4632      	mov	r2, r6
  400f70:	f04f 6100 	mov.w	r1, #134217728	; 0x8000000
  400f74:	4620      	mov	r0, r4
  400f76:	4b35      	ldr	r3, [pc, #212]	; (40104c <pio_configure_pin+0x128>)
  400f78:	4798      	blx	r3
  400f7a:	f015 0f01 	tst.w	r5, #1
  400f7e:	d002      	beq.n	400f86 <pio_configure_pin+0x62>
  400f80:	6666      	str	r6, [r4, #100]	; 0x64
  400f82:	2001      	movs	r0, #1
  400f84:	e05d      	b.n	401042 <pio_configure_pin+0x11e>
  400f86:	6626      	str	r6, [r4, #96]	; 0x60
  400f88:	2001      	movs	r0, #1
  400f8a:	e05a      	b.n	401042 <pio_configure_pin+0x11e>
  400f8c:	f000 001f 	and.w	r0, r0, #31
  400f90:	2601      	movs	r6, #1
  400f92:	4086      	lsls	r6, r0
  400f94:	4632      	mov	r2, r6
  400f96:	f04f 5180 	mov.w	r1, #268435456	; 0x10000000
  400f9a:	4620      	mov	r0, r4
  400f9c:	4b2b      	ldr	r3, [pc, #172]	; (40104c <pio_configure_pin+0x128>)
  400f9e:	4798      	blx	r3
  400fa0:	f015 0f01 	tst.w	r5, #1
  400fa4:	d002      	beq.n	400fac <pio_configure_pin+0x88>
  400fa6:	6666      	str	r6, [r4, #100]	; 0x64
  400fa8:	2001      	movs	r0, #1
  400faa:	e04a      	b.n	401042 <pio_configure_pin+0x11e>
  400fac:	6626      	str	r6, [r4, #96]	; 0x60
  400fae:	2001      	movs	r0, #1
  400fb0:	e047      	b.n	401042 <pio_configure_pin+0x11e>
  400fb2:	f000 001f 	and.w	r0, r0, #31
  400fb6:	2601      	movs	r6, #1
  400fb8:	4086      	lsls	r6, r0
  400fba:	4632      	mov	r2, r6
  400fbc:	f04f 51c0 	mov.w	r1, #402653184	; 0x18000000
  400fc0:	4620      	mov	r0, r4
  400fc2:	4b22      	ldr	r3, [pc, #136]	; (40104c <pio_configure_pin+0x128>)
  400fc4:	4798      	blx	r3
  400fc6:	f015 0f01 	tst.w	r5, #1
  400fca:	d002      	beq.n	400fd2 <pio_configure_pin+0xae>
  400fcc:	6666      	str	r6, [r4, #100]	; 0x64
  400fce:	2001      	movs	r0, #1
  400fd0:	e037      	b.n	401042 <pio_configure_pin+0x11e>
  400fd2:	6626      	str	r6, [r4, #96]	; 0x60
  400fd4:	2001      	movs	r0, #1
  400fd6:	e034      	b.n	401042 <pio_configure_pin+0x11e>
  400fd8:	f000 001f 	and.w	r0, r0, #31
  400fdc:	2601      	movs	r6, #1
  400fde:	4086      	lsls	r6, r0
  400fe0:	4632      	mov	r2, r6
  400fe2:	f04f 5100 	mov.w	r1, #536870912	; 0x20000000
  400fe6:	4620      	mov	r0, r4
  400fe8:	4b18      	ldr	r3, [pc, #96]	; (40104c <pio_configure_pin+0x128>)
  400fea:	4798      	blx	r3
  400fec:	f015 0f01 	tst.w	r5, #1
  400ff0:	d002      	beq.n	400ff8 <pio_configure_pin+0xd4>
  400ff2:	6666      	str	r6, [r4, #100]	; 0x64
  400ff4:	2001      	movs	r0, #1
  400ff6:	e024      	b.n	401042 <pio_configure_pin+0x11e>
  400ff8:	6626      	str	r6, [r4, #96]	; 0x60
  400ffa:	2001      	movs	r0, #1
  400ffc:	e021      	b.n	401042 <pio_configure_pin+0x11e>
  400ffe:	f000 011f 	and.w	r1, r0, #31
  401002:	2601      	movs	r6, #1
  401004:	462a      	mov	r2, r5
  401006:	fa06 f101 	lsl.w	r1, r6, r1
  40100a:	4620      	mov	r0, r4
  40100c:	4b10      	ldr	r3, [pc, #64]	; (401050 <pio_configure_pin+0x12c>)
  40100e:	4798      	blx	r3
  401010:	4630      	mov	r0, r6
  401012:	e016      	b.n	401042 <pio_configure_pin+0x11e>
  401014:	f005 5260 	and.w	r2, r5, #939524096	; 0x38000000
  401018:	f000 011f 	and.w	r1, r0, #31
  40101c:	2601      	movs	r6, #1
  40101e:	ea05 0306 	and.w	r3, r5, r6
  401022:	9300      	str	r3, [sp, #0]
  401024:	f3c5 0380 	ubfx	r3, r5, #2, #1
  401028:	f1b2 5f60 	cmp.w	r2, #939524096	; 0x38000000
  40102c:	bf14      	ite	ne
  40102e:	2200      	movne	r2, #0
  401030:	2201      	moveq	r2, #1
  401032:	fa06 f101 	lsl.w	r1, r6, r1
  401036:	4620      	mov	r0, r4
  401038:	4c06      	ldr	r4, [pc, #24]	; (401054 <pio_configure_pin+0x130>)
  40103a:	47a0      	blx	r4
  40103c:	4630      	mov	r0, r6
  40103e:	e000      	b.n	401042 <pio_configure_pin+0x11e>
  401040:	2000      	movs	r0, #0
  401042:	b002      	add	sp, #8
  401044:	bd70      	pop	{r4, r5, r6, pc}
  401046:	bf00      	nop
  401048:	00200707 	.word	0x00200707
  40104c:	00400d5d 	.word	0x00400d5d
  401050:	00400df1 	.word	0x00400df1
  401054:	00400e29 	.word	0x00400e29

00401058 <pio_handler_process>:
  401058:	e92d 41f0 	stmdb	sp!, {r4, r5, r6, r7, r8, lr}
  40105c:	4604      	mov	r4, r0
  40105e:	4688      	mov	r8, r1
  401060:	4b0e      	ldr	r3, [pc, #56]	; (40109c <pio_handler_process+0x44>)
  401062:	4798      	blx	r3
  401064:	4605      	mov	r5, r0
  401066:	4620      	mov	r0, r4
  401068:	4b0d      	ldr	r3, [pc, #52]	; (4010a0 <pio_handler_process+0x48>)
  40106a:	4798      	blx	r3
  40106c:	4005      	ands	r5, r0
  40106e:	d013      	beq.n	401098 <pio_handler_process+0x40>
  401070:	4c0c      	ldr	r4, [pc, #48]	; (4010a4 <pio_handler_process+0x4c>)
  401072:	f104 0660 	add.w	r6, r4, #96	; 0x60
  401076:	6823      	ldr	r3, [r4, #0]
  401078:	4543      	cmp	r3, r8
  40107a:	d108      	bne.n	40108e <pio_handler_process+0x36>
  40107c:	6861      	ldr	r1, [r4, #4]
  40107e:	4229      	tst	r1, r5
  401080:	d005      	beq.n	40108e <pio_handler_process+0x36>
  401082:	68e3      	ldr	r3, [r4, #12]
  401084:	4640      	mov	r0, r8
  401086:	4798      	blx	r3
  401088:	6863      	ldr	r3, [r4, #4]
  40108a:	ea25 0503 	bic.w	r5, r5, r3
  40108e:	42b4      	cmp	r4, r6
  401090:	d002      	beq.n	401098 <pio_handler_process+0x40>
  401092:	3410      	adds	r4, #16
  401094:	2d00      	cmp	r5, #0
  401096:	d1ee      	bne.n	401076 <pio_handler_process+0x1e>
  401098:	e8bd 81f0 	ldmia.w	sp!, {r4, r5, r6, r7, r8, pc}
  40109c:	00400ee5 	.word	0x00400ee5
  4010a0:	00400ee9 	.word	0x00400ee9
  4010a4:	20400c48 	.word	0x20400c48

004010a8 <PIOA_Handler>:
  4010a8:	b508      	push	{r3, lr}
  4010aa:	210a      	movs	r1, #10
  4010ac:	4801      	ldr	r0, [pc, #4]	; (4010b4 <PIOA_Handler+0xc>)
  4010ae:	4b02      	ldr	r3, [pc, #8]	; (4010b8 <PIOA_Handler+0x10>)
  4010b0:	4798      	blx	r3
  4010b2:	bd08      	pop	{r3, pc}
  4010b4:	400e0e00 	.word	0x400e0e00
  4010b8:	00401059 	.word	0x00401059

004010bc <PIOB_Handler>:
  4010bc:	b508      	push	{r3, lr}
  4010be:	210b      	movs	r1, #11
  4010c0:	4801      	ldr	r0, [pc, #4]	; (4010c8 <PIOB_Handler+0xc>)
  4010c2:	4b02      	ldr	r3, [pc, #8]	; (4010cc <PIOB_Handler+0x10>)
  4010c4:	4798      	blx	r3
  4010c6:	bd08      	pop	{r3, pc}
  4010c8:	400e1000 	.word	0x400e1000
  4010cc:	00401059 	.word	0x00401059

004010d0 <PIOC_Handler>:
  4010d0:	b508      	push	{r3, lr}
  4010d2:	210c      	movs	r1, #12
  4010d4:	4801      	ldr	r0, [pc, #4]	; (4010dc <PIOC_Handler+0xc>)
  4010d6:	4b02      	ldr	r3, [pc, #8]	; (4010e0 <PIOC_Handler+0x10>)
  4010d8:	4798      	blx	r3
  4010da:	bd08      	pop	{r3, pc}
  4010dc:	400e1200 	.word	0x400e1200
  4010e0:	00401059 	.word	0x00401059

004010e4 <PIOD_Handler>:
  4010e4:	b508      	push	{r3, lr}
  4010e6:	2110      	movs	r1, #16
  4010e8:	4801      	ldr	r0, [pc, #4]	; (4010f0 <PIOD_Handler+0xc>)
  4010ea:	4b02      	ldr	r3, [pc, #8]	; (4010f4 <PIOD_Handler+0x10>)
  4010ec:	4798      	blx	r3
  4010ee:	bd08      	pop	{r3, pc}
  4010f0:	400e1400 	.word	0x400e1400
  4010f4:	00401059 	.word	0x00401059

004010f8 <PIOE_Handler>:
  4010f8:	b508      	push	{r3, lr}
  4010fa:	2111      	movs	r1, #17
  4010fc:	4801      	ldr	r0, [pc, #4]	; (401104 <PIOE_Handler+0xc>)
  4010fe:	4b02      	ldr	r3, [pc, #8]	; (401108 <PIOE_Handler+0x10>)
  401100:	4798      	blx	r3
  401102:	bd08      	pop	{r3, pc}
  401104:	400e1600 	.word	0x400e1600
  401108:	00401059 	.word	0x00401059

0040110c <pmc_mck_set_division>:
  40110c:	2803      	cmp	r0, #3
  40110e:	d007      	beq.n	401120 <pmc_mck_set_division+0x14>
  401110:	2804      	cmp	r0, #4
  401112:	d008      	beq.n	401126 <pmc_mck_set_division+0x1a>
  401114:	2802      	cmp	r0, #2
  401116:	bf0c      	ite	eq
  401118:	f44f 7280 	moveq.w	r2, #256	; 0x100
  40111c:	2200      	movne	r2, #0
  40111e:	e004      	b.n	40112a <pmc_mck_set_division+0x1e>
  401120:	f44f 7240 	mov.w	r2, #768	; 0x300
  401124:	e001      	b.n	40112a <pmc_mck_set_division+0x1e>
  401126:	f44f 7200 	mov.w	r2, #512	; 0x200
  40112a:	4906      	ldr	r1, [pc, #24]	; (401144 <pmc_mck_set_division+0x38>)
  40112c:	6b0b      	ldr	r3, [r1, #48]	; 0x30
  40112e:	f423 7340 	bic.w	r3, r3, #768	; 0x300
  401132:	4313      	orrs	r3, r2
  401134:	630b      	str	r3, [r1, #48]	; 0x30
  401136:	460a      	mov	r2, r1
  401138:	6e93      	ldr	r3, [r2, #104]	; 0x68
  40113a:	f013 0f08 	tst.w	r3, #8
  40113e:	d0fb      	beq.n	401138 <pmc_mck_set_division+0x2c>
  401140:	4770      	bx	lr
  401142:	bf00      	nop
  401144:	400e0600 	.word	0x400e0600

00401148 <pmc_switch_mck_to_pllack>:
  401148:	4a18      	ldr	r2, [pc, #96]	; (4011ac <pmc_switch_mck_to_pllack+0x64>)
  40114a:	6b13      	ldr	r3, [r2, #48]	; 0x30
  40114c:	f023 0370 	bic.w	r3, r3, #112	; 0x70
  401150:	4318      	orrs	r0, r3
  401152:	6310      	str	r0, [r2, #48]	; 0x30
  401154:	6e93      	ldr	r3, [r2, #104]	; 0x68
  401156:	f013 0f08 	tst.w	r3, #8
  40115a:	d003      	beq.n	401164 <pmc_switch_mck_to_pllack+0x1c>
  40115c:	e009      	b.n	401172 <pmc_switch_mck_to_pllack+0x2a>
  40115e:	3b01      	subs	r3, #1
  401160:	d103      	bne.n	40116a <pmc_switch_mck_to_pllack+0x22>
  401162:	e01e      	b.n	4011a2 <pmc_switch_mck_to_pllack+0x5a>
  401164:	f44f 5380 	mov.w	r3, #4096	; 0x1000
  401168:	4910      	ldr	r1, [pc, #64]	; (4011ac <pmc_switch_mck_to_pllack+0x64>)
  40116a:	6e8a      	ldr	r2, [r1, #104]	; 0x68
  40116c:	f012 0f08 	tst.w	r2, #8
  401170:	d0f5      	beq.n	40115e <pmc_switch_mck_to_pllack+0x16>
  401172:	4a0e      	ldr	r2, [pc, #56]	; (4011ac <pmc_switch_mck_to_pllack+0x64>)
  401174:	6b13      	ldr	r3, [r2, #48]	; 0x30
  401176:	f023 0303 	bic.w	r3, r3, #3
  40117a:	f043 0302 	orr.w	r3, r3, #2
  40117e:	6313      	str	r3, [r2, #48]	; 0x30
  401180:	6e90      	ldr	r0, [r2, #104]	; 0x68
  401182:	f010 0008 	ands.w	r0, r0, #8
  401186:	d004      	beq.n	401192 <pmc_switch_mck_to_pllack+0x4a>
  401188:	2000      	movs	r0, #0
  40118a:	4770      	bx	lr
  40118c:	3b01      	subs	r3, #1
  40118e:	d103      	bne.n	401198 <pmc_switch_mck_to_pllack+0x50>
  401190:	e009      	b.n	4011a6 <pmc_switch_mck_to_pllack+0x5e>
  401192:	f44f 5380 	mov.w	r3, #4096	; 0x1000
  401196:	4905      	ldr	r1, [pc, #20]	; (4011ac <pmc_switch_mck_to_pllack+0x64>)
  401198:	6e8a      	ldr	r2, [r1, #104]	; 0x68
  40119a:	f012 0f08 	tst.w	r2, #8
  40119e:	d0f5      	beq.n	40118c <pmc_switch_mck_to_pllack+0x44>
  4011a0:	4770      	bx	lr
  4011a2:	2001      	movs	r0, #1
  4011a4:	4770      	bx	lr
  4011a6:	2001      	movs	r0, #1
  4011a8:	4770      	bx	lr
  4011aa:	bf00      	nop
  4011ac:	400e0600 	.word	0x400e0600

004011b0 <pmc_switch_mainck_to_xtal>:
  4011b0:	b138      	cbz	r0, 4011c2 <pmc_switch_mainck_to_xtal+0x12>
  4011b2:	490e      	ldr	r1, [pc, #56]	; (4011ec <pmc_switch_mainck_to_xtal+0x3c>)
  4011b4:	6a0b      	ldr	r3, [r1, #32]
  4011b6:	4a0e      	ldr	r2, [pc, #56]	; (4011f0 <pmc_switch_mainck_to_xtal+0x40>)
  4011b8:	401a      	ands	r2, r3
  4011ba:	4b0e      	ldr	r3, [pc, #56]	; (4011f4 <pmc_switch_mainck_to_xtal+0x44>)
  4011bc:	4313      	orrs	r3, r2
  4011be:	620b      	str	r3, [r1, #32]
  4011c0:	4770      	bx	lr
  4011c2:	480a      	ldr	r0, [pc, #40]	; (4011ec <pmc_switch_mainck_to_xtal+0x3c>)
  4011c4:	6a03      	ldr	r3, [r0, #32]
  4011c6:	0209      	lsls	r1, r1, #8
  4011c8:	b289      	uxth	r1, r1
  4011ca:	4a0b      	ldr	r2, [pc, #44]	; (4011f8 <pmc_switch_mainck_to_xtal+0x48>)
  4011cc:	401a      	ands	r2, r3
  4011ce:	4b0b      	ldr	r3, [pc, #44]	; (4011fc <pmc_switch_mainck_to_xtal+0x4c>)
  4011d0:	4313      	orrs	r3, r2
  4011d2:	4319      	orrs	r1, r3
  4011d4:	6201      	str	r1, [r0, #32]
  4011d6:	4602      	mov	r2, r0
  4011d8:	6e93      	ldr	r3, [r2, #104]	; 0x68
  4011da:	f013 0f01 	tst.w	r3, #1
  4011de:	d0fb      	beq.n	4011d8 <pmc_switch_mainck_to_xtal+0x28>
  4011e0:	4a02      	ldr	r2, [pc, #8]	; (4011ec <pmc_switch_mainck_to_xtal+0x3c>)
  4011e2:	6a11      	ldr	r1, [r2, #32]
  4011e4:	4b06      	ldr	r3, [pc, #24]	; (401200 <pmc_switch_mainck_to_xtal+0x50>)
  4011e6:	430b      	orrs	r3, r1
  4011e8:	6213      	str	r3, [r2, #32]
  4011ea:	4770      	bx	lr
  4011ec:	400e0600 	.word	0x400e0600
  4011f0:	fec8fffc 	.word	0xfec8fffc
  4011f4:	01370002 	.word	0x01370002
  4011f8:	ffc8fffc 	.word	0xffc8fffc
  4011fc:	00370001 	.word	0x00370001
  401200:	01370000 	.word	0x01370000

00401204 <pmc_osc_is_ready_mainck>:
  401204:	4b02      	ldr	r3, [pc, #8]	; (401210 <pmc_osc_is_ready_mainck+0xc>)
  401206:	6e98      	ldr	r0, [r3, #104]	; 0x68
  401208:	f400 3080 	and.w	r0, r0, #65536	; 0x10000
  40120c:	4770      	bx	lr
  40120e:	bf00      	nop
  401210:	400e0600 	.word	0x400e0600

00401214 <pmc_disable_pllack>:
  401214:	f04f 5200 	mov.w	r2, #536870912	; 0x20000000
  401218:	4b01      	ldr	r3, [pc, #4]	; (401220 <pmc_disable_pllack+0xc>)
  40121a:	629a      	str	r2, [r3, #40]	; 0x28
  40121c:	4770      	bx	lr
  40121e:	bf00      	nop
  401220:	400e0600 	.word	0x400e0600

00401224 <pmc_is_locked_pllack>:
  401224:	4b02      	ldr	r3, [pc, #8]	; (401230 <pmc_is_locked_pllack+0xc>)
  401226:	6e98      	ldr	r0, [r3, #104]	; 0x68
  401228:	f000 0002 	and.w	r0, r0, #2
  40122c:	4770      	bx	lr
  40122e:	bf00      	nop
  401230:	400e0600 	.word	0x400e0600

00401234 <pmc_enable_periph_clk>:
  401234:	283f      	cmp	r0, #63	; 0x3f
  401236:	d81e      	bhi.n	401276 <pmc_enable_periph_clk+0x42>
  401238:	281f      	cmp	r0, #31
  40123a:	d80c      	bhi.n	401256 <pmc_enable_periph_clk+0x22>
  40123c:	4b11      	ldr	r3, [pc, #68]	; (401284 <pmc_enable_periph_clk+0x50>)
  40123e:	699a      	ldr	r2, [r3, #24]
  401240:	2301      	movs	r3, #1
  401242:	4083      	lsls	r3, r0
  401244:	4393      	bics	r3, r2
  401246:	d018      	beq.n	40127a <pmc_enable_periph_clk+0x46>
  401248:	2301      	movs	r3, #1
  40124a:	fa03 f000 	lsl.w	r0, r3, r0
  40124e:	4b0d      	ldr	r3, [pc, #52]	; (401284 <pmc_enable_periph_clk+0x50>)
  401250:	6118      	str	r0, [r3, #16]
  401252:	2000      	movs	r0, #0
  401254:	4770      	bx	lr
  401256:	3820      	subs	r0, #32
  401258:	4b0a      	ldr	r3, [pc, #40]	; (401284 <pmc_enable_periph_clk+0x50>)
  40125a:	f8d3 2108 	ldr.w	r2, [r3, #264]	; 0x108
  40125e:	2301      	movs	r3, #1
  401260:	4083      	lsls	r3, r0
  401262:	4393      	bics	r3, r2
  401264:	d00b      	beq.n	40127e <pmc_enable_periph_clk+0x4a>
  401266:	2301      	movs	r3, #1
  401268:	fa03 f000 	lsl.w	r0, r3, r0
  40126c:	4b05      	ldr	r3, [pc, #20]	; (401284 <pmc_enable_periph_clk+0x50>)
  40126e:	f8c3 0100 	str.w	r0, [r3, #256]	; 0x100
  401272:	2000      	movs	r0, #0
  401274:	4770      	bx	lr
  401276:	2001      	movs	r0, #1
  401278:	4770      	bx	lr
  40127a:	2000      	movs	r0, #0
  40127c:	4770      	bx	lr
  40127e:	2000      	movs	r0, #0
  401280:	4770      	bx	lr
  401282:	bf00      	nop
  401284:	400e0600 	.word	0x400e0600

00401288 <spi_enable_clock>:
  401288:	b508      	push	{r3, lr}
  40128a:	4b07      	ldr	r3, [pc, #28]	; (4012a8 <spi_enable_clock+0x20>)
  40128c:	4298      	cmp	r0, r3
  40128e:	d103      	bne.n	401298 <spi_enable_clock+0x10>
  401290:	2015      	movs	r0, #21
  401292:	4b06      	ldr	r3, [pc, #24]	; (4012ac <spi_enable_clock+0x24>)
  401294:	4798      	blx	r3
  401296:	bd08      	pop	{r3, pc}
  401298:	4b05      	ldr	r3, [pc, #20]	; (4012b0 <spi_enable_clock+0x28>)
  40129a:	4298      	cmp	r0, r3
  40129c:	d102      	bne.n	4012a4 <spi_enable_clock+0x1c>
  40129e:	202a      	movs	r0, #42	; 0x2a
  4012a0:	4b02      	ldr	r3, [pc, #8]	; (4012ac <spi_enable_clock+0x24>)
  4012a2:	4798      	blx	r3
  4012a4:	bd08      	pop	{r3, pc}
  4012a6:	bf00      	nop
  4012a8:	40008000 	.word	0x40008000
  4012ac:	00401235 	.word	0x00401235
  4012b0:	40058000 	.word	0x40058000

004012b4 <spi_set_peripheral_chip_select_value>:
  4012b4:	6843      	ldr	r3, [r0, #4]
  4012b6:	f423 2370 	bic.w	r3, r3, #983040	; 0xf0000
  4012ba:	6043      	str	r3, [r0, #4]
  4012bc:	6843      	ldr	r3, [r0, #4]
  4012be:	0409      	lsls	r1, r1, #16
  4012c0:	f401 2170 	and.w	r1, r1, #983040	; 0xf0000
  4012c4:	430b      	orrs	r3, r1
  4012c6:	6043      	str	r3, [r0, #4]
  4012c8:	4770      	bx	lr
  4012ca:	bf00      	nop

004012cc <spi_set_delay_between_chip_select>:
  4012cc:	6843      	ldr	r3, [r0, #4]
  4012ce:	f023 437f 	bic.w	r3, r3, #4278190080	; 0xff000000
  4012d2:	6043      	str	r3, [r0, #4]
  4012d4:	6843      	ldr	r3, [r0, #4]
  4012d6:	ea43 6101 	orr.w	r1, r3, r1, lsl #24
  4012da:	6041      	str	r1, [r0, #4]
  4012dc:	4770      	bx	lr
  4012de:	bf00      	nop

004012e0 <spi_write>:
  4012e0:	b430      	push	{r4, r5}
  4012e2:	f643 2499 	movw	r4, #15001	; 0x3a99
  4012e6:	e001      	b.n	4012ec <spi_write+0xc>
  4012e8:	3c01      	subs	r4, #1
  4012ea:	d011      	beq.n	401310 <spi_write+0x30>
  4012ec:	6905      	ldr	r5, [r0, #16]
  4012ee:	f015 0f02 	tst.w	r5, #2
  4012f2:	d0f9      	beq.n	4012e8 <spi_write+0x8>
  4012f4:	6844      	ldr	r4, [r0, #4]
  4012f6:	f014 0f02 	tst.w	r4, #2
  4012fa:	d006      	beq.n	40130a <spi_write+0x2a>
  4012fc:	0412      	lsls	r2, r2, #16
  4012fe:	f402 2270 	and.w	r2, r2, #983040	; 0xf0000
  401302:	4311      	orrs	r1, r2
  401304:	b10b      	cbz	r3, 40130a <spi_write+0x2a>
  401306:	f041 7180 	orr.w	r1, r1, #16777216	; 0x1000000
  40130a:	60c1      	str	r1, [r0, #12]
  40130c:	2000      	movs	r0, #0
  40130e:	e000      	b.n	401312 <spi_write+0x32>
  401310:	2001      	movs	r0, #1
  401312:	bc30      	pop	{r4, r5}
  401314:	4770      	bx	lr
  401316:	bf00      	nop

00401318 <spi_set_clock_polarity>:
  401318:	b132      	cbz	r2, 401328 <spi_set_clock_polarity+0x10>
  40131a:	eb00 0081 	add.w	r0, r0, r1, lsl #2
  40131e:	6b03      	ldr	r3, [r0, #48]	; 0x30
  401320:	f043 0301 	orr.w	r3, r3, #1
  401324:	6303      	str	r3, [r0, #48]	; 0x30
  401326:	4770      	bx	lr
  401328:	eb00 0081 	add.w	r0, r0, r1, lsl #2
  40132c:	6b03      	ldr	r3, [r0, #48]	; 0x30
  40132e:	f023 0301 	bic.w	r3, r3, #1
  401332:	6303      	str	r3, [r0, #48]	; 0x30
  401334:	4770      	bx	lr
  401336:	bf00      	nop

00401338 <spi_set_clock_phase>:
  401338:	b132      	cbz	r2, 401348 <spi_set_clock_phase+0x10>
  40133a:	eb00 0081 	add.w	r0, r0, r1, lsl #2
  40133e:	6b03      	ldr	r3, [r0, #48]	; 0x30
  401340:	f043 0302 	orr.w	r3, r3, #2
  401344:	6303      	str	r3, [r0, #48]	; 0x30
  401346:	4770      	bx	lr
  401348:	eb00 0081 	add.w	r0, r0, r1, lsl #2
  40134c:	6b03      	ldr	r3, [r0, #48]	; 0x30
  40134e:	f023 0302 	bic.w	r3, r3, #2
  401352:	6303      	str	r3, [r0, #48]	; 0x30
  401354:	4770      	bx	lr
  401356:	bf00      	nop

00401358 <spi_configure_cs_behavior>:
  401358:	2a04      	cmp	r2, #4
  40135a:	d10a      	bne.n	401372 <spi_configure_cs_behavior+0x1a>
  40135c:	eb00 0081 	add.w	r0, r0, r1, lsl #2
  401360:	6b03      	ldr	r3, [r0, #48]	; 0x30
  401362:	f023 0308 	bic.w	r3, r3, #8
  401366:	6303      	str	r3, [r0, #48]	; 0x30
  401368:	6b03      	ldr	r3, [r0, #48]	; 0x30
  40136a:	f043 0304 	orr.w	r3, r3, #4
  40136e:	6303      	str	r3, [r0, #48]	; 0x30
  401370:	4770      	bx	lr
  401372:	b952      	cbnz	r2, 40138a <spi_configure_cs_behavior+0x32>
  401374:	eb00 0081 	add.w	r0, r0, r1, lsl #2
  401378:	6b03      	ldr	r3, [r0, #48]	; 0x30
  40137a:	f023 0308 	bic.w	r3, r3, #8
  40137e:	6303      	str	r3, [r0, #48]	; 0x30
  401380:	6b03      	ldr	r3, [r0, #48]	; 0x30
  401382:	f023 0304 	bic.w	r3, r3, #4
  401386:	6303      	str	r3, [r0, #48]	; 0x30
  401388:	4770      	bx	lr
  40138a:	2a08      	cmp	r2, #8
  40138c:	d105      	bne.n	40139a <spi_configure_cs_behavior+0x42>
  40138e:	eb00 0081 	add.w	r0, r0, r1, lsl #2
  401392:	6b03      	ldr	r3, [r0, #48]	; 0x30
  401394:	f043 0308 	orr.w	r3, r3, #8
  401398:	6303      	str	r3, [r0, #48]	; 0x30
  40139a:	4770      	bx	lr

0040139c <spi_set_bits_per_transfer>:
  40139c:	eb00 0181 	add.w	r1, r0, r1, lsl #2
  4013a0:	6b0b      	ldr	r3, [r1, #48]	; 0x30
  4013a2:	f023 03f0 	bic.w	r3, r3, #240	; 0xf0
  4013a6:	630b      	str	r3, [r1, #48]	; 0x30
  4013a8:	6b0b      	ldr	r3, [r1, #48]	; 0x30
  4013aa:	431a      	orrs	r2, r3
  4013ac:	630a      	str	r2, [r1, #48]	; 0x30
  4013ae:	4770      	bx	lr

004013b0 <spi_calc_baudrate_div>:
  4013b0:	1e43      	subs	r3, r0, #1
  4013b2:	4419      	add	r1, r3
  4013b4:	fbb1 f0f0 	udiv	r0, r1, r0
  4013b8:	1e43      	subs	r3, r0, #1
  4013ba:	2bfe      	cmp	r3, #254	; 0xfe
  4013bc:	bf94      	ite	ls
  4013be:	b200      	sxthls	r0, r0
  4013c0:	f04f 30ff 	movhi.w	r0, #4294967295
  4013c4:	4770      	bx	lr
  4013c6:	bf00      	nop

004013c8 <spi_set_baudrate_div>:
  4013c8:	b16a      	cbz	r2, 4013e6 <spi_set_baudrate_div+0x1e>
  4013ca:	b410      	push	{r4}
  4013cc:	4614      	mov	r4, r2
  4013ce:	eb00 0181 	add.w	r1, r0, r1, lsl #2
  4013d2:	6b0b      	ldr	r3, [r1, #48]	; 0x30
  4013d4:	f423 437f 	bic.w	r3, r3, #65280	; 0xff00
  4013d8:	630b      	str	r3, [r1, #48]	; 0x30
  4013da:	6b0a      	ldr	r2, [r1, #48]	; 0x30
  4013dc:	ea42 2204 	orr.w	r2, r2, r4, lsl #8
  4013e0:	630a      	str	r2, [r1, #48]	; 0x30
  4013e2:	2000      	movs	r0, #0
  4013e4:	e002      	b.n	4013ec <spi_set_baudrate_div+0x24>
  4013e6:	f04f 30ff 	mov.w	r0, #4294967295
  4013ea:	4770      	bx	lr
  4013ec:	f85d 4b04 	ldr.w	r4, [sp], #4
  4013f0:	4770      	bx	lr
  4013f2:	bf00      	nop

004013f4 <spi_set_transfer_delay>:
  4013f4:	b410      	push	{r4}
  4013f6:	eb00 0181 	add.w	r1, r0, r1, lsl #2
  4013fa:	6b08      	ldr	r0, [r1, #48]	; 0x30
  4013fc:	b280      	uxth	r0, r0
  4013fe:	6308      	str	r0, [r1, #48]	; 0x30
  401400:	6b0c      	ldr	r4, [r1, #48]	; 0x30
  401402:	ea44 6303 	orr.w	r3, r4, r3, lsl #24
  401406:	ea43 4202 	orr.w	r2, r3, r2, lsl #16
  40140a:	630a      	str	r2, [r1, #48]	; 0x30
  40140c:	f85d 4b04 	ldr.w	r4, [sp], #4
  401410:	4770      	bx	lr
  401412:	bf00      	nop

00401414 <uart_write>:
  401414:	6943      	ldr	r3, [r0, #20]
  401416:	f013 0f02 	tst.w	r3, #2
  40141a:	d002      	beq.n	401422 <uart_write+0xe>
  40141c:	61c1      	str	r1, [r0, #28]
  40141e:	2000      	movs	r0, #0
  401420:	4770      	bx	lr
  401422:	2001      	movs	r0, #1
  401424:	4770      	bx	lr
  401426:	bf00      	nop

00401428 <uart_read>:
  401428:	6943      	ldr	r3, [r0, #20]
  40142a:	f013 0f01 	tst.w	r3, #1
  40142e:	d003      	beq.n	401438 <uart_read+0x10>
  401430:	6983      	ldr	r3, [r0, #24]
  401432:	700b      	strb	r3, [r1, #0]
  401434:	2000      	movs	r0, #0
  401436:	4770      	bx	lr
  401438:	2001      	movs	r0, #1
  40143a:	4770      	bx	lr

0040143c <usart_set_async_baudrate>:
  40143c:	b410      	push	{r4}
  40143e:	010c      	lsls	r4, r1, #4
  401440:	4294      	cmp	r4, r2
  401442:	d90f      	bls.n	401464 <usart_set_async_baudrate+0x28>
  401444:	e01a      	b.n	40147c <usart_set_async_baudrate+0x40>
  401446:	6841      	ldr	r1, [r0, #4]
  401448:	f441 2100 	orr.w	r1, r1, #524288	; 0x80000
  40144c:	6041      	str	r1, [r0, #4]
  40144e:	0412      	lsls	r2, r2, #16
  401450:	f402 22e0 	and.w	r2, r2, #458752	; 0x70000
  401454:	431a      	orrs	r2, r3
  401456:	6202      	str	r2, [r0, #32]
  401458:	2000      	movs	r0, #0
  40145a:	e01c      	b.n	401496 <usart_set_async_baudrate+0x5a>
  40145c:	2001      	movs	r0, #1
  40145e:	e01a      	b.n	401496 <usart_set_async_baudrate+0x5a>
  401460:	2001      	movs	r0, #1
  401462:	e018      	b.n	401496 <usart_set_async_baudrate+0x5a>
  401464:	0863      	lsrs	r3, r4, #1
  401466:	eb03 02c2 	add.w	r2, r3, r2, lsl #3
  40146a:	fbb2 f2f4 	udiv	r2, r2, r4
  40146e:	08d3      	lsrs	r3, r2, #3
  401470:	1e5c      	subs	r4, r3, #1
  401472:	f64f 71fe 	movw	r1, #65534	; 0xfffe
  401476:	428c      	cmp	r4, r1
  401478:	d9e9      	bls.n	40144e <usart_set_async_baudrate+0x12>
  40147a:	e7ef      	b.n	40145c <usart_set_async_baudrate+0x20>
  40147c:	00c9      	lsls	r1, r1, #3
  40147e:	084b      	lsrs	r3, r1, #1
  401480:	eb03 02c2 	add.w	r2, r3, r2, lsl #3
  401484:	fbb2 f2f1 	udiv	r2, r2, r1
  401488:	08d3      	lsrs	r3, r2, #3
  40148a:	1e5c      	subs	r4, r3, #1
  40148c:	f64f 71fe 	movw	r1, #65534	; 0xfffe
  401490:	428c      	cmp	r4, r1
  401492:	d8e5      	bhi.n	401460 <usart_set_async_baudrate+0x24>
  401494:	e7d7      	b.n	401446 <usart_set_async_baudrate+0xa>
  401496:	f85d 4b04 	ldr.w	r4, [sp], #4
  40149a:	4770      	bx	lr

0040149c <usart_reset>:
  40149c:	4b08      	ldr	r3, [pc, #32]	; (4014c0 <usart_reset+0x24>)
  40149e:	f8c0 30e4 	str.w	r3, [r0, #228]	; 0xe4
  4014a2:	2300      	movs	r3, #0
  4014a4:	6043      	str	r3, [r0, #4]
  4014a6:	6243      	str	r3, [r0, #36]	; 0x24
  4014a8:	6283      	str	r3, [r0, #40]	; 0x28
  4014aa:	2388      	movs	r3, #136	; 0x88
  4014ac:	6003      	str	r3, [r0, #0]
  4014ae:	2324      	movs	r3, #36	; 0x24
  4014b0:	6003      	str	r3, [r0, #0]
  4014b2:	f44f 7380 	mov.w	r3, #256	; 0x100
  4014b6:	6003      	str	r3, [r0, #0]
  4014b8:	f44f 2300 	mov.w	r3, #524288	; 0x80000
  4014bc:	6003      	str	r3, [r0, #0]
  4014be:	4770      	bx	lr
  4014c0:	55534100 	.word	0x55534100

004014c4 <usart_init_rs232>:
  4014c4:	b570      	push	{r4, r5, r6, lr}
  4014c6:	4605      	mov	r5, r0
  4014c8:	460c      	mov	r4, r1
  4014ca:	4616      	mov	r6, r2
  4014cc:	4b0f      	ldr	r3, [pc, #60]	; (40150c <usart_init_rs232+0x48>)
  4014ce:	4798      	blx	r3
  4014d0:	2200      	movs	r2, #0
  4014d2:	4b0f      	ldr	r3, [pc, #60]	; (401510 <usart_init_rs232+0x4c>)
  4014d4:	601a      	str	r2, [r3, #0]
  4014d6:	b19c      	cbz	r4, 401500 <usart_init_rs232+0x3c>
  4014d8:	4632      	mov	r2, r6
  4014da:	6821      	ldr	r1, [r4, #0]
  4014dc:	4628      	mov	r0, r5
  4014de:	4b0d      	ldr	r3, [pc, #52]	; (401514 <usart_init_rs232+0x50>)
  4014e0:	4798      	blx	r3
  4014e2:	4602      	mov	r2, r0
  4014e4:	b970      	cbnz	r0, 401504 <usart_init_rs232+0x40>
  4014e6:	6861      	ldr	r1, [r4, #4]
  4014e8:	68a3      	ldr	r3, [r4, #8]
  4014ea:	4319      	orrs	r1, r3
  4014ec:	6923      	ldr	r3, [r4, #16]
  4014ee:	4319      	orrs	r1, r3
  4014f0:	68e3      	ldr	r3, [r4, #12]
  4014f2:	430b      	orrs	r3, r1
  4014f4:	4906      	ldr	r1, [pc, #24]	; (401510 <usart_init_rs232+0x4c>)
  4014f6:	600b      	str	r3, [r1, #0]
  4014f8:	6869      	ldr	r1, [r5, #4]
  4014fa:	430b      	orrs	r3, r1
  4014fc:	606b      	str	r3, [r5, #4]
  4014fe:	e002      	b.n	401506 <usart_init_rs232+0x42>
  401500:	2201      	movs	r2, #1
  401502:	e000      	b.n	401506 <usart_init_rs232+0x42>
  401504:	2201      	movs	r2, #1
  401506:	4610      	mov	r0, r2
  401508:	bd70      	pop	{r4, r5, r6, pc}
  40150a:	bf00      	nop
  40150c:	0040149d 	.word	0x0040149d
  401510:	20400cb8 	.word	0x20400cb8
  401514:	0040143d 	.word	0x0040143d

00401518 <usart_enable_tx>:
  401518:	2340      	movs	r3, #64	; 0x40
  40151a:	6003      	str	r3, [r0, #0]
  40151c:	4770      	bx	lr
  40151e:	bf00      	nop

00401520 <usart_enable_rx>:
  401520:	2310      	movs	r3, #16
  401522:	6003      	str	r3, [r0, #0]
  401524:	4770      	bx	lr
  401526:	bf00      	nop

00401528 <usart_write>:
  401528:	6943      	ldr	r3, [r0, #20]
  40152a:	f013 0f02 	tst.w	r3, #2
  40152e:	d004      	beq.n	40153a <usart_write+0x12>
  401530:	f3c1 0108 	ubfx	r1, r1, #0, #9
  401534:	61c1      	str	r1, [r0, #28]
  401536:	2000      	movs	r0, #0
  401538:	4770      	bx	lr
  40153a:	2001      	movs	r0, #1
  40153c:	4770      	bx	lr
  40153e:	bf00      	nop

00401540 <usart_read>:
  401540:	6943      	ldr	r3, [r0, #20]
  401542:	f013 0f01 	tst.w	r3, #1
  401546:	d005      	beq.n	401554 <usart_read+0x14>
  401548:	6983      	ldr	r3, [r0, #24]
  40154a:	f3c3 0308 	ubfx	r3, r3, #0, #9
  40154e:	600b      	str	r3, [r1, #0]
  401550:	2000      	movs	r0, #0
  401552:	4770      	bx	lr
  401554:	2001      	movs	r0, #1
  401556:	4770      	bx	lr

00401558 <Dummy_Handler>:
  401558:	e7fe      	b.n	401558 <Dummy_Handler>
  40155a:	bf00      	nop

0040155c <Reset_Handler>:
  40155c:	b500      	push	{lr}
  40155e:	b083      	sub	sp, #12
  401560:	4b27      	ldr	r3, [pc, #156]	; (401600 <Reset_Handler+0xa4>)
  401562:	4a28      	ldr	r2, [pc, #160]	; (401604 <Reset_Handler+0xa8>)
  401564:	429a      	cmp	r2, r3
  401566:	d003      	beq.n	401570 <Reset_Handler+0x14>
  401568:	4b27      	ldr	r3, [pc, #156]	; (401608 <Reset_Handler+0xac>)
  40156a:	4a25      	ldr	r2, [pc, #148]	; (401600 <Reset_Handler+0xa4>)
  40156c:	429a      	cmp	r2, r3
  40156e:	d304      	bcc.n	40157a <Reset_Handler+0x1e>
  401570:	4b26      	ldr	r3, [pc, #152]	; (40160c <Reset_Handler+0xb0>)
  401572:	4a27      	ldr	r2, [pc, #156]	; (401610 <Reset_Handler+0xb4>)
  401574:	429a      	cmp	r2, r3
  401576:	d30f      	bcc.n	401598 <Reset_Handler+0x3c>
  401578:	e01a      	b.n	4015b0 <Reset_Handler+0x54>
  40157a:	4921      	ldr	r1, [pc, #132]	; (401600 <Reset_Handler+0xa4>)
  40157c:	4b25      	ldr	r3, [pc, #148]	; (401614 <Reset_Handler+0xb8>)
  40157e:	1a5b      	subs	r3, r3, r1
  401580:	f023 0303 	bic.w	r3, r3, #3
  401584:	3304      	adds	r3, #4
  401586:	4a1f      	ldr	r2, [pc, #124]	; (401604 <Reset_Handler+0xa8>)
  401588:	4413      	add	r3, r2
  40158a:	f852 0b04 	ldr.w	r0, [r2], #4
  40158e:	f841 0b04 	str.w	r0, [r1], #4
  401592:	429a      	cmp	r2, r3
  401594:	d1f9      	bne.n	40158a <Reset_Handler+0x2e>
  401596:	e7eb      	b.n	401570 <Reset_Handler+0x14>
  401598:	4b1f      	ldr	r3, [pc, #124]	; (401618 <Reset_Handler+0xbc>)
  40159a:	4a20      	ldr	r2, [pc, #128]	; (40161c <Reset_Handler+0xc0>)
  40159c:	1ad2      	subs	r2, r2, r3
  40159e:	f022 0203 	bic.w	r2, r2, #3
  4015a2:	441a      	add	r2, r3
  4015a4:	3b04      	subs	r3, #4
  4015a6:	2100      	movs	r1, #0
  4015a8:	f843 1b04 	str.w	r1, [r3], #4
  4015ac:	4293      	cmp	r3, r2
  4015ae:	d1fb      	bne.n	4015a8 <Reset_Handler+0x4c>
  4015b0:	4a1b      	ldr	r2, [pc, #108]	; (401620 <Reset_Handler+0xc4>)
  4015b2:	4b1c      	ldr	r3, [pc, #112]	; (401624 <Reset_Handler+0xc8>)
  4015b4:	f023 037f 	bic.w	r3, r3, #127	; 0x7f
  4015b8:	6093      	str	r3, [r2, #8]
  4015ba:	f3ef 8310 	mrs	r3, PRIMASK
  4015be:	fab3 f383 	clz	r3, r3
  4015c2:	095b      	lsrs	r3, r3, #5
  4015c4:	9301      	str	r3, [sp, #4]
  4015c6:	b672      	cpsid	i
  4015c8:	f3bf 8f5f 	dmb	sy
  4015cc:	2200      	movs	r2, #0
  4015ce:	4b16      	ldr	r3, [pc, #88]	; (401628 <Reset_Handler+0xcc>)
  4015d0:	701a      	strb	r2, [r3, #0]
  4015d2:	9901      	ldr	r1, [sp, #4]
  4015d4:	4a15      	ldr	r2, [pc, #84]	; (40162c <Reset_Handler+0xd0>)
  4015d6:	6813      	ldr	r3, [r2, #0]
  4015d8:	f443 0370 	orr.w	r3, r3, #15728640	; 0xf00000
  4015dc:	6013      	str	r3, [r2, #0]
  4015de:	f3bf 8f4f 	dsb	sy
  4015e2:	f3bf 8f6f 	isb	sy
  4015e6:	b129      	cbz	r1, 4015f4 <Reset_Handler+0x98>
  4015e8:	2201      	movs	r2, #1
  4015ea:	4b0f      	ldr	r3, [pc, #60]	; (401628 <Reset_Handler+0xcc>)
  4015ec:	701a      	strb	r2, [r3, #0]
  4015ee:	f3bf 8f5f 	dmb	sy
  4015f2:	b662      	cpsie	i
  4015f4:	4b0e      	ldr	r3, [pc, #56]	; (401630 <Reset_Handler+0xd4>)
  4015f6:	4798      	blx	r3
  4015f8:	4b0e      	ldr	r3, [pc, #56]	; (401634 <Reset_Handler+0xd8>)
  4015fa:	4798      	blx	r3
  4015fc:	e7fe      	b.n	4015fc <Reset_Handler+0xa0>
  4015fe:	bf00      	nop
  401600:	20400000 	.word	0x20400000
  401604:	0040c648 	.word	0x0040c648
  401608:	2040086c 	.word	0x2040086c
  40160c:	20400d14 	.word	0x20400d14
  401610:	2040086c 	.word	0x2040086c
  401614:	2040086b 	.word	0x2040086b
  401618:	20400870 	.word	0x20400870
  40161c:	20400d17 	.word	0x20400d17
  401620:	e000ed00 	.word	0xe000ed00
  401624:	00400000 	.word	0x00400000
  401628:	20400000 	.word	0x20400000
  40162c:	e000ed88 	.word	0xe000ed88
  401630:	00401b6d 	.word	0x00401b6d
  401634:	004019b9 	.word	0x004019b9

00401638 <SystemCoreClockUpdate>:
  401638:	4b3c      	ldr	r3, [pc, #240]	; (40172c <SystemCoreClockUpdate+0xf4>)
  40163a:	6b1b      	ldr	r3, [r3, #48]	; 0x30
  40163c:	f003 0303 	and.w	r3, r3, #3
  401640:	2b01      	cmp	r3, #1
  401642:	d00f      	beq.n	401664 <SystemCoreClockUpdate+0x2c>
  401644:	b113      	cbz	r3, 40164c <SystemCoreClockUpdate+0x14>
  401646:	2b02      	cmp	r3, #2
  401648:	d029      	beq.n	40169e <SystemCoreClockUpdate+0x66>
  40164a:	e057      	b.n	4016fc <SystemCoreClockUpdate+0xc4>
  40164c:	4b38      	ldr	r3, [pc, #224]	; (401730 <SystemCoreClockUpdate+0xf8>)
  40164e:	695b      	ldr	r3, [r3, #20]
  401650:	f013 0f80 	tst.w	r3, #128	; 0x80
  401654:	bf14      	ite	ne
  401656:	f44f 4200 	movne.w	r2, #32768	; 0x8000
  40165a:	f44f 42fa 	moveq.w	r2, #32000	; 0x7d00
  40165e:	4b35      	ldr	r3, [pc, #212]	; (401734 <SystemCoreClockUpdate+0xfc>)
  401660:	601a      	str	r2, [r3, #0]
  401662:	e04b      	b.n	4016fc <SystemCoreClockUpdate+0xc4>
  401664:	4b31      	ldr	r3, [pc, #196]	; (40172c <SystemCoreClockUpdate+0xf4>)
  401666:	6a1b      	ldr	r3, [r3, #32]
  401668:	f013 7f80 	tst.w	r3, #16777216	; 0x1000000
  40166c:	d003      	beq.n	401676 <SystemCoreClockUpdate+0x3e>
  40166e:	4a32      	ldr	r2, [pc, #200]	; (401738 <SystemCoreClockUpdate+0x100>)
  401670:	4b30      	ldr	r3, [pc, #192]	; (401734 <SystemCoreClockUpdate+0xfc>)
  401672:	601a      	str	r2, [r3, #0]
  401674:	e042      	b.n	4016fc <SystemCoreClockUpdate+0xc4>
  401676:	4a31      	ldr	r2, [pc, #196]	; (40173c <SystemCoreClockUpdate+0x104>)
  401678:	4b2e      	ldr	r3, [pc, #184]	; (401734 <SystemCoreClockUpdate+0xfc>)
  40167a:	601a      	str	r2, [r3, #0]
  40167c:	4b2b      	ldr	r3, [pc, #172]	; (40172c <SystemCoreClockUpdate+0xf4>)
  40167e:	6a1b      	ldr	r3, [r3, #32]
  401680:	f003 0370 	and.w	r3, r3, #112	; 0x70
  401684:	2b10      	cmp	r3, #16
  401686:	d002      	beq.n	40168e <SystemCoreClockUpdate+0x56>
  401688:	2b20      	cmp	r3, #32
  40168a:	d004      	beq.n	401696 <SystemCoreClockUpdate+0x5e>
  40168c:	e036      	b.n	4016fc <SystemCoreClockUpdate+0xc4>
  40168e:	4a2c      	ldr	r2, [pc, #176]	; (401740 <SystemCoreClockUpdate+0x108>)
  401690:	4b28      	ldr	r3, [pc, #160]	; (401734 <SystemCoreClockUpdate+0xfc>)
  401692:	601a      	str	r2, [r3, #0]
  401694:	e032      	b.n	4016fc <SystemCoreClockUpdate+0xc4>
  401696:	4a28      	ldr	r2, [pc, #160]	; (401738 <SystemCoreClockUpdate+0x100>)
  401698:	4b26      	ldr	r3, [pc, #152]	; (401734 <SystemCoreClockUpdate+0xfc>)
  40169a:	601a      	str	r2, [r3, #0]
  40169c:	e02e      	b.n	4016fc <SystemCoreClockUpdate+0xc4>
  40169e:	4b23      	ldr	r3, [pc, #140]	; (40172c <SystemCoreClockUpdate+0xf4>)
  4016a0:	6a1b      	ldr	r3, [r3, #32]
  4016a2:	f013 7f80 	tst.w	r3, #16777216	; 0x1000000
  4016a6:	d003      	beq.n	4016b0 <SystemCoreClockUpdate+0x78>
  4016a8:	4a23      	ldr	r2, [pc, #140]	; (401738 <SystemCoreClockUpdate+0x100>)
  4016aa:	4b22      	ldr	r3, [pc, #136]	; (401734 <SystemCoreClockUpdate+0xfc>)
  4016ac:	601a      	str	r2, [r3, #0]
  4016ae:	e012      	b.n	4016d6 <SystemCoreClockUpdate+0x9e>
  4016b0:	4a22      	ldr	r2, [pc, #136]	; (40173c <SystemCoreClockUpdate+0x104>)
  4016b2:	4b20      	ldr	r3, [pc, #128]	; (401734 <SystemCoreClockUpdate+0xfc>)
  4016b4:	601a      	str	r2, [r3, #0]
  4016b6:	4b1d      	ldr	r3, [pc, #116]	; (40172c <SystemCoreClockUpdate+0xf4>)
  4016b8:	6a1b      	ldr	r3, [r3, #32]
  4016ba:	f003 0370 	and.w	r3, r3, #112	; 0x70
  4016be:	2b10      	cmp	r3, #16
  4016c0:	d002      	beq.n	4016c8 <SystemCoreClockUpdate+0x90>
  4016c2:	2b20      	cmp	r3, #32
  4016c4:	d004      	beq.n	4016d0 <SystemCoreClockUpdate+0x98>
  4016c6:	e006      	b.n	4016d6 <SystemCoreClockUpdate+0x9e>
  4016c8:	4a1d      	ldr	r2, [pc, #116]	; (401740 <SystemCoreClockUpdate+0x108>)
  4016ca:	4b1a      	ldr	r3, [pc, #104]	; (401734 <SystemCoreClockUpdate+0xfc>)
  4016cc:	601a      	str	r2, [r3, #0]
  4016ce:	e002      	b.n	4016d6 <SystemCoreClockUpdate+0x9e>
  4016d0:	4a19      	ldr	r2, [pc, #100]	; (401738 <SystemCoreClockUpdate+0x100>)
  4016d2:	4b18      	ldr	r3, [pc, #96]	; (401734 <SystemCoreClockUpdate+0xfc>)
  4016d4:	601a      	str	r2, [r3, #0]
  4016d6:	4b15      	ldr	r3, [pc, #84]	; (40172c <SystemCoreClockUpdate+0xf4>)
  4016d8:	6b1b      	ldr	r3, [r3, #48]	; 0x30
  4016da:	f003 0303 	and.w	r3, r3, #3
  4016de:	2b02      	cmp	r3, #2
  4016e0:	d10c      	bne.n	4016fc <SystemCoreClockUpdate+0xc4>
  4016e2:	4a12      	ldr	r2, [pc, #72]	; (40172c <SystemCoreClockUpdate+0xf4>)
  4016e4:	6a93      	ldr	r3, [r2, #40]	; 0x28
  4016e6:	6a92      	ldr	r2, [r2, #40]	; 0x28
  4016e8:	4812      	ldr	r0, [pc, #72]	; (401734 <SystemCoreClockUpdate+0xfc>)
  4016ea:	f3c3 410a 	ubfx	r1, r3, #16, #11
  4016ee:	6803      	ldr	r3, [r0, #0]
  4016f0:	fb01 3303 	mla	r3, r1, r3, r3
  4016f4:	b2d2      	uxtb	r2, r2
  4016f6:	fbb3 f3f2 	udiv	r3, r3, r2
  4016fa:	6003      	str	r3, [r0, #0]
  4016fc:	4b0b      	ldr	r3, [pc, #44]	; (40172c <SystemCoreClockUpdate+0xf4>)
  4016fe:	6b1b      	ldr	r3, [r3, #48]	; 0x30
  401700:	f003 0370 	and.w	r3, r3, #112	; 0x70
  401704:	2b70      	cmp	r3, #112	; 0x70
  401706:	d107      	bne.n	401718 <SystemCoreClockUpdate+0xe0>
  401708:	4a0a      	ldr	r2, [pc, #40]	; (401734 <SystemCoreClockUpdate+0xfc>)
  40170a:	6813      	ldr	r3, [r2, #0]
  40170c:	490d      	ldr	r1, [pc, #52]	; (401744 <SystemCoreClockUpdate+0x10c>)
  40170e:	fba1 1303 	umull	r1, r3, r1, r3
  401712:	085b      	lsrs	r3, r3, #1
  401714:	6013      	str	r3, [r2, #0]
  401716:	4770      	bx	lr
  401718:	4b04      	ldr	r3, [pc, #16]	; (40172c <SystemCoreClockUpdate+0xf4>)
  40171a:	6b1b      	ldr	r3, [r3, #48]	; 0x30
  40171c:	4905      	ldr	r1, [pc, #20]	; (401734 <SystemCoreClockUpdate+0xfc>)
  40171e:	f3c3 1202 	ubfx	r2, r3, #4, #3
  401722:	680b      	ldr	r3, [r1, #0]
  401724:	40d3      	lsrs	r3, r2
  401726:	600b      	str	r3, [r1, #0]
  401728:	4770      	bx	lr
  40172a:	bf00      	nop
  40172c:	400e0600 	.word	0x400e0600
  401730:	400e1810 	.word	0x400e1810
  401734:	20400004 	.word	0x20400004
  401738:	00b71b00 	.word	0x00b71b00
  40173c:	003d0900 	.word	0x003d0900
  401740:	007a1200 	.word	0x007a1200
  401744:	aaaaaaab 	.word	0xaaaaaaab

00401748 <system_init_flash>:
  401748:	4b12      	ldr	r3, [pc, #72]	; (401794 <system_init_flash+0x4c>)
  40174a:	4298      	cmp	r0, r3
  40174c:	d804      	bhi.n	401758 <system_init_flash+0x10>
  40174e:	f04f 6280 	mov.w	r2, #67108864	; 0x4000000
  401752:	4b11      	ldr	r3, [pc, #68]	; (401798 <system_init_flash+0x50>)
  401754:	601a      	str	r2, [r3, #0]
  401756:	4770      	bx	lr
  401758:	4b10      	ldr	r3, [pc, #64]	; (40179c <system_init_flash+0x54>)
  40175a:	4298      	cmp	r0, r3
  40175c:	d803      	bhi.n	401766 <system_init_flash+0x1e>
  40175e:	4a10      	ldr	r2, [pc, #64]	; (4017a0 <system_init_flash+0x58>)
  401760:	4b0d      	ldr	r3, [pc, #52]	; (401798 <system_init_flash+0x50>)
  401762:	601a      	str	r2, [r3, #0]
  401764:	4770      	bx	lr
  401766:	4b0f      	ldr	r3, [pc, #60]	; (4017a4 <system_init_flash+0x5c>)
  401768:	4298      	cmp	r0, r3
  40176a:	d803      	bhi.n	401774 <system_init_flash+0x2c>
  40176c:	4a0e      	ldr	r2, [pc, #56]	; (4017a8 <system_init_flash+0x60>)
  40176e:	4b0a      	ldr	r3, [pc, #40]	; (401798 <system_init_flash+0x50>)
  401770:	601a      	str	r2, [r3, #0]
  401772:	4770      	bx	lr
  401774:	4b0d      	ldr	r3, [pc, #52]	; (4017ac <system_init_flash+0x64>)
  401776:	4298      	cmp	r0, r3
  401778:	d803      	bhi.n	401782 <system_init_flash+0x3a>
  40177a:	4a0d      	ldr	r2, [pc, #52]	; (4017b0 <system_init_flash+0x68>)
  40177c:	4b06      	ldr	r3, [pc, #24]	; (401798 <system_init_flash+0x50>)
  40177e:	601a      	str	r2, [r3, #0]
  401780:	4770      	bx	lr
  401782:	4b0c      	ldr	r3, [pc, #48]	; (4017b4 <system_init_flash+0x6c>)
  401784:	4298      	cmp	r0, r3
  401786:	bf94      	ite	ls
  401788:	f04f 2204 	movls.w	r2, #67109888	; 0x4000400
  40178c:	4a0a      	ldrhi	r2, [pc, #40]	; (4017b8 <system_init_flash+0x70>)
  40178e:	4b02      	ldr	r3, [pc, #8]	; (401798 <system_init_flash+0x50>)
  401790:	601a      	str	r2, [r3, #0]
  401792:	4770      	bx	lr
  401794:	01312cff 	.word	0x01312cff
  401798:	400e0c00 	.word	0x400e0c00
  40179c:	026259ff 	.word	0x026259ff
  4017a0:	04000100 	.word	0x04000100
  4017a4:	039386ff 	.word	0x039386ff
  4017a8:	04000200 	.word	0x04000200
  4017ac:	04c4b3ff 	.word	0x04c4b3ff
  4017b0:	04000300 	.word	0x04000300
  4017b4:	05f5e0ff 	.word	0x05f5e0ff
  4017b8:	04000500 	.word	0x04000500

004017bc <_sbrk>:
  4017bc:	4b09      	ldr	r3, [pc, #36]	; (4017e4 <_sbrk+0x28>)
  4017be:	681b      	ldr	r3, [r3, #0]
  4017c0:	b913      	cbnz	r3, 4017c8 <_sbrk+0xc>
  4017c2:	4a09      	ldr	r2, [pc, #36]	; (4017e8 <_sbrk+0x2c>)
  4017c4:	4b07      	ldr	r3, [pc, #28]	; (4017e4 <_sbrk+0x28>)
  4017c6:	601a      	str	r2, [r3, #0]
  4017c8:	4b06      	ldr	r3, [pc, #24]	; (4017e4 <_sbrk+0x28>)
  4017ca:	681b      	ldr	r3, [r3, #0]
  4017cc:	181a      	adds	r2, r3, r0
  4017ce:	4907      	ldr	r1, [pc, #28]	; (4017ec <_sbrk+0x30>)
  4017d0:	4291      	cmp	r1, r2
  4017d2:	db04      	blt.n	4017de <_sbrk+0x22>
  4017d4:	4610      	mov	r0, r2
  4017d6:	4a03      	ldr	r2, [pc, #12]	; (4017e4 <_sbrk+0x28>)
  4017d8:	6010      	str	r0, [r2, #0]
  4017da:	4618      	mov	r0, r3
  4017dc:	4770      	bx	lr
  4017de:	f04f 30ff 	mov.w	r0, #4294967295
  4017e2:	4770      	bx	lr
  4017e4:	20400cbc 	.word	0x20400cbc
  4017e8:	20402f18 	.word	0x20402f18
  4017ec:	2045fffc 	.word	0x2045fffc

004017f0 <_close>:
  4017f0:	f04f 30ff 	mov.w	r0, #4294967295
  4017f4:	4770      	bx	lr
  4017f6:	bf00      	nop

004017f8 <_fstat>:
  4017f8:	f44f 5300 	mov.w	r3, #8192	; 0x2000
  4017fc:	604b      	str	r3, [r1, #4]
  4017fe:	2000      	movs	r0, #0
  401800:	4770      	bx	lr
  401802:	bf00      	nop

00401804 <_isatty>:
  401804:	2001      	movs	r0, #1
  401806:	4770      	bx	lr

00401808 <_lseek>:
  401808:	2000      	movs	r0, #0
  40180a:	4770      	bx	lr

0040180c <usart_serial_getchar>:
 * \param p_usart   Base address of the USART instance.
 * \param data   Data to read
 *
 */
static inline void usart_serial_getchar(usart_if p_usart, uint8_t *data)
{
  40180c:	b5f0      	push	{r4, r5, r6, r7, lr}
  40180e:	b083      	sub	sp, #12
  401810:	4605      	mov	r5, r0
  401812:	460c      	mov	r4, r1
	uint32_t val = 0;
  401814:	2300      	movs	r3, #0
  401816:	9301      	str	r3, [sp, #4]
	if (UART == (Uart*)p_usart) {
		while (uart_read((Uart*)p_usart, data));
	}
#else
# ifdef UART0
	if (UART0 == (Uart*)p_usart) {
  401818:	4b29      	ldr	r3, [pc, #164]	; (4018c0 <usart_serial_getchar+0xb4>)
  40181a:	4298      	cmp	r0, r3
  40181c:	d107      	bne.n	40182e <usart_serial_getchar+0x22>
		while (uart_read((Uart*)p_usart, data));
  40181e:	461f      	mov	r7, r3
  401820:	4e28      	ldr	r6, [pc, #160]	; (4018c4 <usart_serial_getchar+0xb8>)
  401822:	4621      	mov	r1, r4
  401824:	4638      	mov	r0, r7
  401826:	47b0      	blx	r6
  401828:	2800      	cmp	r0, #0
  40182a:	d1fa      	bne.n	401822 <usart_serial_getchar+0x16>
  40182c:	e015      	b.n	40185a <usart_serial_getchar+0x4e>
	}
# endif
# ifdef UART1
	if (UART1 == (Uart*)p_usart) {
  40182e:	4b26      	ldr	r3, [pc, #152]	; (4018c8 <usart_serial_getchar+0xbc>)
  401830:	4298      	cmp	r0, r3
  401832:	d107      	bne.n	401844 <usart_serial_getchar+0x38>
		while (uart_read((Uart*)p_usart, data));
  401834:	461f      	mov	r7, r3
  401836:	4e23      	ldr	r6, [pc, #140]	; (4018c4 <usart_serial_getchar+0xb8>)
  401838:	4621      	mov	r1, r4
  40183a:	4638      	mov	r0, r7
  40183c:	47b0      	blx	r6
  40183e:	2800      	cmp	r0, #0
  401840:	d1fa      	bne.n	401838 <usart_serial_getchar+0x2c>
  401842:	e015      	b.n	401870 <usart_serial_getchar+0x64>
	}
# endif
# ifdef UART2
	if (UART2 == (Uart*)p_usart) {
  401844:	4b21      	ldr	r3, [pc, #132]	; (4018cc <usart_serial_getchar+0xc0>)
  401846:	4298      	cmp	r0, r3
  401848:	d107      	bne.n	40185a <usart_serial_getchar+0x4e>
		while (uart_read((Uart*)p_usart, data));
  40184a:	461f      	mov	r7, r3
  40184c:	4e1d      	ldr	r6, [pc, #116]	; (4018c4 <usart_serial_getchar+0xb8>)
  40184e:	4621      	mov	r1, r4
  401850:	4638      	mov	r0, r7
  401852:	47b0      	blx	r6
  401854:	2800      	cmp	r0, #0
  401856:	d1fa      	bne.n	40184e <usart_serial_getchar+0x42>
  401858:	e017      	b.n	40188a <usart_serial_getchar+0x7e>
	}
# endif
# ifdef UART3
	if (UART3 == (Uart*)p_usart) {
  40185a:	4b1d      	ldr	r3, [pc, #116]	; (4018d0 <usart_serial_getchar+0xc4>)
  40185c:	429d      	cmp	r5, r3
  40185e:	d107      	bne.n	401870 <usart_serial_getchar+0x64>
		while (uart_read((Uart*)p_usart, data));
  401860:	461f      	mov	r7, r3
  401862:	4e18      	ldr	r6, [pc, #96]	; (4018c4 <usart_serial_getchar+0xb8>)
  401864:	4621      	mov	r1, r4
  401866:	4638      	mov	r0, r7
  401868:	47b0      	blx	r6
  40186a:	2800      	cmp	r0, #0
  40186c:	d1fa      	bne.n	401864 <usart_serial_getchar+0x58>
  40186e:	e019      	b.n	4018a4 <usart_serial_getchar+0x98>
		while (usart_read(p_usart, &val));
		*data = (uint8_t)(val & 0xFF);
	}
#else
# ifdef USART0
	if (USART0 == p_usart) {
  401870:	4b18      	ldr	r3, [pc, #96]	; (4018d4 <usart_serial_getchar+0xc8>)
  401872:	429d      	cmp	r5, r3
  401874:	d109      	bne.n	40188a <usart_serial_getchar+0x7e>
		while (usart_read(p_usart, &val));
  401876:	461e      	mov	r6, r3
  401878:	4d17      	ldr	r5, [pc, #92]	; (4018d8 <usart_serial_getchar+0xcc>)
  40187a:	a901      	add	r1, sp, #4
  40187c:	4630      	mov	r0, r6
  40187e:	47a8      	blx	r5
  401880:	2800      	cmp	r0, #0
  401882:	d1fa      	bne.n	40187a <usart_serial_getchar+0x6e>
		*data = (uint8_t)(val & 0xFF);
  401884:	9b01      	ldr	r3, [sp, #4]
  401886:	7023      	strb	r3, [r4, #0]
  401888:	e018      	b.n	4018bc <usart_serial_getchar+0xb0>
	}
# endif
# ifdef USART1
	if (USART1 == p_usart) {
  40188a:	4b14      	ldr	r3, [pc, #80]	; (4018dc <usart_serial_getchar+0xd0>)
  40188c:	429d      	cmp	r5, r3
  40188e:	d109      	bne.n	4018a4 <usart_serial_getchar+0x98>
		while (usart_read(p_usart, &val));
  401890:	461e      	mov	r6, r3
  401892:	4d11      	ldr	r5, [pc, #68]	; (4018d8 <usart_serial_getchar+0xcc>)
  401894:	a901      	add	r1, sp, #4
  401896:	4630      	mov	r0, r6
  401898:	47a8      	blx	r5
  40189a:	2800      	cmp	r0, #0
  40189c:	d1fa      	bne.n	401894 <usart_serial_getchar+0x88>
		*data = (uint8_t)(val & 0xFF);
  40189e:	9b01      	ldr	r3, [sp, #4]
  4018a0:	7023      	strb	r3, [r4, #0]
  4018a2:	e00b      	b.n	4018bc <usart_serial_getchar+0xb0>
	}
# endif
# ifdef USART2
	if (USART2 == p_usart) {
  4018a4:	4b0e      	ldr	r3, [pc, #56]	; (4018e0 <usart_serial_getchar+0xd4>)
  4018a6:	429d      	cmp	r5, r3
  4018a8:	d108      	bne.n	4018bc <usart_serial_getchar+0xb0>
		while (usart_read(p_usart, &val));
  4018aa:	461e      	mov	r6, r3
  4018ac:	4d0a      	ldr	r5, [pc, #40]	; (4018d8 <usart_serial_getchar+0xcc>)
  4018ae:	a901      	add	r1, sp, #4
  4018b0:	4630      	mov	r0, r6
  4018b2:	47a8      	blx	r5
  4018b4:	2800      	cmp	r0, #0
  4018b6:	d1fa      	bne.n	4018ae <usart_serial_getchar+0xa2>
		*data = (uint8_t)(val & 0xFF);
  4018b8:	9b01      	ldr	r3, [sp, #4]
  4018ba:	7023      	strb	r3, [r4, #0]
		*data = (uint8_t)(val & 0xFF);
	}
# endif
#endif /* ifdef USART */

}
  4018bc:	b003      	add	sp, #12
  4018be:	bdf0      	pop	{r4, r5, r6, r7, pc}
  4018c0:	400e0800 	.word	0x400e0800
  4018c4:	00401429 	.word	0x00401429
  4018c8:	400e0a00 	.word	0x400e0a00
  4018cc:	400e1a00 	.word	0x400e1a00
  4018d0:	400e1c00 	.word	0x400e1c00
  4018d4:	40024000 	.word	0x40024000
  4018d8:	00401541 	.word	0x00401541
  4018dc:	40028000 	.word	0x40028000
  4018e0:	4002c000 	.word	0x4002c000

004018e4 <usart_serial_putchar>:
 *   \retval 1  The character was written.
 *   \retval 0  The function timed out before the USART transmitter became
 * ready to send.
 */
static inline int usart_serial_putchar(usart_if p_usart, const uint8_t c)
{
  4018e4:	b570      	push	{r4, r5, r6, lr}
  4018e6:	460c      	mov	r4, r1
		while (uart_write((Uart*)p_usart, c)!=0);
		return 1;
	}
#else
# ifdef UART0
	if (UART0 == (Uart*)p_usart) {
  4018e8:	4b2a      	ldr	r3, [pc, #168]	; (401994 <usart_serial_putchar+0xb0>)
  4018ea:	4298      	cmp	r0, r3
  4018ec:	d108      	bne.n	401900 <usart_serial_putchar+0x1c>
		while (uart_write((Uart*)p_usart, c)!=0);
  4018ee:	461e      	mov	r6, r3
  4018f0:	4d29      	ldr	r5, [pc, #164]	; (401998 <usart_serial_putchar+0xb4>)
  4018f2:	4621      	mov	r1, r4
  4018f4:	4630      	mov	r0, r6
  4018f6:	47a8      	blx	r5
  4018f8:	2800      	cmp	r0, #0
  4018fa:	d1fa      	bne.n	4018f2 <usart_serial_putchar+0xe>
		return 1;
  4018fc:	2001      	movs	r0, #1
  4018fe:	bd70      	pop	{r4, r5, r6, pc}
	}
# endif
# ifdef UART1
	if (UART1 == (Uart*)p_usart) {
  401900:	4b26      	ldr	r3, [pc, #152]	; (40199c <usart_serial_putchar+0xb8>)
  401902:	4298      	cmp	r0, r3
  401904:	d108      	bne.n	401918 <usart_serial_putchar+0x34>
		while (uart_write((Uart*)p_usart, c)!=0);
  401906:	461e      	mov	r6, r3
  401908:	4d23      	ldr	r5, [pc, #140]	; (401998 <usart_serial_putchar+0xb4>)
  40190a:	4621      	mov	r1, r4
  40190c:	4630      	mov	r0, r6
  40190e:	47a8      	blx	r5
  401910:	2800      	cmp	r0, #0
  401912:	d1fa      	bne.n	40190a <usart_serial_putchar+0x26>
		return 1;
  401914:	2001      	movs	r0, #1
  401916:	bd70      	pop	{r4, r5, r6, pc}
	}
# endif
# ifdef UART2
	if (UART2 == (Uart*)p_usart) {
  401918:	4b21      	ldr	r3, [pc, #132]	; (4019a0 <usart_serial_putchar+0xbc>)
  40191a:	4298      	cmp	r0, r3
  40191c:	d108      	bne.n	401930 <usart_serial_putchar+0x4c>
		while (uart_write((Uart*)p_usart, c)!=0);
  40191e:	461e      	mov	r6, r3
  401920:	4d1d      	ldr	r5, [pc, #116]	; (401998 <usart_serial_putchar+0xb4>)
  401922:	4621      	mov	r1, r4
  401924:	4630      	mov	r0, r6
  401926:	47a8      	blx	r5
  401928:	2800      	cmp	r0, #0
  40192a:	d1fa      	bne.n	401922 <usart_serial_putchar+0x3e>
		return 1;
  40192c:	2001      	movs	r0, #1
  40192e:	bd70      	pop	{r4, r5, r6, pc}
	}
# endif
# ifdef UART3
	if (UART3 == (Uart*)p_usart) {
  401930:	4b1c      	ldr	r3, [pc, #112]	; (4019a4 <usart_serial_putchar+0xc0>)
  401932:	4298      	cmp	r0, r3
  401934:	d108      	bne.n	401948 <usart_serial_putchar+0x64>
		while (uart_write((Uart*)p_usart, c)!=0);
  401936:	461e      	mov	r6, r3
  401938:	4d17      	ldr	r5, [pc, #92]	; (401998 <usart_serial_putchar+0xb4>)
  40193a:	4621      	mov	r1, r4
  40193c:	4630      	mov	r0, r6
  40193e:	47a8      	blx	r5
  401940:	2800      	cmp	r0, #0
  401942:	d1fa      	bne.n	40193a <usart_serial_putchar+0x56>
		return 1;
  401944:	2001      	movs	r0, #1
  401946:	bd70      	pop	{r4, r5, r6, pc}
		while (usart_write(p_usart, c)!=0);
		return 1;
	}
#else
# ifdef USART0
	if (USART0 == p_usart) {
  401948:	4b17      	ldr	r3, [pc, #92]	; (4019a8 <usart_serial_putchar+0xc4>)
  40194a:	4298      	cmp	r0, r3
  40194c:	d108      	bne.n	401960 <usart_serial_putchar+0x7c>
		while (usart_write(p_usart, c)!=0);
  40194e:	461e      	mov	r6, r3
  401950:	4d16      	ldr	r5, [pc, #88]	; (4019ac <usart_serial_putchar+0xc8>)
  401952:	4621      	mov	r1, r4
  401954:	4630      	mov	r0, r6
  401956:	47a8      	blx	r5
  401958:	2800      	cmp	r0, #0
  40195a:	d1fa      	bne.n	401952 <usart_serial_putchar+0x6e>
		return 1;
  40195c:	2001      	movs	r0, #1
  40195e:	bd70      	pop	{r4, r5, r6, pc}
	}
# endif
# ifdef USART1
	if (USART1 == p_usart) {
  401960:	4b13      	ldr	r3, [pc, #76]	; (4019b0 <usart_serial_putchar+0xcc>)
  401962:	4298      	cmp	r0, r3
  401964:	d108      	bne.n	401978 <usart_serial_putchar+0x94>
		while (usart_write(p_usart, c)!=0);
  401966:	461e      	mov	r6, r3
  401968:	4d10      	ldr	r5, [pc, #64]	; (4019ac <usart_serial_putchar+0xc8>)
  40196a:	4621      	mov	r1, r4
  40196c:	4630      	mov	r0, r6
  40196e:	47a8      	blx	r5
  401970:	2800      	cmp	r0, #0
  401972:	d1fa      	bne.n	40196a <usart_serial_putchar+0x86>
		return 1;
  401974:	2001      	movs	r0, #1
  401976:	bd70      	pop	{r4, r5, r6, pc}
	}
# endif
# ifdef USART2
	if (USART2 == p_usart) {
  401978:	4b0e      	ldr	r3, [pc, #56]	; (4019b4 <usart_serial_putchar+0xd0>)
  40197a:	4298      	cmp	r0, r3
  40197c:	d108      	bne.n	401990 <usart_serial_putchar+0xac>
		while (usart_write(p_usart, c)!=0);
  40197e:	461e      	mov	r6, r3
  401980:	4d0a      	ldr	r5, [pc, #40]	; (4019ac <usart_serial_putchar+0xc8>)
  401982:	4621      	mov	r1, r4
  401984:	4630      	mov	r0, r6
  401986:	47a8      	blx	r5
  401988:	2800      	cmp	r0, #0
  40198a:	d1fa      	bne.n	401982 <usart_serial_putchar+0x9e>
		return 1;
  40198c:	2001      	movs	r0, #1
  40198e:	bd70      	pop	{r4, r5, r6, pc}
		return 1;
	}
# endif
#endif /* ifdef USART */

	return 0;
  401990:	2000      	movs	r0, #0
}
  401992:	bd70      	pop	{r4, r5, r6, pc}
  401994:	400e0800 	.word	0x400e0800
  401998:	00401415 	.word	0x00401415
  40199c:	400e0a00 	.word	0x400e0a00
  4019a0:	400e1a00 	.word	0x400e1a00
  4019a4:	400e1c00 	.word	0x400e1c00
  4019a8:	40024000 	.word	0x40024000
  4019ac:	00401529 	.word	0x00401529
  4019b0:	40028000 	.word	0x40028000
  4019b4:	4002c000 	.word	0x4002c000

004019b8 <main>:
 * Initialize system, UART console, network then start weather client.
 *
 * \return Program return value.
 */
int main(void)
{
  4019b8:	e92d 41f0 	stmdb	sp!, {r4, r5, r6, r7, r8, lr}
  4019bc:	b08a      	sub	sp, #40	; 0x28
	/* Initialize the board. */
	sysclk_init();
  4019be:	4b4e      	ldr	r3, [pc, #312]	; (401af8 <main+0x140>)
  4019c0:	4798      	blx	r3
	board_init();
  4019c2:	4b4e      	ldr	r3, [pc, #312]	; (401afc <main+0x144>)
  4019c4:	4798      	blx	r3
 *
 * \param ul_id Id (number) of the peripheral clock.
 */
static inline void sysclk_enable_peripheral_clock(uint32_t ul_id)
{
	pmc_enable_periph_clk(ul_id);
  4019c6:	200a      	movs	r0, #10
  4019c8:	4e4d      	ldr	r6, [pc, #308]	; (401b00 <main+0x148>)
  4019ca:	47b0      	blx	r6
  4019cc:	200b      	movs	r0, #11
  4019ce:	47b0      	blx	r6
  4019d0:	200c      	movs	r0, #12
  4019d2:	47b0      	blx	r6
  4019d4:	2010      	movs	r0, #16
  4019d6:	47b0      	blx	r6
  4019d8:	2011      	movs	r0, #17
  4019da:	47b0      	blx	r6
  4019dc:	200e      	movs	r0, #14
  4019de:	47b0      	blx	r6
 * \param opt         Options needed to set up RS232 communication (see \ref usart_options_t).
 *
 */
static inline void stdio_serial_init(volatile void *usart, const usart_serial_options_t *opt)
{
	stdio_base = (void *)usart;
  4019e0:	4f48      	ldr	r7, [pc, #288]	; (401b04 <main+0x14c>)
  4019e2:	4b49      	ldr	r3, [pc, #292]	; (401b08 <main+0x150>)
  4019e4:	601f      	str	r7, [r3, #0]
	ptr_put = (int (*)(void volatile*,char))&usart_serial_putchar;
  4019e6:	4a49      	ldr	r2, [pc, #292]	; (401b0c <main+0x154>)
  4019e8:	4b49      	ldr	r3, [pc, #292]	; (401b10 <main+0x158>)
  4019ea:	601a      	str	r2, [r3, #0]
	ptr_get = (void (*)(void volatile*,char*))&usart_serial_getchar;
  4019ec:	4a49      	ldr	r2, [pc, #292]	; (401b14 <main+0x15c>)
  4019ee:	4b4a      	ldr	r3, [pc, #296]	; (401b18 <main+0x160>)
  4019f0:	601a      	str	r2, [r3, #0]
	uart_settings.ul_baudrate = opt->baudrate;
	uart_settings.ul_mode = opt->paritytype;
#endif

	sam_usart_opt_t usart_settings;
	usart_settings.baudrate = opt->baudrate;
  4019f2:	f44f 33e1 	mov.w	r3, #115200	; 0x1c200
  4019f6:	9302      	str	r3, [sp, #8]
	usart_settings.char_length = opt->charlength;
  4019f8:	23c0      	movs	r3, #192	; 0xc0
  4019fa:	9303      	str	r3, [sp, #12]
	usart_settings.parity_type = opt->paritytype;
  4019fc:	f44f 6500 	mov.w	r5, #2048	; 0x800
  401a00:	9504      	str	r5, [sp, #16]
	usart_settings.stop_bits= opt->stopbits;
  401a02:	2400      	movs	r4, #0
  401a04:	9405      	str	r4, [sp, #20]
	usart_settings.channel_mode= US_MR_CHMODE_NORMAL;
  401a06:	9406      	str	r4, [sp, #24]
  401a08:	200e      	movs	r0, #14
  401a0a:	47b0      	blx	r6
		flexcom_set_opmode(FLEXCOM1, FLEXCOM_USART);
#else
		sysclk_enable_peripheral_clock(ID_USART1);
#endif
		/* Configure USART */
		usart_init_rs232(p_usart, &usart_settings,
  401a0c:	4a43      	ldr	r2, [pc, #268]	; (401b1c <main+0x164>)
  401a0e:	a902      	add	r1, sp, #8
  401a10:	4638      	mov	r0, r7
  401a12:	4b43      	ldr	r3, [pc, #268]	; (401b20 <main+0x168>)
  401a14:	4798      	blx	r3
		/* Configure USART */
		usart_init_rs232(p_usart, &usart_settings,
				sysclk_get_peripheral_bus_hz(p_usart));
#endif
		/* Enable the receiver and transmitter. */
		usart_enable_tx(p_usart);
  401a16:	4638      	mov	r0, r7
  401a18:	4b42      	ldr	r3, [pc, #264]	; (401b24 <main+0x16c>)
  401a1a:	4798      	blx	r3
		usart_enable_rx(p_usart);
  401a1c:	4638      	mov	r0, r7
  401a1e:	4b42      	ldr	r3, [pc, #264]	; (401b28 <main+0x170>)
  401a20:	4798      	blx	r3
	fdevopen((int (*)(char, FILE*))(_write),(int (*)(FILE*))(_read));
#  endif
#  if UC3 || SAM
	// For AVR32 and SAM GCC
	// Specify that stdout and stdin should not be buffered.
	setbuf(stdout, NULL);
  401a22:	4f42      	ldr	r7, [pc, #264]	; (401b2c <main+0x174>)
  401a24:	683b      	ldr	r3, [r7, #0]
  401a26:	4621      	mov	r1, r4
  401a28:	6898      	ldr	r0, [r3, #8]
  401a2a:	4e41      	ldr	r6, [pc, #260]	; (401b30 <main+0x178>)
  401a2c:	47b0      	blx	r6
	setbuf(stdin, NULL);
  401a2e:	683b      	ldr	r3, [r7, #0]
  401a30:	4621      	mov	r1, r4
  401a32:	6858      	ldr	r0, [r3, #4]
  401a34:	47b0      	blx	r6
	ioport_init();
	
	/* Initialize the UART console. */
	configure_console();
	printf(STRING_HEADER);
  401a36:	483f      	ldr	r0, [pc, #252]	; (401b34 <main+0x17c>)
  401a38:	4b3f      	ldr	r3, [pc, #252]	; (401b38 <main+0x180>)
  401a3a:	4798      	blx	r3
	Pio *base = arch_ioport_pin_to_base(pin);

	if (dir == IOPORT_DIR_OUTPUT) {
		base->PIO_OER = arch_ioport_pin_to_mask(pin);
	} else if (dir == IOPORT_DIR_INPUT) {
		base->PIO_ODR = arch_ioport_pin_to_mask(pin);
  401a3c:	4b3f      	ldr	r3, [pc, #252]	; (401b3c <main+0x184>)
  401a3e:	615d      	str	r5, [r3, #20]
	}

	base->PIO_OWER = arch_ioport_pin_to_mask(pin);
  401a40:	f8c3 50a0 	str.w	r5, [r3, #160]	; 0xa0
		ioport_port_mask_t mask, ioport_mode_t mode)
{
	Pio *base = arch_ioport_port_to_base(port);

	if (mode & IOPORT_MODE_PULLUP) {
		base->PIO_PUER = mask;
  401a44:	665d      	str	r5, [r3, #100]	; 0x64

#if defined(IOPORT_MODE_PULLDOWN)
	if (mode & IOPORT_MODE_PULLDOWN) {
		base->PIO_PPDER = mask;
	} else {
		base->PIO_PPDDR = mask;
  401a46:	f8c3 5090 	str.w	r5, [r3, #144]	; 0x90
#endif

	if (mode & IOPORT_MODE_OPEN_DRAIN) {
		base->PIO_MDER = mask;
	} else {
		base->PIO_MDDR = mask;
  401a4a:	655d      	str	r5, [r3, #84]	; 0x54
	}

	if (mode & (IOPORT_MODE_GLITCH_FILTER | IOPORT_MODE_DEBOUNCE)) {
		base->PIO_IFER = mask;
	} else {
		base->PIO_IFDR = mask;
  401a4c:	625d      	str	r5, [r3, #36]	; 0x24
#endif
	} else {
#if SAM3U || SAM3XA
		base->PIO_SCIFSR = mask;
#else
		base->PIO_IFSCDR = mask;
  401a4e:	f8c3 5080 	str.w	r5, [r3, #128]	; 0x80
	}
#else
	if (mode & IOPORT_MODE_MUX_BIT0) {
		base->PIO_ABCDSR[0] |= mask;
	} else {
		base->PIO_ABCDSR[0] &= ~mask;
  401a52:	6f1a      	ldr	r2, [r3, #112]	; 0x70
  401a54:	f422 6200 	bic.w	r2, r2, #2048	; 0x800
  401a58:	671a      	str	r2, [r3, #112]	; 0x70
	}

	if (mode & IOPORT_MODE_MUX_BIT1) {
		base->PIO_ABCDSR[1] |= mask;
	} else {
		base->PIO_ABCDSR[1] &= ~mask;
  401a5a:	6f5a      	ldr	r2, [r3, #116]	; 0x74
  401a5c:	f422 6200 	bic.w	r2, r2, #2048	; 0x800
  401a60:	675a      	str	r2, [r3, #116]	; 0x74
	/* Set direction and pullup on the given button IOPORT */
	ioport_set_pin_dir(GPIO_PUSH_BUTTON_1, IOPORT_DIR_INPUT);
	ioport_set_pin_mode(GPIO_PUSH_BUTTON_1, IOPORT_MODE_PULLUP);

	/* Initialize display parameter */
	g_ili9488_display_opt.ul_width = ILI9488_LCD_WIDTH;
  401a62:	4837      	ldr	r0, [pc, #220]	; (401b40 <main+0x188>)
  401a64:	f44f 73a0 	mov.w	r3, #320	; 0x140
  401a68:	6003      	str	r3, [r0, #0]
	g_ili9488_display_opt.ul_height = ILI9488_LCD_HEIGHT;
  401a6a:	f44f 73f0 	mov.w	r3, #480	; 0x1e0
  401a6e:	6043      	str	r3, [r0, #4]
	g_ili9488_display_opt.foreground_color = COLOR_CONVERT(COLOR_WHITE);//cor do quadrado
  401a70:	4f34      	ldr	r7, [pc, #208]	; (401b44 <main+0x18c>)
  401a72:	6087      	str	r7, [r0, #8]
	g_ili9488_display_opt.background_color = COLOR_CONVERT(COLOR_WHITE);//cor do quadrado
  401a74:	60c7      	str	r7, [r0, #12]
	//formatar int usando sprintf

	/* Initialize LCD */
	ili9488_init(&g_ili9488_display_opt);
  401a76:	4b34      	ldr	r3, [pc, #208]	; (401b48 <main+0x190>)
  401a78:	4798      	blx	r3
	ili9488_draw_filled_rectangle(0, 0, ILI9488_LCD_WIDTH-1, ILI9488_LCD_HEIGHT-1);
  401a7a:	f240 13df 	movw	r3, #479	; 0x1df
  401a7e:	f240 123f 	movw	r2, #319	; 0x13f
  401a82:	4621      	mov	r1, r4
  401a84:	4620      	mov	r0, r4
  401a86:	4d31      	ldr	r5, [pc, #196]	; (401b4c <main+0x194>)
  401a88:	47a8      	blx	r5
	ili9488_set_foreground_color(COLOR_CONVERT(COLOR_BLUEVIOLET));//cor do plano de fundo
  401a8a:	4831      	ldr	r0, [pc, #196]	; (401b50 <main+0x198>)
  401a8c:	4e31      	ldr	r6, [pc, #196]	; (401b54 <main+0x19c>)
  401a8e:	47b0      	blx	r6
	ili9488_draw_filled_rectangle(0, 0, ILI9488_LCD_WIDTH-1, 120-1);//retangulo de cima do texto
  401a90:	2377      	movs	r3, #119	; 0x77
  401a92:	f240 123f 	movw	r2, #319	; 0x13f
  401a96:	4621      	mov	r1, r4
  401a98:	4620      	mov	r0, r4
  401a9a:	47a8      	blx	r5
	ili9488_draw_filled_rectangle(0, 360, ILI9488_LCD_WIDTH-1, 480-1);//retangulo de baixo do texto
  401a9c:	f240 13df 	movw	r3, #479	; 0x1df
  401aa0:	f240 123f 	movw	r2, #319	; 0x13f
  401aa4:	f44f 71b4 	mov.w	r1, #360	; 0x168
  401aa8:	4620      	mov	r0, r4
  401aaa:	47a8      	blx	r5
	ili9488_draw_pixmap(100, 120, 100, 100, logoImage);//imagem(x,y da posicao x, y do tamanho)
  401aac:	4b2a      	ldr	r3, [pc, #168]	; (401b58 <main+0x1a0>)
  401aae:	9300      	str	r3, [sp, #0]
  401ab0:	2364      	movs	r3, #100	; 0x64
  401ab2:	461a      	mov	r2, r3
  401ab4:	2178      	movs	r1, #120	; 0x78
  401ab6:	4618      	mov	r0, r3
  401ab8:	f8df 80ac 	ldr.w	r8, [pc, #172]	; 401b68 <main+0x1b0>
  401abc:	47c0      	blx	r8

    /* Escreve na tela */
	ili9488_set_foreground_color(COLOR_CONVERT(COLOR_BLUE));//bacground da caixa de escrita
  401abe:	20fc      	movs	r0, #252	; 0xfc
  401ac0:	47b0      	blx	r6
	ili9488_draw_filled_rectangle(0, 300, ILI9488_LCD_WIDTH-1, 315);//retangulo para escrever
  401ac2:	f240 133b 	movw	r3, #315	; 0x13b
  401ac6:	f240 123f 	movw	r2, #319	; 0x13f
  401aca:	f44f 7196 	mov.w	r1, #300	; 0x12c
  401ace:	4620      	mov	r0, r4
  401ad0:	47a8      	blx	r5
	ili9488_set_foreground_color(COLOR_CONVERT(COLOR_WHITE));// cor da letra
  401ad2:	4638      	mov	r0, r7
  401ad4:	47b0      	blx	r6
	ili9488_draw_string(15, 300, (uint8_t *)"INTELLIGENT BREATHALYZER");// o que est escrito e sua posicao
  401ad6:	4a21      	ldr	r2, [pc, #132]	; (401b5c <main+0x1a4>)
  401ad8:	f44f 7196 	mov.w	r1, #300	; 0x12c
  401adc:	200f      	movs	r0, #15
  401ade:	4c20      	ldr	r4, [pc, #128]	; (401b60 <main+0x1a8>)
  401ae0:	47a0      	blx	r4

		unsigned int int_var = 25;   // example value
		unsigned char buffer[7];      // buffer to put string
		itoa(int_var, buffer, 10);    // make the string
  401ae2:	220a      	movs	r2, #10
  401ae4:	a908      	add	r1, sp, #32
  401ae6:	2019      	movs	r0, #25
  401ae8:	4b1e      	ldr	r3, [pc, #120]	; (401b64 <main+0x1ac>)
  401aea:	4798      	blx	r3
		//lcd_puts(buffer);             // show the string
		ili9488_draw_string(140, 160, (uint8_t *)buffer);// o que est escrito e sua posicao
  401aec:	aa08      	add	r2, sp, #32
  401aee:	21a0      	movs	r1, #160	; 0xa0
  401af0:	208c      	movs	r0, #140	; 0x8c
  401af2:	47a0      	blx	r4
  401af4:	e7fe      	b.n	401af4 <main+0x13c>
  401af6:	bf00      	nop
  401af8:	0040019d 	.word	0x0040019d
  401afc:	00400425 	.word	0x00400425
  401b00:	00401235 	.word	0x00401235
  401b04:	40028000 	.word	0x40028000
  401b08:	20400cfc 	.word	0x20400cfc
  401b0c:	004018e5 	.word	0x004018e5
  401b10:	20400cf8 	.word	0x20400cf8
  401b14:	0040180d 	.word	0x0040180d
  401b18:	20400cf4 	.word	0x20400cf4
  401b1c:	08f0d180 	.word	0x08f0d180
  401b20:	004014c5 	.word	0x004014c5
  401b24:	00401519 	.word	0x00401519
  401b28:	00401521 	.word	0x00401521
  401b2c:	20400430 	.word	0x20400430
  401b30:	00401de9 	.word	0x00401de9
  401b34:	004053ec 	.word	0x004053ec
  401b38:	00401bbd 	.word	0x00401bbd
  401b3c:	400e0e00 	.word	0x400e0e00
  401b40:	20400d00 	.word	0x20400d00
  401b44:	00fcfcfc 	.word	0x00fcfcfc
  401b48:	00400981 	.word	0x00400981
  401b4c:	00400b7d 	.word	0x00400b7d
  401b50:	008828e0 	.word	0x008828e0
  401b54:	004008f5 	.word	0x004008f5
  401b58:	0040545c 	.word	0x0040545c
  401b5c:	00405440 	.word	0x00405440
  401b60:	00400c35 	.word	0x00400c35
  401b64:	00401c15 	.word	0x00401c15
  401b68:	00400ce1 	.word	0x00400ce1

00401b6c <__libc_init_array>:
  401b6c:	b570      	push	{r4, r5, r6, lr}
  401b6e:	4e0f      	ldr	r6, [pc, #60]	; (401bac <__libc_init_array+0x40>)
  401b70:	4d0f      	ldr	r5, [pc, #60]	; (401bb0 <__libc_init_array+0x44>)
  401b72:	1b76      	subs	r6, r6, r5
  401b74:	10b6      	asrs	r6, r6, #2
  401b76:	bf18      	it	ne
  401b78:	2400      	movne	r4, #0
  401b7a:	d005      	beq.n	401b88 <__libc_init_array+0x1c>
  401b7c:	3401      	adds	r4, #1
  401b7e:	f855 3b04 	ldr.w	r3, [r5], #4
  401b82:	4798      	blx	r3
  401b84:	42a6      	cmp	r6, r4
  401b86:	d1f9      	bne.n	401b7c <__libc_init_array+0x10>
  401b88:	4e0a      	ldr	r6, [pc, #40]	; (401bb4 <__libc_init_array+0x48>)
  401b8a:	4d0b      	ldr	r5, [pc, #44]	; (401bb8 <__libc_init_array+0x4c>)
  401b8c:	1b76      	subs	r6, r6, r5
  401b8e:	f00a fd45 	bl	40c61c <_init>
  401b92:	10b6      	asrs	r6, r6, #2
  401b94:	bf18      	it	ne
  401b96:	2400      	movne	r4, #0
  401b98:	d006      	beq.n	401ba8 <__libc_init_array+0x3c>
  401b9a:	3401      	adds	r4, #1
  401b9c:	f855 3b04 	ldr.w	r3, [r5], #4
  401ba0:	4798      	blx	r3
  401ba2:	42a6      	cmp	r6, r4
  401ba4:	d1f9      	bne.n	401b9a <__libc_init_array+0x2e>
  401ba6:	bd70      	pop	{r4, r5, r6, pc}
  401ba8:	bd70      	pop	{r4, r5, r6, pc}
  401baa:	bf00      	nop
  401bac:	0040c628 	.word	0x0040c628
  401bb0:	0040c628 	.word	0x0040c628
  401bb4:	0040c630 	.word	0x0040c630
  401bb8:	0040c628 	.word	0x0040c628

00401bbc <iprintf>:
  401bbc:	b40f      	push	{r0, r1, r2, r3}
  401bbe:	b500      	push	{lr}
  401bc0:	4907      	ldr	r1, [pc, #28]	; (401be0 <iprintf+0x24>)
  401bc2:	b083      	sub	sp, #12
  401bc4:	ab04      	add	r3, sp, #16
  401bc6:	6808      	ldr	r0, [r1, #0]
  401bc8:	f853 2b04 	ldr.w	r2, [r3], #4
  401bcc:	6881      	ldr	r1, [r0, #8]
  401bce:	9301      	str	r3, [sp, #4]
  401bd0:	f000 fa36 	bl	402040 <_vfiprintf_r>
  401bd4:	b003      	add	sp, #12
  401bd6:	f85d eb04 	ldr.w	lr, [sp], #4
  401bda:	b004      	add	sp, #16
  401bdc:	4770      	bx	lr
  401bde:	bf00      	nop
  401be0:	20400430 	.word	0x20400430

00401be4 <__itoa>:
  401be4:	1e93      	subs	r3, r2, #2
  401be6:	2b22      	cmp	r3, #34	; 0x22
  401be8:	d810      	bhi.n	401c0c <__itoa+0x28>
  401bea:	2a0a      	cmp	r2, #10
  401bec:	b510      	push	{r4, lr}
  401bee:	d006      	beq.n	401bfe <__itoa+0x1a>
  401bf0:	2300      	movs	r3, #0
  401bf2:	460c      	mov	r4, r1
  401bf4:	4419      	add	r1, r3
  401bf6:	f000 f9a7 	bl	401f48 <__utoa>
  401bfa:	4620      	mov	r0, r4
  401bfc:	bd10      	pop	{r4, pc}
  401bfe:	2800      	cmp	r0, #0
  401c00:	daf6      	bge.n	401bf0 <__itoa+0xc>
  401c02:	232d      	movs	r3, #45	; 0x2d
  401c04:	700b      	strb	r3, [r1, #0]
  401c06:	4240      	negs	r0, r0
  401c08:	2301      	movs	r3, #1
  401c0a:	e7f2      	b.n	401bf2 <__itoa+0xe>
  401c0c:	2000      	movs	r0, #0
  401c0e:	7008      	strb	r0, [r1, #0]
  401c10:	4770      	bx	lr
  401c12:	bf00      	nop

00401c14 <itoa>:
  401c14:	f7ff bfe6 	b.w	401be4 <__itoa>

00401c18 <memcpy>:
  401c18:	4684      	mov	ip, r0
  401c1a:	ea41 0300 	orr.w	r3, r1, r0
  401c1e:	f013 0303 	ands.w	r3, r3, #3
  401c22:	d16d      	bne.n	401d00 <memcpy+0xe8>
  401c24:	3a40      	subs	r2, #64	; 0x40
  401c26:	d341      	bcc.n	401cac <memcpy+0x94>
  401c28:	f851 3b04 	ldr.w	r3, [r1], #4
  401c2c:	f840 3b04 	str.w	r3, [r0], #4
  401c30:	f851 3b04 	ldr.w	r3, [r1], #4
  401c34:	f840 3b04 	str.w	r3, [r0], #4
  401c38:	f851 3b04 	ldr.w	r3, [r1], #4
  401c3c:	f840 3b04 	str.w	r3, [r0], #4
  401c40:	f851 3b04 	ldr.w	r3, [r1], #4
  401c44:	f840 3b04 	str.w	r3, [r0], #4
  401c48:	f851 3b04 	ldr.w	r3, [r1], #4
  401c4c:	f840 3b04 	str.w	r3, [r0], #4
  401c50:	f851 3b04 	ldr.w	r3, [r1], #4
  401c54:	f840 3b04 	str.w	r3, [r0], #4
  401c58:	f851 3b04 	ldr.w	r3, [r1], #4
  401c5c:	f840 3b04 	str.w	r3, [r0], #4
  401c60:	f851 3b04 	ldr.w	r3, [r1], #4
  401c64:	f840 3b04 	str.w	r3, [r0], #4
  401c68:	f851 3b04 	ldr.w	r3, [r1], #4
  401c6c:	f840 3b04 	str.w	r3, [r0], #4
  401c70:	f851 3b04 	ldr.w	r3, [r1], #4
  401c74:	f840 3b04 	str.w	r3, [r0], #4
  401c78:	f851 3b04 	ldr.w	r3, [r1], #4
  401c7c:	f840 3b04 	str.w	r3, [r0], #4
  401c80:	f851 3b04 	ldr.w	r3, [r1], #4
  401c84:	f840 3b04 	str.w	r3, [r0], #4
  401c88:	f851 3b04 	ldr.w	r3, [r1], #4
  401c8c:	f840 3b04 	str.w	r3, [r0], #4
  401c90:	f851 3b04 	ldr.w	r3, [r1], #4
  401c94:	f840 3b04 	str.w	r3, [r0], #4
  401c98:	f851 3b04 	ldr.w	r3, [r1], #4
  401c9c:	f840 3b04 	str.w	r3, [r0], #4
  401ca0:	f851 3b04 	ldr.w	r3, [r1], #4
  401ca4:	f840 3b04 	str.w	r3, [r0], #4
  401ca8:	3a40      	subs	r2, #64	; 0x40
  401caa:	d2bd      	bcs.n	401c28 <memcpy+0x10>
  401cac:	3230      	adds	r2, #48	; 0x30
  401cae:	d311      	bcc.n	401cd4 <memcpy+0xbc>
  401cb0:	f851 3b04 	ldr.w	r3, [r1], #4
  401cb4:	f840 3b04 	str.w	r3, [r0], #4
  401cb8:	f851 3b04 	ldr.w	r3, [r1], #4
  401cbc:	f840 3b04 	str.w	r3, [r0], #4
  401cc0:	f851 3b04 	ldr.w	r3, [r1], #4
  401cc4:	f840 3b04 	str.w	r3, [r0], #4
  401cc8:	f851 3b04 	ldr.w	r3, [r1], #4
  401ccc:	f840 3b04 	str.w	r3, [r0], #4
  401cd0:	3a10      	subs	r2, #16
  401cd2:	d2ed      	bcs.n	401cb0 <memcpy+0x98>
  401cd4:	320c      	adds	r2, #12
  401cd6:	d305      	bcc.n	401ce4 <memcpy+0xcc>
  401cd8:	f851 3b04 	ldr.w	r3, [r1], #4
  401cdc:	f840 3b04 	str.w	r3, [r0], #4
  401ce0:	3a04      	subs	r2, #4
  401ce2:	d2f9      	bcs.n	401cd8 <memcpy+0xc0>
  401ce4:	3204      	adds	r2, #4
  401ce6:	d008      	beq.n	401cfa <memcpy+0xe2>
  401ce8:	07d2      	lsls	r2, r2, #31
  401cea:	bf1c      	itt	ne
  401cec:	f811 3b01 	ldrbne.w	r3, [r1], #1
  401cf0:	f800 3b01 	strbne.w	r3, [r0], #1
  401cf4:	d301      	bcc.n	401cfa <memcpy+0xe2>
  401cf6:	880b      	ldrh	r3, [r1, #0]
  401cf8:	8003      	strh	r3, [r0, #0]
  401cfa:	4660      	mov	r0, ip
  401cfc:	4770      	bx	lr
  401cfe:	bf00      	nop
  401d00:	2a08      	cmp	r2, #8
  401d02:	d313      	bcc.n	401d2c <memcpy+0x114>
  401d04:	078b      	lsls	r3, r1, #30
  401d06:	d08d      	beq.n	401c24 <memcpy+0xc>
  401d08:	f010 0303 	ands.w	r3, r0, #3
  401d0c:	d08a      	beq.n	401c24 <memcpy+0xc>
  401d0e:	f1c3 0304 	rsb	r3, r3, #4
  401d12:	1ad2      	subs	r2, r2, r3
  401d14:	07db      	lsls	r3, r3, #31
  401d16:	bf1c      	itt	ne
  401d18:	f811 3b01 	ldrbne.w	r3, [r1], #1
  401d1c:	f800 3b01 	strbne.w	r3, [r0], #1
  401d20:	d380      	bcc.n	401c24 <memcpy+0xc>
  401d22:	f831 3b02 	ldrh.w	r3, [r1], #2
  401d26:	f820 3b02 	strh.w	r3, [r0], #2
  401d2a:	e77b      	b.n	401c24 <memcpy+0xc>
  401d2c:	3a04      	subs	r2, #4
  401d2e:	d3d9      	bcc.n	401ce4 <memcpy+0xcc>
  401d30:	3a01      	subs	r2, #1
  401d32:	f811 3b01 	ldrb.w	r3, [r1], #1
  401d36:	f800 3b01 	strb.w	r3, [r0], #1
  401d3a:	d2f9      	bcs.n	401d30 <memcpy+0x118>
  401d3c:	780b      	ldrb	r3, [r1, #0]
  401d3e:	7003      	strb	r3, [r0, #0]
  401d40:	784b      	ldrb	r3, [r1, #1]
  401d42:	7043      	strb	r3, [r0, #1]
  401d44:	788b      	ldrb	r3, [r1, #2]
  401d46:	7083      	strb	r3, [r0, #2]
  401d48:	4660      	mov	r0, ip
  401d4a:	4770      	bx	lr

00401d4c <memset>:
  401d4c:	b470      	push	{r4, r5, r6}
  401d4e:	0784      	lsls	r4, r0, #30
  401d50:	d046      	beq.n	401de0 <memset+0x94>
  401d52:	1e54      	subs	r4, r2, #1
  401d54:	2a00      	cmp	r2, #0
  401d56:	d041      	beq.n	401ddc <memset+0x90>
  401d58:	b2cd      	uxtb	r5, r1
  401d5a:	4603      	mov	r3, r0
  401d5c:	e002      	b.n	401d64 <memset+0x18>
  401d5e:	1e62      	subs	r2, r4, #1
  401d60:	b3e4      	cbz	r4, 401ddc <memset+0x90>
  401d62:	4614      	mov	r4, r2
  401d64:	f803 5b01 	strb.w	r5, [r3], #1
  401d68:	079a      	lsls	r2, r3, #30
  401d6a:	d1f8      	bne.n	401d5e <memset+0x12>
  401d6c:	2c03      	cmp	r4, #3
  401d6e:	d92e      	bls.n	401dce <memset+0x82>
  401d70:	b2cd      	uxtb	r5, r1
  401d72:	ea45 2505 	orr.w	r5, r5, r5, lsl #8
  401d76:	2c0f      	cmp	r4, #15
  401d78:	ea45 4505 	orr.w	r5, r5, r5, lsl #16
  401d7c:	d919      	bls.n	401db2 <memset+0x66>
  401d7e:	f103 0210 	add.w	r2, r3, #16
  401d82:	4626      	mov	r6, r4
  401d84:	3e10      	subs	r6, #16
  401d86:	2e0f      	cmp	r6, #15
  401d88:	f842 5c10 	str.w	r5, [r2, #-16]
  401d8c:	f842 5c0c 	str.w	r5, [r2, #-12]
  401d90:	f842 5c08 	str.w	r5, [r2, #-8]
  401d94:	f842 5c04 	str.w	r5, [r2, #-4]
  401d98:	f102 0210 	add.w	r2, r2, #16
  401d9c:	d8f2      	bhi.n	401d84 <memset+0x38>
  401d9e:	f1a4 0210 	sub.w	r2, r4, #16
  401da2:	f022 020f 	bic.w	r2, r2, #15
  401da6:	f004 040f 	and.w	r4, r4, #15
  401daa:	3210      	adds	r2, #16
  401dac:	2c03      	cmp	r4, #3
  401dae:	4413      	add	r3, r2
  401db0:	d90d      	bls.n	401dce <memset+0x82>
  401db2:	461e      	mov	r6, r3
  401db4:	4622      	mov	r2, r4
  401db6:	3a04      	subs	r2, #4
  401db8:	2a03      	cmp	r2, #3
  401dba:	f846 5b04 	str.w	r5, [r6], #4
  401dbe:	d8fa      	bhi.n	401db6 <memset+0x6a>
  401dc0:	1f22      	subs	r2, r4, #4
  401dc2:	f022 0203 	bic.w	r2, r2, #3
  401dc6:	3204      	adds	r2, #4
  401dc8:	4413      	add	r3, r2
  401dca:	f004 0403 	and.w	r4, r4, #3
  401dce:	b12c      	cbz	r4, 401ddc <memset+0x90>
  401dd0:	b2c9      	uxtb	r1, r1
  401dd2:	441c      	add	r4, r3
  401dd4:	f803 1b01 	strb.w	r1, [r3], #1
  401dd8:	42a3      	cmp	r3, r4
  401dda:	d1fb      	bne.n	401dd4 <memset+0x88>
  401ddc:	bc70      	pop	{r4, r5, r6}
  401dde:	4770      	bx	lr
  401de0:	4614      	mov	r4, r2
  401de2:	4603      	mov	r3, r0
  401de4:	e7c2      	b.n	401d6c <memset+0x20>
  401de6:	bf00      	nop

00401de8 <setbuf>:
  401de8:	2900      	cmp	r1, #0
  401dea:	bf0c      	ite	eq
  401dec:	2202      	moveq	r2, #2
  401dee:	2200      	movne	r2, #0
  401df0:	f44f 6380 	mov.w	r3, #1024	; 0x400
  401df4:	f000 b800 	b.w	401df8 <setvbuf>

00401df8 <setvbuf>:
  401df8:	e92d 43f0 	stmdb	sp!, {r4, r5, r6, r7, r8, r9, lr}
  401dfc:	4c51      	ldr	r4, [pc, #324]	; (401f44 <setvbuf+0x14c>)
  401dfe:	6825      	ldr	r5, [r4, #0]
  401e00:	b083      	sub	sp, #12
  401e02:	4604      	mov	r4, r0
  401e04:	460f      	mov	r7, r1
  401e06:	4690      	mov	r8, r2
  401e08:	461e      	mov	r6, r3
  401e0a:	b115      	cbz	r5, 401e12 <setvbuf+0x1a>
  401e0c:	6bab      	ldr	r3, [r5, #56]	; 0x38
  401e0e:	2b00      	cmp	r3, #0
  401e10:	d079      	beq.n	401f06 <setvbuf+0x10e>
  401e12:	f1b8 0f02 	cmp.w	r8, #2
  401e16:	d004      	beq.n	401e22 <setvbuf+0x2a>
  401e18:	f1b8 0f01 	cmp.w	r8, #1
  401e1c:	d87f      	bhi.n	401f1e <setvbuf+0x126>
  401e1e:	2e00      	cmp	r6, #0
  401e20:	db7d      	blt.n	401f1e <setvbuf+0x126>
  401e22:	4621      	mov	r1, r4
  401e24:	4628      	mov	r0, r5
  401e26:	f001 f957 	bl	4030d8 <_fflush_r>
  401e2a:	6b21      	ldr	r1, [r4, #48]	; 0x30
  401e2c:	b141      	cbz	r1, 401e40 <setvbuf+0x48>
  401e2e:	f104 0340 	add.w	r3, r4, #64	; 0x40
  401e32:	4299      	cmp	r1, r3
  401e34:	d002      	beq.n	401e3c <setvbuf+0x44>
  401e36:	4628      	mov	r0, r5
  401e38:	f001 faac 	bl	403394 <_free_r>
  401e3c:	2300      	movs	r3, #0
  401e3e:	6323      	str	r3, [r4, #48]	; 0x30
  401e40:	f9b4 300c 	ldrsh.w	r3, [r4, #12]
  401e44:	2200      	movs	r2, #0
  401e46:	61a2      	str	r2, [r4, #24]
  401e48:	6062      	str	r2, [r4, #4]
  401e4a:	061a      	lsls	r2, r3, #24
  401e4c:	d454      	bmi.n	401ef8 <setvbuf+0x100>
  401e4e:	f423 634a 	bic.w	r3, r3, #3232	; 0xca0
  401e52:	f023 0303 	bic.w	r3, r3, #3
  401e56:	f1b8 0f02 	cmp.w	r8, #2
  401e5a:	81a3      	strh	r3, [r4, #12]
  401e5c:	d039      	beq.n	401ed2 <setvbuf+0xda>
  401e5e:	ab01      	add	r3, sp, #4
  401e60:	466a      	mov	r2, sp
  401e62:	4621      	mov	r1, r4
  401e64:	4628      	mov	r0, r5
  401e66:	f001 fd33 	bl	4038d0 <__swhatbuf_r>
  401e6a:	89a3      	ldrh	r3, [r4, #12]
  401e6c:	4318      	orrs	r0, r3
  401e6e:	81a0      	strh	r0, [r4, #12]
  401e70:	b326      	cbz	r6, 401ebc <setvbuf+0xc4>
  401e72:	b327      	cbz	r7, 401ebe <setvbuf+0xc6>
  401e74:	6bab      	ldr	r3, [r5, #56]	; 0x38
  401e76:	2b00      	cmp	r3, #0
  401e78:	d04d      	beq.n	401f16 <setvbuf+0x11e>
  401e7a:	9b00      	ldr	r3, [sp, #0]
  401e7c:	f9b4 000c 	ldrsh.w	r0, [r4, #12]
  401e80:	6027      	str	r7, [r4, #0]
  401e82:	429e      	cmp	r6, r3
  401e84:	bf1c      	itt	ne
  401e86:	f440 6000 	orrne.w	r0, r0, #2048	; 0x800
  401e8a:	81a0      	strhne	r0, [r4, #12]
  401e8c:	f1b8 0f01 	cmp.w	r8, #1
  401e90:	bf08      	it	eq
  401e92:	f040 0001 	orreq.w	r0, r0, #1
  401e96:	b283      	uxth	r3, r0
  401e98:	bf08      	it	eq
  401e9a:	81a0      	strheq	r0, [r4, #12]
  401e9c:	f003 0008 	and.w	r0, r3, #8
  401ea0:	b280      	uxth	r0, r0
  401ea2:	6127      	str	r7, [r4, #16]
  401ea4:	6166      	str	r6, [r4, #20]
  401ea6:	b318      	cbz	r0, 401ef0 <setvbuf+0xf8>
  401ea8:	f013 0001 	ands.w	r0, r3, #1
  401eac:	d02f      	beq.n	401f0e <setvbuf+0x116>
  401eae:	2000      	movs	r0, #0
  401eb0:	4276      	negs	r6, r6
  401eb2:	61a6      	str	r6, [r4, #24]
  401eb4:	60a0      	str	r0, [r4, #8]
  401eb6:	b003      	add	sp, #12
  401eb8:	e8bd 83f0 	ldmia.w	sp!, {r4, r5, r6, r7, r8, r9, pc}
  401ebc:	9e00      	ldr	r6, [sp, #0]
  401ebe:	4630      	mov	r0, r6
  401ec0:	f001 fd7a 	bl	4039b8 <malloc>
  401ec4:	4607      	mov	r7, r0
  401ec6:	b368      	cbz	r0, 401f24 <setvbuf+0x12c>
  401ec8:	89a3      	ldrh	r3, [r4, #12]
  401eca:	f043 0380 	orr.w	r3, r3, #128	; 0x80
  401ece:	81a3      	strh	r3, [r4, #12]
  401ed0:	e7d0      	b.n	401e74 <setvbuf+0x7c>
  401ed2:	2000      	movs	r0, #0
  401ed4:	f104 0243 	add.w	r2, r4, #67	; 0x43
  401ed8:	f043 0302 	orr.w	r3, r3, #2
  401edc:	2500      	movs	r5, #0
  401ede:	2101      	movs	r1, #1
  401ee0:	81a3      	strh	r3, [r4, #12]
  401ee2:	60a5      	str	r5, [r4, #8]
  401ee4:	6022      	str	r2, [r4, #0]
  401ee6:	6122      	str	r2, [r4, #16]
  401ee8:	6161      	str	r1, [r4, #20]
  401eea:	b003      	add	sp, #12
  401eec:	e8bd 83f0 	ldmia.w	sp!, {r4, r5, r6, r7, r8, r9, pc}
  401ef0:	60a0      	str	r0, [r4, #8]
  401ef2:	b003      	add	sp, #12
  401ef4:	e8bd 83f0 	ldmia.w	sp!, {r4, r5, r6, r7, r8, r9, pc}
  401ef8:	6921      	ldr	r1, [r4, #16]
  401efa:	4628      	mov	r0, r5
  401efc:	f001 fa4a 	bl	403394 <_free_r>
  401f00:	f9b4 300c 	ldrsh.w	r3, [r4, #12]
  401f04:	e7a3      	b.n	401e4e <setvbuf+0x56>
  401f06:	4628      	mov	r0, r5
  401f08:	f001 f97a 	bl	403200 <__sinit>
  401f0c:	e781      	b.n	401e12 <setvbuf+0x1a>
  401f0e:	60a6      	str	r6, [r4, #8]
  401f10:	b003      	add	sp, #12
  401f12:	e8bd 83f0 	ldmia.w	sp!, {r4, r5, r6, r7, r8, r9, pc}
  401f16:	4628      	mov	r0, r5
  401f18:	f001 f972 	bl	403200 <__sinit>
  401f1c:	e7ad      	b.n	401e7a <setvbuf+0x82>
  401f1e:	f04f 30ff 	mov.w	r0, #4294967295
  401f22:	e7e2      	b.n	401eea <setvbuf+0xf2>
  401f24:	f8dd 9000 	ldr.w	r9, [sp]
  401f28:	45b1      	cmp	r9, r6
  401f2a:	d006      	beq.n	401f3a <setvbuf+0x142>
  401f2c:	4648      	mov	r0, r9
  401f2e:	f001 fd43 	bl	4039b8 <malloc>
  401f32:	4607      	mov	r7, r0
  401f34:	b108      	cbz	r0, 401f3a <setvbuf+0x142>
  401f36:	464e      	mov	r6, r9
  401f38:	e7c6      	b.n	401ec8 <setvbuf+0xd0>
  401f3a:	f9b4 300c 	ldrsh.w	r3, [r4, #12]
  401f3e:	f04f 30ff 	mov.w	r0, #4294967295
  401f42:	e7c7      	b.n	401ed4 <setvbuf+0xdc>
  401f44:	20400430 	.word	0x20400430

00401f48 <__utoa>:
  401f48:	b5f0      	push	{r4, r5, r6, r7, lr}
  401f4a:	f8df e078 	ldr.w	lr, [pc, #120]	; 401fc4 <__utoa+0x7c>
  401f4e:	4616      	mov	r6, r2
  401f50:	4604      	mov	r4, r0
  401f52:	460f      	mov	r7, r1
  401f54:	e8be 000f 	ldmia.w	lr!, {r0, r1, r2, r3}
  401f58:	b08b      	sub	sp, #44	; 0x2c
  401f5a:	466d      	mov	r5, sp
  401f5c:	c50f      	stmia	r5!, {r0, r1, r2, r3}
  401f5e:	e8be 000f 	ldmia.w	lr!, {r0, r1, r2, r3}
  401f62:	c50f      	stmia	r5!, {r0, r1, r2, r3}
  401f64:	e89e 0003 	ldmia.w	lr, {r0, r1}
  401f68:	1eb3      	subs	r3, r6, #2
  401f6a:	f845 0b04 	str.w	r0, [r5], #4
  401f6e:	2b22      	cmp	r3, #34	; 0x22
  401f70:	7029      	strb	r1, [r5, #0]
  401f72:	d822      	bhi.n	401fba <__utoa+0x72>
  401f74:	1e7d      	subs	r5, r7, #1
  401f76:	4628      	mov	r0, r5
  401f78:	2200      	movs	r2, #0
  401f7a:	e000      	b.n	401f7e <__utoa+0x36>
  401f7c:	461a      	mov	r2, r3
  401f7e:	fbb4 f1f6 	udiv	r1, r4, r6
  401f82:	ab0a      	add	r3, sp, #40	; 0x28
  401f84:	fb06 4411 	mls	r4, r6, r1, r4
  401f88:	4423      	add	r3, r4
  401f8a:	460c      	mov	r4, r1
  401f8c:	f813 3c28 	ldrb.w	r3, [r3, #-40]
  401f90:	f800 3f01 	strb.w	r3, [r0, #1]!
  401f94:	1c53      	adds	r3, r2, #1
  401f96:	2900      	cmp	r1, #0
  401f98:	d1f0      	bne.n	401f7c <__utoa+0x34>
  401f9a:	54f9      	strb	r1, [r7, r3]
  401f9c:	18bb      	adds	r3, r7, r2
  401f9e:	b14a      	cbz	r2, 401fb4 <__utoa+0x6c>
  401fa0:	7819      	ldrb	r1, [r3, #0]
  401fa2:	f815 0f01 	ldrb.w	r0, [r5, #1]!
  401fa6:	7029      	strb	r1, [r5, #0]
  401fa8:	3401      	adds	r4, #1
  401faa:	1b11      	subs	r1, r2, r4
  401fac:	428c      	cmp	r4, r1
  401fae:	f803 0901 	strb.w	r0, [r3], #-1
  401fb2:	dbf5      	blt.n	401fa0 <__utoa+0x58>
  401fb4:	4638      	mov	r0, r7
  401fb6:	b00b      	add	sp, #44	; 0x2c
  401fb8:	bdf0      	pop	{r4, r5, r6, r7, pc}
  401fba:	2000      	movs	r0, #0
  401fbc:	7038      	strb	r0, [r7, #0]
  401fbe:	b00b      	add	sp, #44	; 0x2c
  401fc0:	bdf0      	pop	{r4, r5, r6, r7, pc}
  401fc2:	bf00      	nop
  401fc4:	0040c5a4 	.word	0x0040c5a4

00401fc8 <__sprint_r.part.0>:
  401fc8:	6e4b      	ldr	r3, [r1, #100]	; 0x64
  401fca:	e92d 47f0 	stmdb	sp!, {r4, r5, r6, r7, r8, r9, sl, lr}
  401fce:	049c      	lsls	r4, r3, #18
  401fd0:	4692      	mov	sl, r2
  401fd2:	d52c      	bpl.n	40202e <__sprint_r.part.0+0x66>
  401fd4:	6893      	ldr	r3, [r2, #8]
  401fd6:	6812      	ldr	r2, [r2, #0]
  401fd8:	b33b      	cbz	r3, 40202a <__sprint_r.part.0+0x62>
  401fda:	460f      	mov	r7, r1
  401fdc:	4680      	mov	r8, r0
  401fde:	f102 0908 	add.w	r9, r2, #8
  401fe2:	e919 0060 	ldmdb	r9, {r5, r6}
  401fe6:	08b6      	lsrs	r6, r6, #2
  401fe8:	d017      	beq.n	40201a <__sprint_r.part.0+0x52>
  401fea:	3d04      	subs	r5, #4
  401fec:	2400      	movs	r4, #0
  401fee:	e001      	b.n	401ff4 <__sprint_r.part.0+0x2c>
  401ff0:	42a6      	cmp	r6, r4
  401ff2:	d010      	beq.n	402016 <__sprint_r.part.0+0x4e>
  401ff4:	463a      	mov	r2, r7
  401ff6:	f855 1f04 	ldr.w	r1, [r5, #4]!
  401ffa:	4640      	mov	r0, r8
  401ffc:	f001 f96a 	bl	4032d4 <_fputwc_r>
  402000:	1c43      	adds	r3, r0, #1
  402002:	f104 0401 	add.w	r4, r4, #1
  402006:	d1f3      	bne.n	401ff0 <__sprint_r.part.0+0x28>
  402008:	2300      	movs	r3, #0
  40200a:	f8ca 3008 	str.w	r3, [sl, #8]
  40200e:	f8ca 3004 	str.w	r3, [sl, #4]
  402012:	e8bd 87f0 	ldmia.w	sp!, {r4, r5, r6, r7, r8, r9, sl, pc}
  402016:	f8da 3008 	ldr.w	r3, [sl, #8]
  40201a:	eba3 0386 	sub.w	r3, r3, r6, lsl #2
  40201e:	f8ca 3008 	str.w	r3, [sl, #8]
  402022:	f109 0908 	add.w	r9, r9, #8
  402026:	2b00      	cmp	r3, #0
  402028:	d1db      	bne.n	401fe2 <__sprint_r.part.0+0x1a>
  40202a:	2000      	movs	r0, #0
  40202c:	e7ec      	b.n	402008 <__sprint_r.part.0+0x40>
  40202e:	f001 fa99 	bl	403564 <__sfvwrite_r>
  402032:	2300      	movs	r3, #0
  402034:	f8ca 3008 	str.w	r3, [sl, #8]
  402038:	f8ca 3004 	str.w	r3, [sl, #4]
  40203c:	e8bd 87f0 	ldmia.w	sp!, {r4, r5, r6, r7, r8, r9, sl, pc}

00402040 <_vfiprintf_r>:
  402040:	e92d 4ff0 	stmdb	sp!, {r4, r5, r6, r7, r8, r9, sl, fp, lr}
  402044:	b0ab      	sub	sp, #172	; 0xac
  402046:	461c      	mov	r4, r3
  402048:	9100      	str	r1, [sp, #0]
  40204a:	4690      	mov	r8, r2
  40204c:	9304      	str	r3, [sp, #16]
  40204e:	9005      	str	r0, [sp, #20]
  402050:	b118      	cbz	r0, 40205a <_vfiprintf_r+0x1a>
  402052:	6b83      	ldr	r3, [r0, #56]	; 0x38
  402054:	2b00      	cmp	r3, #0
  402056:	f000 80de 	beq.w	402216 <_vfiprintf_r+0x1d6>
  40205a:	9800      	ldr	r0, [sp, #0]
  40205c:	f9b0 100c 	ldrsh.w	r1, [r0, #12]
  402060:	b28a      	uxth	r2, r1
  402062:	0495      	lsls	r5, r2, #18
  402064:	d407      	bmi.n	402076 <_vfiprintf_r+0x36>
  402066:	6e43      	ldr	r3, [r0, #100]	; 0x64
  402068:	f441 5200 	orr.w	r2, r1, #8192	; 0x2000
  40206c:	f423 5300 	bic.w	r3, r3, #8192	; 0x2000
  402070:	8182      	strh	r2, [r0, #12]
  402072:	6643      	str	r3, [r0, #100]	; 0x64
  402074:	b292      	uxth	r2, r2
  402076:	0711      	lsls	r1, r2, #28
  402078:	f140 80b1 	bpl.w	4021de <_vfiprintf_r+0x19e>
  40207c:	9b00      	ldr	r3, [sp, #0]
  40207e:	691b      	ldr	r3, [r3, #16]
  402080:	2b00      	cmp	r3, #0
  402082:	f000 80ac 	beq.w	4021de <_vfiprintf_r+0x19e>
  402086:	f002 021a 	and.w	r2, r2, #26
  40208a:	2a0a      	cmp	r2, #10
  40208c:	f000 80b5 	beq.w	4021fa <_vfiprintf_r+0x1ba>
  402090:	2300      	movs	r3, #0
  402092:	f10d 0b68 	add.w	fp, sp, #104	; 0x68
  402096:	9302      	str	r3, [sp, #8]
  402098:	930f      	str	r3, [sp, #60]	; 0x3c
  40209a:	930e      	str	r3, [sp, #56]	; 0x38
  40209c:	f8cd b034 	str.w	fp, [sp, #52]	; 0x34
  4020a0:	46da      	mov	sl, fp
  4020a2:	f898 3000 	ldrb.w	r3, [r8]
  4020a6:	4644      	mov	r4, r8
  4020a8:	b1fb      	cbz	r3, 4020ea <_vfiprintf_r+0xaa>
  4020aa:	2b25      	cmp	r3, #37	; 0x25
  4020ac:	d102      	bne.n	4020b4 <_vfiprintf_r+0x74>
  4020ae:	e01c      	b.n	4020ea <_vfiprintf_r+0xaa>
  4020b0:	2b25      	cmp	r3, #37	; 0x25
  4020b2:	d003      	beq.n	4020bc <_vfiprintf_r+0x7c>
  4020b4:	f814 3f01 	ldrb.w	r3, [r4, #1]!
  4020b8:	2b00      	cmp	r3, #0
  4020ba:	d1f9      	bne.n	4020b0 <_vfiprintf_r+0x70>
  4020bc:	ebc8 0504 	rsb	r5, r8, r4
  4020c0:	b19d      	cbz	r5, 4020ea <_vfiprintf_r+0xaa>
  4020c2:	9b0e      	ldr	r3, [sp, #56]	; 0x38
  4020c4:	9a0f      	ldr	r2, [sp, #60]	; 0x3c
  4020c6:	f8ca 8000 	str.w	r8, [sl]
  4020ca:	3301      	adds	r3, #1
  4020cc:	442a      	add	r2, r5
  4020ce:	2b07      	cmp	r3, #7
  4020d0:	f8ca 5004 	str.w	r5, [sl, #4]
  4020d4:	920f      	str	r2, [sp, #60]	; 0x3c
  4020d6:	930e      	str	r3, [sp, #56]	; 0x38
  4020d8:	dd7b      	ble.n	4021d2 <_vfiprintf_r+0x192>
  4020da:	2a00      	cmp	r2, #0
  4020dc:	f040 8528 	bne.w	402b30 <_vfiprintf_r+0xaf0>
  4020e0:	9b02      	ldr	r3, [sp, #8]
  4020e2:	920e      	str	r2, [sp, #56]	; 0x38
  4020e4:	442b      	add	r3, r5
  4020e6:	46da      	mov	sl, fp
  4020e8:	9302      	str	r3, [sp, #8]
  4020ea:	7823      	ldrb	r3, [r4, #0]
  4020ec:	2b00      	cmp	r3, #0
  4020ee:	f000 843e 	beq.w	40296e <_vfiprintf_r+0x92e>
  4020f2:	2100      	movs	r1, #0
  4020f4:	f04f 0300 	mov.w	r3, #0
  4020f8:	f04f 32ff 	mov.w	r2, #4294967295
  4020fc:	f88d 302f 	strb.w	r3, [sp, #47]	; 0x2f
  402100:	f104 0801 	add.w	r8, r4, #1
  402104:	7863      	ldrb	r3, [r4, #1]
  402106:	9201      	str	r2, [sp, #4]
  402108:	4608      	mov	r0, r1
  40210a:	460e      	mov	r6, r1
  40210c:	460c      	mov	r4, r1
  40210e:	f108 0801 	add.w	r8, r8, #1
  402112:	f1a3 0220 	sub.w	r2, r3, #32
  402116:	2a58      	cmp	r2, #88	; 0x58
  402118:	f200 8393 	bhi.w	402842 <_vfiprintf_r+0x802>
  40211c:	e8df f012 	tbh	[pc, r2, lsl #1]
  402120:	03910346 	.word	0x03910346
  402124:	034e0391 	.word	0x034e0391
  402128:	03910391 	.word	0x03910391
  40212c:	03910391 	.word	0x03910391
  402130:	03910391 	.word	0x03910391
  402134:	02670289 	.word	0x02670289
  402138:	00800391 	.word	0x00800391
  40213c:	0391026c 	.word	0x0391026c
  402140:	025901c6 	.word	0x025901c6
  402144:	02590259 	.word	0x02590259
  402148:	02590259 	.word	0x02590259
  40214c:	02590259 	.word	0x02590259
  402150:	02590259 	.word	0x02590259
  402154:	03910391 	.word	0x03910391
  402158:	03910391 	.word	0x03910391
  40215c:	03910391 	.word	0x03910391
  402160:	03910391 	.word	0x03910391
  402164:	03910391 	.word	0x03910391
  402168:	039101cb 	.word	0x039101cb
  40216c:	03910391 	.word	0x03910391
  402170:	03910391 	.word	0x03910391
  402174:	03910391 	.word	0x03910391
  402178:	03910391 	.word	0x03910391
  40217c:	02140391 	.word	0x02140391
  402180:	03910391 	.word	0x03910391
  402184:	03910391 	.word	0x03910391
  402188:	02ee0391 	.word	0x02ee0391
  40218c:	03910391 	.word	0x03910391
  402190:	03910311 	.word	0x03910311
  402194:	03910391 	.word	0x03910391
  402198:	03910391 	.word	0x03910391
  40219c:	03910391 	.word	0x03910391
  4021a0:	03910391 	.word	0x03910391
  4021a4:	03340391 	.word	0x03340391
  4021a8:	0391038a 	.word	0x0391038a
  4021ac:	03910391 	.word	0x03910391
  4021b0:	038a0367 	.word	0x038a0367
  4021b4:	03910391 	.word	0x03910391
  4021b8:	0391036c 	.word	0x0391036c
  4021bc:	02950379 	.word	0x02950379
  4021c0:	02e90085 	.word	0x02e90085
  4021c4:	029b0391 	.word	0x029b0391
  4021c8:	02ba0391 	.word	0x02ba0391
  4021cc:	03910391 	.word	0x03910391
  4021d0:	0353      	.short	0x0353
  4021d2:	f10a 0a08 	add.w	sl, sl, #8
  4021d6:	9b02      	ldr	r3, [sp, #8]
  4021d8:	442b      	add	r3, r5
  4021da:	9302      	str	r3, [sp, #8]
  4021dc:	e785      	b.n	4020ea <_vfiprintf_r+0xaa>
  4021de:	9900      	ldr	r1, [sp, #0]
  4021e0:	9805      	ldr	r0, [sp, #20]
  4021e2:	f000 fe61 	bl	402ea8 <__swsetup_r>
  4021e6:	2800      	cmp	r0, #0
  4021e8:	f040 8558 	bne.w	402c9c <_vfiprintf_r+0xc5c>
  4021ec:	9b00      	ldr	r3, [sp, #0]
  4021ee:	899a      	ldrh	r2, [r3, #12]
  4021f0:	f002 021a 	and.w	r2, r2, #26
  4021f4:	2a0a      	cmp	r2, #10
  4021f6:	f47f af4b 	bne.w	402090 <_vfiprintf_r+0x50>
  4021fa:	9900      	ldr	r1, [sp, #0]
  4021fc:	f9b1 300e 	ldrsh.w	r3, [r1, #14]
  402200:	2b00      	cmp	r3, #0
  402202:	f6ff af45 	blt.w	402090 <_vfiprintf_r+0x50>
  402206:	4623      	mov	r3, r4
  402208:	4642      	mov	r2, r8
  40220a:	9805      	ldr	r0, [sp, #20]
  40220c:	f000 fe16 	bl	402e3c <__sbprintf>
  402210:	b02b      	add	sp, #172	; 0xac
  402212:	e8bd 8ff0 	ldmia.w	sp!, {r4, r5, r6, r7, r8, r9, sl, fp, pc}
  402216:	f000 fff3 	bl	403200 <__sinit>
  40221a:	e71e      	b.n	40205a <_vfiprintf_r+0x1a>
  40221c:	4264      	negs	r4, r4
  40221e:	9304      	str	r3, [sp, #16]
  402220:	f046 0604 	orr.w	r6, r6, #4
  402224:	f898 3000 	ldrb.w	r3, [r8]
  402228:	e771      	b.n	40210e <_vfiprintf_r+0xce>
  40222a:	2130      	movs	r1, #48	; 0x30
  40222c:	9804      	ldr	r0, [sp, #16]
  40222e:	f88d 1030 	strb.w	r1, [sp, #48]	; 0x30
  402232:	9901      	ldr	r1, [sp, #4]
  402234:	9406      	str	r4, [sp, #24]
  402236:	f04f 0300 	mov.w	r3, #0
  40223a:	2278      	movs	r2, #120	; 0x78
  40223c:	f88d 302f 	strb.w	r3, [sp, #47]	; 0x2f
  402240:	2900      	cmp	r1, #0
  402242:	4603      	mov	r3, r0
  402244:	f88d 2031 	strb.w	r2, [sp, #49]	; 0x31
  402248:	6804      	ldr	r4, [r0, #0]
  40224a:	f103 0304 	add.w	r3, r3, #4
  40224e:	f04f 0500 	mov.w	r5, #0
  402252:	f046 0202 	orr.w	r2, r6, #2
  402256:	f2c0 8525 	blt.w	402ca4 <_vfiprintf_r+0xc64>
  40225a:	f026 0680 	bic.w	r6, r6, #128	; 0x80
  40225e:	ea54 0205 	orrs.w	r2, r4, r5
  402262:	f046 0602 	orr.w	r6, r6, #2
  402266:	9304      	str	r3, [sp, #16]
  402268:	f040 84bf 	bne.w	402bea <_vfiprintf_r+0xbaa>
  40226c:	48b3      	ldr	r0, [pc, #716]	; (40253c <_vfiprintf_r+0x4fc>)
  40226e:	9b01      	ldr	r3, [sp, #4]
  402270:	2b00      	cmp	r3, #0
  402272:	f040 841c 	bne.w	402aae <_vfiprintf_r+0xa6e>
  402276:	4699      	mov	r9, r3
  402278:	2300      	movs	r3, #0
  40227a:	9301      	str	r3, [sp, #4]
  40227c:	9303      	str	r3, [sp, #12]
  40227e:	465f      	mov	r7, fp
  402280:	9b01      	ldr	r3, [sp, #4]
  402282:	9a03      	ldr	r2, [sp, #12]
  402284:	4293      	cmp	r3, r2
  402286:	bfb8      	it	lt
  402288:	4613      	movlt	r3, r2
  40228a:	461d      	mov	r5, r3
  40228c:	f1b9 0f00 	cmp.w	r9, #0
  402290:	d000      	beq.n	402294 <_vfiprintf_r+0x254>
  402292:	3501      	adds	r5, #1
  402294:	f016 0302 	ands.w	r3, r6, #2
  402298:	9307      	str	r3, [sp, #28]
  40229a:	bf18      	it	ne
  40229c:	3502      	addne	r5, #2
  40229e:	f016 0384 	ands.w	r3, r6, #132	; 0x84
  4022a2:	9308      	str	r3, [sp, #32]
  4022a4:	f040 82f1 	bne.w	40288a <_vfiprintf_r+0x84a>
  4022a8:	9b06      	ldr	r3, [sp, #24]
  4022aa:	1b5c      	subs	r4, r3, r5
  4022ac:	2c00      	cmp	r4, #0
  4022ae:	f340 82ec 	ble.w	40288a <_vfiprintf_r+0x84a>
  4022b2:	2c10      	cmp	r4, #16
  4022b4:	f340 8556 	ble.w	402d64 <_vfiprintf_r+0xd24>
  4022b8:	f8df 9284 	ldr.w	r9, [pc, #644]	; 402540 <_vfiprintf_r+0x500>
  4022bc:	f8dd e038 	ldr.w	lr, [sp, #56]	; 0x38
  4022c0:	9a0f      	ldr	r2, [sp, #60]	; 0x3c
  4022c2:	46d4      	mov	ip, sl
  4022c4:	2310      	movs	r3, #16
  4022c6:	46c2      	mov	sl, r8
  4022c8:	4670      	mov	r0, lr
  4022ca:	46a8      	mov	r8, r5
  4022cc:	464d      	mov	r5, r9
  4022ce:	f8dd 9014 	ldr.w	r9, [sp, #20]
  4022d2:	e007      	b.n	4022e4 <_vfiprintf_r+0x2a4>
  4022d4:	f100 0e02 	add.w	lr, r0, #2
  4022d8:	f10c 0c08 	add.w	ip, ip, #8
  4022dc:	4608      	mov	r0, r1
  4022de:	3c10      	subs	r4, #16
  4022e0:	2c10      	cmp	r4, #16
  4022e2:	dd13      	ble.n	40230c <_vfiprintf_r+0x2cc>
  4022e4:	1c41      	adds	r1, r0, #1
  4022e6:	3210      	adds	r2, #16
  4022e8:	2907      	cmp	r1, #7
  4022ea:	920f      	str	r2, [sp, #60]	; 0x3c
  4022ec:	f8cc 5000 	str.w	r5, [ip]
  4022f0:	f8cc 3004 	str.w	r3, [ip, #4]
  4022f4:	910e      	str	r1, [sp, #56]	; 0x38
  4022f6:	dded      	ble.n	4022d4 <_vfiprintf_r+0x294>
  4022f8:	2a00      	cmp	r2, #0
  4022fa:	f040 82b7 	bne.w	40286c <_vfiprintf_r+0x82c>
  4022fe:	3c10      	subs	r4, #16
  402300:	2c10      	cmp	r4, #16
  402302:	4610      	mov	r0, r2
  402304:	f04f 0e01 	mov.w	lr, #1
  402308:	46dc      	mov	ip, fp
  40230a:	dceb      	bgt.n	4022e4 <_vfiprintf_r+0x2a4>
  40230c:	46a9      	mov	r9, r5
  40230e:	4670      	mov	r0, lr
  402310:	4645      	mov	r5, r8
  402312:	46d0      	mov	r8, sl
  402314:	46e2      	mov	sl, ip
  402316:	4422      	add	r2, r4
  402318:	2807      	cmp	r0, #7
  40231a:	920f      	str	r2, [sp, #60]	; 0x3c
  40231c:	f8ca 9000 	str.w	r9, [sl]
  402320:	f8ca 4004 	str.w	r4, [sl, #4]
  402324:	900e      	str	r0, [sp, #56]	; 0x38
  402326:	f300 8375 	bgt.w	402a14 <_vfiprintf_r+0x9d4>
  40232a:	f89d 302f 	ldrb.w	r3, [sp, #47]	; 0x2f
  40232e:	f10a 0a08 	add.w	sl, sl, #8
  402332:	f100 0e01 	add.w	lr, r0, #1
  402336:	2b00      	cmp	r3, #0
  402338:	f040 82b0 	bne.w	40289c <_vfiprintf_r+0x85c>
  40233c:	9b07      	ldr	r3, [sp, #28]
  40233e:	2b00      	cmp	r3, #0
  402340:	f000 82c3 	beq.w	4028ca <_vfiprintf_r+0x88a>
  402344:	3202      	adds	r2, #2
  402346:	a90c      	add	r1, sp, #48	; 0x30
  402348:	2302      	movs	r3, #2
  40234a:	f1be 0f07 	cmp.w	lr, #7
  40234e:	920f      	str	r2, [sp, #60]	; 0x3c
  402350:	f8cd e038 	str.w	lr, [sp, #56]	; 0x38
  402354:	e88a 000a 	stmia.w	sl, {r1, r3}
  402358:	f340 8378 	ble.w	402a4c <_vfiprintf_r+0xa0c>
  40235c:	2a00      	cmp	r2, #0
  40235e:	f040 840a 	bne.w	402b76 <_vfiprintf_r+0xb36>
  402362:	9b08      	ldr	r3, [sp, #32]
  402364:	2b80      	cmp	r3, #128	; 0x80
  402366:	f04f 0e01 	mov.w	lr, #1
  40236a:	4610      	mov	r0, r2
  40236c:	46da      	mov	sl, fp
  40236e:	f040 82b0 	bne.w	4028d2 <_vfiprintf_r+0x892>
  402372:	9b06      	ldr	r3, [sp, #24]
  402374:	1b5c      	subs	r4, r3, r5
  402376:	2c00      	cmp	r4, #0
  402378:	f340 82ab 	ble.w	4028d2 <_vfiprintf_r+0x892>
  40237c:	2c10      	cmp	r4, #16
  40237e:	f8df 91c4 	ldr.w	r9, [pc, #452]	; 402544 <_vfiprintf_r+0x504>
  402382:	f340 850b 	ble.w	402d9c <_vfiprintf_r+0xd5c>
  402386:	46d6      	mov	lr, sl
  402388:	2310      	movs	r3, #16
  40238a:	46c2      	mov	sl, r8
  40238c:	46a8      	mov	r8, r5
  40238e:	464d      	mov	r5, r9
  402390:	f8dd 9014 	ldr.w	r9, [sp, #20]
  402394:	e007      	b.n	4023a6 <_vfiprintf_r+0x366>
  402396:	f100 0c02 	add.w	ip, r0, #2
  40239a:	f10e 0e08 	add.w	lr, lr, #8
  40239e:	4608      	mov	r0, r1
  4023a0:	3c10      	subs	r4, #16
  4023a2:	2c10      	cmp	r4, #16
  4023a4:	dd13      	ble.n	4023ce <_vfiprintf_r+0x38e>
  4023a6:	1c41      	adds	r1, r0, #1
  4023a8:	3210      	adds	r2, #16
  4023aa:	2907      	cmp	r1, #7
  4023ac:	920f      	str	r2, [sp, #60]	; 0x3c
  4023ae:	f8ce 5000 	str.w	r5, [lr]
  4023b2:	f8ce 3004 	str.w	r3, [lr, #4]
  4023b6:	910e      	str	r1, [sp, #56]	; 0x38
  4023b8:	dded      	ble.n	402396 <_vfiprintf_r+0x356>
  4023ba:	2a00      	cmp	r2, #0
  4023bc:	f040 8315 	bne.w	4029ea <_vfiprintf_r+0x9aa>
  4023c0:	3c10      	subs	r4, #16
  4023c2:	2c10      	cmp	r4, #16
  4023c4:	f04f 0c01 	mov.w	ip, #1
  4023c8:	4610      	mov	r0, r2
  4023ca:	46de      	mov	lr, fp
  4023cc:	dceb      	bgt.n	4023a6 <_vfiprintf_r+0x366>
  4023ce:	46a9      	mov	r9, r5
  4023d0:	4645      	mov	r5, r8
  4023d2:	46d0      	mov	r8, sl
  4023d4:	46f2      	mov	sl, lr
  4023d6:	4422      	add	r2, r4
  4023d8:	f1bc 0f07 	cmp.w	ip, #7
  4023dc:	920f      	str	r2, [sp, #60]	; 0x3c
  4023de:	f8ca 9000 	str.w	r9, [sl]
  4023e2:	f8ca 4004 	str.w	r4, [sl, #4]
  4023e6:	f8cd c038 	str.w	ip, [sp, #56]	; 0x38
  4023ea:	f300 83d2 	bgt.w	402b92 <_vfiprintf_r+0xb52>
  4023ee:	9b01      	ldr	r3, [sp, #4]
  4023f0:	9903      	ldr	r1, [sp, #12]
  4023f2:	1a5c      	subs	r4, r3, r1
  4023f4:	2c00      	cmp	r4, #0
  4023f6:	f10a 0a08 	add.w	sl, sl, #8
  4023fa:	f10c 0e01 	add.w	lr, ip, #1
  4023fe:	4660      	mov	r0, ip
  402400:	f300 826d 	bgt.w	4028de <_vfiprintf_r+0x89e>
  402404:	9903      	ldr	r1, [sp, #12]
  402406:	f8ca 7000 	str.w	r7, [sl]
  40240a:	440a      	add	r2, r1
  40240c:	f1be 0f07 	cmp.w	lr, #7
  402410:	920f      	str	r2, [sp, #60]	; 0x3c
  402412:	f8ca 1004 	str.w	r1, [sl, #4]
  402416:	f8cd e038 	str.w	lr, [sp, #56]	; 0x38
  40241a:	f340 82ce 	ble.w	4029ba <_vfiprintf_r+0x97a>
  40241e:	2a00      	cmp	r2, #0
  402420:	f040 833a 	bne.w	402a98 <_vfiprintf_r+0xa58>
  402424:	0770      	lsls	r0, r6, #29
  402426:	920e      	str	r2, [sp, #56]	; 0x38
  402428:	d538      	bpl.n	40249c <_vfiprintf_r+0x45c>
  40242a:	9b06      	ldr	r3, [sp, #24]
  40242c:	1b5c      	subs	r4, r3, r5
  40242e:	2c00      	cmp	r4, #0
  402430:	dd34      	ble.n	40249c <_vfiprintf_r+0x45c>
  402432:	46da      	mov	sl, fp
  402434:	2c10      	cmp	r4, #16
  402436:	f340 84ab 	ble.w	402d90 <_vfiprintf_r+0xd50>
  40243a:	f8df 9104 	ldr.w	r9, [pc, #260]	; 402540 <_vfiprintf_r+0x500>
  40243e:	990e      	ldr	r1, [sp, #56]	; 0x38
  402440:	464f      	mov	r7, r9
  402442:	2610      	movs	r6, #16
  402444:	f8dd 9014 	ldr.w	r9, [sp, #20]
  402448:	e006      	b.n	402458 <_vfiprintf_r+0x418>
  40244a:	1c88      	adds	r0, r1, #2
  40244c:	f10a 0a08 	add.w	sl, sl, #8
  402450:	4619      	mov	r1, r3
  402452:	3c10      	subs	r4, #16
  402454:	2c10      	cmp	r4, #16
  402456:	dd13      	ble.n	402480 <_vfiprintf_r+0x440>
  402458:	1c4b      	adds	r3, r1, #1
  40245a:	3210      	adds	r2, #16
  40245c:	2b07      	cmp	r3, #7
  40245e:	920f      	str	r2, [sp, #60]	; 0x3c
  402460:	f8ca 7000 	str.w	r7, [sl]
  402464:	f8ca 6004 	str.w	r6, [sl, #4]
  402468:	930e      	str	r3, [sp, #56]	; 0x38
  40246a:	ddee      	ble.n	40244a <_vfiprintf_r+0x40a>
  40246c:	2a00      	cmp	r2, #0
  40246e:	f040 828e 	bne.w	40298e <_vfiprintf_r+0x94e>
  402472:	3c10      	subs	r4, #16
  402474:	2c10      	cmp	r4, #16
  402476:	f04f 0001 	mov.w	r0, #1
  40247a:	4611      	mov	r1, r2
  40247c:	46da      	mov	sl, fp
  40247e:	dceb      	bgt.n	402458 <_vfiprintf_r+0x418>
  402480:	46b9      	mov	r9, r7
  402482:	4422      	add	r2, r4
  402484:	2807      	cmp	r0, #7
  402486:	920f      	str	r2, [sp, #60]	; 0x3c
  402488:	f8ca 9000 	str.w	r9, [sl]
  40248c:	f8ca 4004 	str.w	r4, [sl, #4]
  402490:	900e      	str	r0, [sp, #56]	; 0x38
  402492:	f340 829b 	ble.w	4029cc <_vfiprintf_r+0x98c>
  402496:	2a00      	cmp	r2, #0
  402498:	f040 8425 	bne.w	402ce6 <_vfiprintf_r+0xca6>
  40249c:	9b02      	ldr	r3, [sp, #8]
  40249e:	9a06      	ldr	r2, [sp, #24]
  4024a0:	42aa      	cmp	r2, r5
  4024a2:	bfac      	ite	ge
  4024a4:	189b      	addge	r3, r3, r2
  4024a6:	195b      	addlt	r3, r3, r5
  4024a8:	9302      	str	r3, [sp, #8]
  4024aa:	e299      	b.n	4029e0 <_vfiprintf_r+0x9a0>
  4024ac:	f046 0680 	orr.w	r6, r6, #128	; 0x80
  4024b0:	f898 3000 	ldrb.w	r3, [r8]
  4024b4:	e62b      	b.n	40210e <_vfiprintf_r+0xce>
  4024b6:	9406      	str	r4, [sp, #24]
  4024b8:	2900      	cmp	r1, #0
  4024ba:	f040 84af 	bne.w	402e1c <_vfiprintf_r+0xddc>
  4024be:	f046 0610 	orr.w	r6, r6, #16
  4024c2:	06b3      	lsls	r3, r6, #26
  4024c4:	f140 8312 	bpl.w	402aec <_vfiprintf_r+0xaac>
  4024c8:	9904      	ldr	r1, [sp, #16]
  4024ca:	3107      	adds	r1, #7
  4024cc:	f021 0107 	bic.w	r1, r1, #7
  4024d0:	e9d1 2300 	ldrd	r2, r3, [r1]
  4024d4:	3108      	adds	r1, #8
  4024d6:	9104      	str	r1, [sp, #16]
  4024d8:	4614      	mov	r4, r2
  4024da:	461d      	mov	r5, r3
  4024dc:	2a00      	cmp	r2, #0
  4024de:	f173 0300 	sbcs.w	r3, r3, #0
  4024e2:	f2c0 8386 	blt.w	402bf2 <_vfiprintf_r+0xbb2>
  4024e6:	9b01      	ldr	r3, [sp, #4]
  4024e8:	f89d 902f 	ldrb.w	r9, [sp, #47]	; 0x2f
  4024ec:	2b00      	cmp	r3, #0
  4024ee:	f2c0 831a 	blt.w	402b26 <_vfiprintf_r+0xae6>
  4024f2:	ea54 0305 	orrs.w	r3, r4, r5
  4024f6:	f026 0680 	bic.w	r6, r6, #128	; 0x80
  4024fa:	f000 80ed 	beq.w	4026d8 <_vfiprintf_r+0x698>
  4024fe:	2d00      	cmp	r5, #0
  402500:	bf08      	it	eq
  402502:	2c0a      	cmpeq	r4, #10
  402504:	f0c0 80ed 	bcc.w	4026e2 <_vfiprintf_r+0x6a2>
  402508:	465f      	mov	r7, fp
  40250a:	4620      	mov	r0, r4
  40250c:	4629      	mov	r1, r5
  40250e:	220a      	movs	r2, #10
  402510:	2300      	movs	r3, #0
  402512:	f002 fa1f 	bl	404954 <__aeabi_uldivmod>
  402516:	3230      	adds	r2, #48	; 0x30
  402518:	f807 2d01 	strb.w	r2, [r7, #-1]!
  40251c:	4620      	mov	r0, r4
  40251e:	4629      	mov	r1, r5
  402520:	2300      	movs	r3, #0
  402522:	220a      	movs	r2, #10
  402524:	f002 fa16 	bl	404954 <__aeabi_uldivmod>
  402528:	4604      	mov	r4, r0
  40252a:	460d      	mov	r5, r1
  40252c:	ea54 0305 	orrs.w	r3, r4, r5
  402530:	d1eb      	bne.n	40250a <_vfiprintf_r+0x4ca>
  402532:	ebc7 030b 	rsb	r3, r7, fp
  402536:	9303      	str	r3, [sp, #12]
  402538:	e6a2      	b.n	402280 <_vfiprintf_r+0x240>
  40253a:	bf00      	nop
  40253c:	0040c5f0 	.word	0x0040c5f0
  402540:	0040c60c 	.word	0x0040c60c
  402544:	0040c5cc 	.word	0x0040c5cc
  402548:	9406      	str	r4, [sp, #24]
  40254a:	2900      	cmp	r1, #0
  40254c:	f040 8462 	bne.w	402e14 <_vfiprintf_r+0xdd4>
  402550:	f046 0610 	orr.w	r6, r6, #16
  402554:	f016 0320 	ands.w	r3, r6, #32
  402558:	f000 82ae 	beq.w	402ab8 <_vfiprintf_r+0xa78>
  40255c:	9b04      	ldr	r3, [sp, #16]
  40255e:	3307      	adds	r3, #7
  402560:	f023 0307 	bic.w	r3, r3, #7
  402564:	f04f 0200 	mov.w	r2, #0
  402568:	f88d 202f 	strb.w	r2, [sp, #47]	; 0x2f
  40256c:	e9d3 4500 	ldrd	r4, r5, [r3]
  402570:	f103 0208 	add.w	r2, r3, #8
  402574:	9b01      	ldr	r3, [sp, #4]
  402576:	9204      	str	r2, [sp, #16]
  402578:	2b00      	cmp	r3, #0
  40257a:	f2c0 8174 	blt.w	402866 <_vfiprintf_r+0x826>
  40257e:	ea54 0305 	orrs.w	r3, r4, r5
  402582:	f026 0680 	bic.w	r6, r6, #128	; 0x80
  402586:	f040 816e 	bne.w	402866 <_vfiprintf_r+0x826>
  40258a:	9b01      	ldr	r3, [sp, #4]
  40258c:	2b00      	cmp	r3, #0
  40258e:	f000 8430 	beq.w	402df2 <_vfiprintf_r+0xdb2>
  402592:	f04f 0900 	mov.w	r9, #0
  402596:	2400      	movs	r4, #0
  402598:	2500      	movs	r5, #0
  40259a:	465f      	mov	r7, fp
  40259c:	08e2      	lsrs	r2, r4, #3
  40259e:	ea42 7245 	orr.w	r2, r2, r5, lsl #29
  4025a2:	08e9      	lsrs	r1, r5, #3
  4025a4:	f004 0307 	and.w	r3, r4, #7
  4025a8:	460d      	mov	r5, r1
  4025aa:	4614      	mov	r4, r2
  4025ac:	3330      	adds	r3, #48	; 0x30
  4025ae:	ea54 0205 	orrs.w	r2, r4, r5
  4025b2:	f807 3d01 	strb.w	r3, [r7, #-1]!
  4025b6:	d1f1      	bne.n	40259c <_vfiprintf_r+0x55c>
  4025b8:	07f4      	lsls	r4, r6, #31
  4025ba:	d5ba      	bpl.n	402532 <_vfiprintf_r+0x4f2>
  4025bc:	2b30      	cmp	r3, #48	; 0x30
  4025be:	d0b8      	beq.n	402532 <_vfiprintf_r+0x4f2>
  4025c0:	2230      	movs	r2, #48	; 0x30
  4025c2:	1e7b      	subs	r3, r7, #1
  4025c4:	f807 2c01 	strb.w	r2, [r7, #-1]
  4025c8:	ebc3 020b 	rsb	r2, r3, fp
  4025cc:	9203      	str	r2, [sp, #12]
  4025ce:	461f      	mov	r7, r3
  4025d0:	e656      	b.n	402280 <_vfiprintf_r+0x240>
  4025d2:	f1a3 0230 	sub.w	r2, r3, #48	; 0x30
  4025d6:	2400      	movs	r4, #0
  4025d8:	f818 3b01 	ldrb.w	r3, [r8], #1
  4025dc:	eb04 0484 	add.w	r4, r4, r4, lsl #2
  4025e0:	eb02 0444 	add.w	r4, r2, r4, lsl #1
  4025e4:	f1a3 0230 	sub.w	r2, r3, #48	; 0x30
  4025e8:	2a09      	cmp	r2, #9
  4025ea:	d9f5      	bls.n	4025d8 <_vfiprintf_r+0x598>
  4025ec:	e591      	b.n	402112 <_vfiprintf_r+0xd2>
  4025ee:	f898 3000 	ldrb.w	r3, [r8]
  4025f2:	2101      	movs	r1, #1
  4025f4:	202b      	movs	r0, #43	; 0x2b
  4025f6:	e58a      	b.n	40210e <_vfiprintf_r+0xce>
  4025f8:	f898 3000 	ldrb.w	r3, [r8]
  4025fc:	2b2a      	cmp	r3, #42	; 0x2a
  4025fe:	f108 0501 	add.w	r5, r8, #1
  402602:	f000 83dd 	beq.w	402dc0 <_vfiprintf_r+0xd80>
  402606:	f1a3 0230 	sub.w	r2, r3, #48	; 0x30
  40260a:	2a09      	cmp	r2, #9
  40260c:	46a8      	mov	r8, r5
  40260e:	bf98      	it	ls
  402610:	2500      	movls	r5, #0
  402612:	f200 83ce 	bhi.w	402db2 <_vfiprintf_r+0xd72>
  402616:	f818 3b01 	ldrb.w	r3, [r8], #1
  40261a:	eb05 0585 	add.w	r5, r5, r5, lsl #2
  40261e:	eb02 0545 	add.w	r5, r2, r5, lsl #1
  402622:	f1a3 0230 	sub.w	r2, r3, #48	; 0x30
  402626:	2a09      	cmp	r2, #9
  402628:	d9f5      	bls.n	402616 <_vfiprintf_r+0x5d6>
  40262a:	ea45 72e5 	orr.w	r2, r5, r5, asr #31
  40262e:	9201      	str	r2, [sp, #4]
  402630:	e56f      	b.n	402112 <_vfiprintf_r+0xd2>
  402632:	9a04      	ldr	r2, [sp, #16]
  402634:	6814      	ldr	r4, [r2, #0]
  402636:	4613      	mov	r3, r2
  402638:	2c00      	cmp	r4, #0
  40263a:	f103 0304 	add.w	r3, r3, #4
  40263e:	f6ff aded 	blt.w	40221c <_vfiprintf_r+0x1dc>
  402642:	9304      	str	r3, [sp, #16]
  402644:	f898 3000 	ldrb.w	r3, [r8]
  402648:	e561      	b.n	40210e <_vfiprintf_r+0xce>
  40264a:	9406      	str	r4, [sp, #24]
  40264c:	2900      	cmp	r1, #0
  40264e:	d081      	beq.n	402554 <_vfiprintf_r+0x514>
  402650:	f88d 002f 	strb.w	r0, [sp, #47]	; 0x2f
  402654:	e77e      	b.n	402554 <_vfiprintf_r+0x514>
  402656:	9a04      	ldr	r2, [sp, #16]
  402658:	9406      	str	r4, [sp, #24]
  40265a:	6817      	ldr	r7, [r2, #0]
  40265c:	f04f 0300 	mov.w	r3, #0
  402660:	f88d 302f 	strb.w	r3, [sp, #47]	; 0x2f
  402664:	1d14      	adds	r4, r2, #4
  402666:	9b01      	ldr	r3, [sp, #4]
  402668:	2f00      	cmp	r7, #0
  40266a:	f000 8386 	beq.w	402d7a <_vfiprintf_r+0xd3a>
  40266e:	2b00      	cmp	r3, #0
  402670:	f2c0 835f 	blt.w	402d32 <_vfiprintf_r+0xcf2>
  402674:	461a      	mov	r2, r3
  402676:	2100      	movs	r1, #0
  402678:	4638      	mov	r0, r7
  40267a:	f001 fc61 	bl	403f40 <memchr>
  40267e:	2800      	cmp	r0, #0
  402680:	f000 838f 	beq.w	402da2 <_vfiprintf_r+0xd62>
  402684:	1bc3      	subs	r3, r0, r7
  402686:	9303      	str	r3, [sp, #12]
  402688:	2300      	movs	r3, #0
  40268a:	9404      	str	r4, [sp, #16]
  40268c:	f89d 902f 	ldrb.w	r9, [sp, #47]	; 0x2f
  402690:	9301      	str	r3, [sp, #4]
  402692:	e5f5      	b.n	402280 <_vfiprintf_r+0x240>
  402694:	9406      	str	r4, [sp, #24]
  402696:	2900      	cmp	r1, #0
  402698:	f040 83b9 	bne.w	402e0e <_vfiprintf_r+0xdce>
  40269c:	f016 0920 	ands.w	r9, r6, #32
  4026a0:	d135      	bne.n	40270e <_vfiprintf_r+0x6ce>
  4026a2:	f016 0310 	ands.w	r3, r6, #16
  4026a6:	d103      	bne.n	4026b0 <_vfiprintf_r+0x670>
  4026a8:	f016 0940 	ands.w	r9, r6, #64	; 0x40
  4026ac:	f040 832a 	bne.w	402d04 <_vfiprintf_r+0xcc4>
  4026b0:	9a04      	ldr	r2, [sp, #16]
  4026b2:	4613      	mov	r3, r2
  4026b4:	6814      	ldr	r4, [r2, #0]
  4026b6:	9a01      	ldr	r2, [sp, #4]
  4026b8:	f88d 902f 	strb.w	r9, [sp, #47]	; 0x2f
  4026bc:	2a00      	cmp	r2, #0
  4026be:	f103 0304 	add.w	r3, r3, #4
  4026c2:	f04f 0500 	mov.w	r5, #0
  4026c6:	f2c0 8332 	blt.w	402d2e <_vfiprintf_r+0xcee>
  4026ca:	ea54 0205 	orrs.w	r2, r4, r5
  4026ce:	f026 0680 	bic.w	r6, r6, #128	; 0x80
  4026d2:	9304      	str	r3, [sp, #16]
  4026d4:	f47f af13 	bne.w	4024fe <_vfiprintf_r+0x4be>
  4026d8:	9b01      	ldr	r3, [sp, #4]
  4026da:	2b00      	cmp	r3, #0
  4026dc:	f43f adcc 	beq.w	402278 <_vfiprintf_r+0x238>
  4026e0:	2400      	movs	r4, #0
  4026e2:	af2a      	add	r7, sp, #168	; 0xa8
  4026e4:	3430      	adds	r4, #48	; 0x30
  4026e6:	f807 4d41 	strb.w	r4, [r7, #-65]!
  4026ea:	ebc7 030b 	rsb	r3, r7, fp
  4026ee:	9303      	str	r3, [sp, #12]
  4026f0:	e5c6      	b.n	402280 <_vfiprintf_r+0x240>
  4026f2:	f046 0620 	orr.w	r6, r6, #32
  4026f6:	f898 3000 	ldrb.w	r3, [r8]
  4026fa:	e508      	b.n	40210e <_vfiprintf_r+0xce>
  4026fc:	9406      	str	r4, [sp, #24]
  4026fe:	2900      	cmp	r1, #0
  402700:	f040 836e 	bne.w	402de0 <_vfiprintf_r+0xda0>
  402704:	f046 0610 	orr.w	r6, r6, #16
  402708:	f016 0920 	ands.w	r9, r6, #32
  40270c:	d0c9      	beq.n	4026a2 <_vfiprintf_r+0x662>
  40270e:	9b04      	ldr	r3, [sp, #16]
  402710:	3307      	adds	r3, #7
  402712:	f023 0307 	bic.w	r3, r3, #7
  402716:	f04f 0200 	mov.w	r2, #0
  40271a:	f88d 202f 	strb.w	r2, [sp, #47]	; 0x2f
  40271e:	e9d3 4500 	ldrd	r4, r5, [r3]
  402722:	f103 0208 	add.w	r2, r3, #8
  402726:	9b01      	ldr	r3, [sp, #4]
  402728:	9204      	str	r2, [sp, #16]
  40272a:	2b00      	cmp	r3, #0
  40272c:	f2c0 81f9 	blt.w	402b22 <_vfiprintf_r+0xae2>
  402730:	ea54 0305 	orrs.w	r3, r4, r5
  402734:	f026 0680 	bic.w	r6, r6, #128	; 0x80
  402738:	f04f 0900 	mov.w	r9, #0
  40273c:	f47f aedf 	bne.w	4024fe <_vfiprintf_r+0x4be>
  402740:	e7ca      	b.n	4026d8 <_vfiprintf_r+0x698>
  402742:	9406      	str	r4, [sp, #24]
  402744:	2900      	cmp	r1, #0
  402746:	f040 8351 	bne.w	402dec <_vfiprintf_r+0xdac>
  40274a:	06b2      	lsls	r2, r6, #26
  40274c:	48ae      	ldr	r0, [pc, #696]	; (402a08 <_vfiprintf_r+0x9c8>)
  40274e:	d541      	bpl.n	4027d4 <_vfiprintf_r+0x794>
  402750:	9a04      	ldr	r2, [sp, #16]
  402752:	3207      	adds	r2, #7
  402754:	f022 0207 	bic.w	r2, r2, #7
  402758:	e9d2 4500 	ldrd	r4, r5, [r2]
  40275c:	f102 0108 	add.w	r1, r2, #8
  402760:	9104      	str	r1, [sp, #16]
  402762:	f016 0901 	ands.w	r9, r6, #1
  402766:	f000 8177 	beq.w	402a58 <_vfiprintf_r+0xa18>
  40276a:	ea54 0205 	orrs.w	r2, r4, r5
  40276e:	f040 8226 	bne.w	402bbe <_vfiprintf_r+0xb7e>
  402772:	f04f 0300 	mov.w	r3, #0
  402776:	f88d 302f 	strb.w	r3, [sp, #47]	; 0x2f
  40277a:	9b01      	ldr	r3, [sp, #4]
  40277c:	2b00      	cmp	r3, #0
  40277e:	f2c0 8196 	blt.w	402aae <_vfiprintf_r+0xa6e>
  402782:	f026 0680 	bic.w	r6, r6, #128	; 0x80
  402786:	e572      	b.n	40226e <_vfiprintf_r+0x22e>
  402788:	9a04      	ldr	r2, [sp, #16]
  40278a:	9406      	str	r4, [sp, #24]
  40278c:	6813      	ldr	r3, [r2, #0]
  40278e:	f88d 3040 	strb.w	r3, [sp, #64]	; 0x40
  402792:	4613      	mov	r3, r2
  402794:	f04f 0100 	mov.w	r1, #0
  402798:	2501      	movs	r5, #1
  40279a:	3304      	adds	r3, #4
  40279c:	f88d 102f 	strb.w	r1, [sp, #47]	; 0x2f
  4027a0:	9304      	str	r3, [sp, #16]
  4027a2:	9503      	str	r5, [sp, #12]
  4027a4:	af10      	add	r7, sp, #64	; 0x40
  4027a6:	2300      	movs	r3, #0
  4027a8:	9301      	str	r3, [sp, #4]
  4027aa:	e573      	b.n	402294 <_vfiprintf_r+0x254>
  4027ac:	f898 3000 	ldrb.w	r3, [r8]
  4027b0:	2800      	cmp	r0, #0
  4027b2:	f47f acac 	bne.w	40210e <_vfiprintf_r+0xce>
  4027b6:	2101      	movs	r1, #1
  4027b8:	2020      	movs	r0, #32
  4027ba:	e4a8      	b.n	40210e <_vfiprintf_r+0xce>
  4027bc:	f046 0601 	orr.w	r6, r6, #1
  4027c0:	f898 3000 	ldrb.w	r3, [r8]
  4027c4:	e4a3      	b.n	40210e <_vfiprintf_r+0xce>
  4027c6:	9406      	str	r4, [sp, #24]
  4027c8:	2900      	cmp	r1, #0
  4027ca:	f040 830c 	bne.w	402de6 <_vfiprintf_r+0xda6>
  4027ce:	06b2      	lsls	r2, r6, #26
  4027d0:	488e      	ldr	r0, [pc, #568]	; (402a0c <_vfiprintf_r+0x9cc>)
  4027d2:	d4bd      	bmi.n	402750 <_vfiprintf_r+0x710>
  4027d4:	9904      	ldr	r1, [sp, #16]
  4027d6:	06f7      	lsls	r7, r6, #27
  4027d8:	460a      	mov	r2, r1
  4027da:	f100 819d 	bmi.w	402b18 <_vfiprintf_r+0xad8>
  4027de:	0675      	lsls	r5, r6, #25
  4027e0:	f140 819a 	bpl.w	402b18 <_vfiprintf_r+0xad8>
  4027e4:	3204      	adds	r2, #4
  4027e6:	880c      	ldrh	r4, [r1, #0]
  4027e8:	9204      	str	r2, [sp, #16]
  4027ea:	2500      	movs	r5, #0
  4027ec:	e7b9      	b.n	402762 <_vfiprintf_r+0x722>
  4027ee:	f046 0640 	orr.w	r6, r6, #64	; 0x40
  4027f2:	f898 3000 	ldrb.w	r3, [r8]
  4027f6:	e48a      	b.n	40210e <_vfiprintf_r+0xce>
  4027f8:	f898 3000 	ldrb.w	r3, [r8]
  4027fc:	2b6c      	cmp	r3, #108	; 0x6c
  4027fe:	bf03      	ittte	eq
  402800:	f898 3001 	ldrbeq.w	r3, [r8, #1]
  402804:	f046 0620 	orreq.w	r6, r6, #32
  402808:	f108 0801 	addeq.w	r8, r8, #1
  40280c:	f046 0610 	orrne.w	r6, r6, #16
  402810:	e47d      	b.n	40210e <_vfiprintf_r+0xce>
  402812:	2900      	cmp	r1, #0
  402814:	f040 8309 	bne.w	402e2a <_vfiprintf_r+0xdea>
  402818:	06b4      	lsls	r4, r6, #26
  40281a:	f140 821c 	bpl.w	402c56 <_vfiprintf_r+0xc16>
  40281e:	9a04      	ldr	r2, [sp, #16]
  402820:	9902      	ldr	r1, [sp, #8]
  402822:	6813      	ldr	r3, [r2, #0]
  402824:	17cd      	asrs	r5, r1, #31
  402826:	4608      	mov	r0, r1
  402828:	3204      	adds	r2, #4
  40282a:	4629      	mov	r1, r5
  40282c:	9204      	str	r2, [sp, #16]
  40282e:	e9c3 0100 	strd	r0, r1, [r3]
  402832:	e436      	b.n	4020a2 <_vfiprintf_r+0x62>
  402834:	9406      	str	r4, [sp, #24]
  402836:	2900      	cmp	r1, #0
  402838:	f43f ae43 	beq.w	4024c2 <_vfiprintf_r+0x482>
  40283c:	f88d 002f 	strb.w	r0, [sp, #47]	; 0x2f
  402840:	e63f      	b.n	4024c2 <_vfiprintf_r+0x482>
  402842:	9406      	str	r4, [sp, #24]
  402844:	2900      	cmp	r1, #0
  402846:	f040 82ed 	bne.w	402e24 <_vfiprintf_r+0xde4>
  40284a:	2b00      	cmp	r3, #0
  40284c:	f000 808f 	beq.w	40296e <_vfiprintf_r+0x92e>
  402850:	2501      	movs	r5, #1
  402852:	f88d 3040 	strb.w	r3, [sp, #64]	; 0x40
  402856:	f04f 0300 	mov.w	r3, #0
  40285a:	f88d 302f 	strb.w	r3, [sp, #47]	; 0x2f
  40285e:	9503      	str	r5, [sp, #12]
  402860:	af10      	add	r7, sp, #64	; 0x40
  402862:	e7a0      	b.n	4027a6 <_vfiprintf_r+0x766>
  402864:	9304      	str	r3, [sp, #16]
  402866:	f04f 0900 	mov.w	r9, #0
  40286a:	e696      	b.n	40259a <_vfiprintf_r+0x55a>
  40286c:	aa0d      	add	r2, sp, #52	; 0x34
  40286e:	9900      	ldr	r1, [sp, #0]
  402870:	9309      	str	r3, [sp, #36]	; 0x24
  402872:	4648      	mov	r0, r9
  402874:	f7ff fba8 	bl	401fc8 <__sprint_r.part.0>
  402878:	2800      	cmp	r0, #0
  40287a:	d17f      	bne.n	40297c <_vfiprintf_r+0x93c>
  40287c:	980e      	ldr	r0, [sp, #56]	; 0x38
  40287e:	9a0f      	ldr	r2, [sp, #60]	; 0x3c
  402880:	9b09      	ldr	r3, [sp, #36]	; 0x24
  402882:	f100 0e01 	add.w	lr, r0, #1
  402886:	46dc      	mov	ip, fp
  402888:	e529      	b.n	4022de <_vfiprintf_r+0x29e>
  40288a:	980e      	ldr	r0, [sp, #56]	; 0x38
  40288c:	9a0f      	ldr	r2, [sp, #60]	; 0x3c
  40288e:	f100 0e01 	add.w	lr, r0, #1
  402892:	f89d 302f 	ldrb.w	r3, [sp, #47]	; 0x2f
  402896:	2b00      	cmp	r3, #0
  402898:	f43f ad50 	beq.w	40233c <_vfiprintf_r+0x2fc>
  40289c:	3201      	adds	r2, #1
  40289e:	f10d 012f 	add.w	r1, sp, #47	; 0x2f
  4028a2:	2301      	movs	r3, #1
  4028a4:	f1be 0f07 	cmp.w	lr, #7
  4028a8:	920f      	str	r2, [sp, #60]	; 0x3c
  4028aa:	f8cd e038 	str.w	lr, [sp, #56]	; 0x38
  4028ae:	e88a 000a 	stmia.w	sl, {r1, r3}
  4028b2:	f340 80bf 	ble.w	402a34 <_vfiprintf_r+0x9f4>
  4028b6:	2a00      	cmp	r2, #0
  4028b8:	f040 814e 	bne.w	402b58 <_vfiprintf_r+0xb18>
  4028bc:	9907      	ldr	r1, [sp, #28]
  4028be:	2900      	cmp	r1, #0
  4028c0:	f040 80be 	bne.w	402a40 <_vfiprintf_r+0xa00>
  4028c4:	469e      	mov	lr, r3
  4028c6:	4610      	mov	r0, r2
  4028c8:	46da      	mov	sl, fp
  4028ca:	9b08      	ldr	r3, [sp, #32]
  4028cc:	2b80      	cmp	r3, #128	; 0x80
  4028ce:	f43f ad50 	beq.w	402372 <_vfiprintf_r+0x332>
  4028d2:	9b01      	ldr	r3, [sp, #4]
  4028d4:	9903      	ldr	r1, [sp, #12]
  4028d6:	1a5c      	subs	r4, r3, r1
  4028d8:	2c00      	cmp	r4, #0
  4028da:	f77f ad93 	ble.w	402404 <_vfiprintf_r+0x3c4>
  4028de:	2c10      	cmp	r4, #16
  4028e0:	f8df 912c 	ldr.w	r9, [pc, #300]	; 402a10 <_vfiprintf_r+0x9d0>
  4028e4:	dd25      	ble.n	402932 <_vfiprintf_r+0x8f2>
  4028e6:	46d4      	mov	ip, sl
  4028e8:	2310      	movs	r3, #16
  4028ea:	46c2      	mov	sl, r8
  4028ec:	46a8      	mov	r8, r5
  4028ee:	464d      	mov	r5, r9
  4028f0:	f8dd 9014 	ldr.w	r9, [sp, #20]
  4028f4:	e007      	b.n	402906 <_vfiprintf_r+0x8c6>
  4028f6:	f100 0e02 	add.w	lr, r0, #2
  4028fa:	f10c 0c08 	add.w	ip, ip, #8
  4028fe:	4608      	mov	r0, r1
  402900:	3c10      	subs	r4, #16
  402902:	2c10      	cmp	r4, #16
  402904:	dd11      	ble.n	40292a <_vfiprintf_r+0x8ea>
  402906:	1c41      	adds	r1, r0, #1
  402908:	3210      	adds	r2, #16
  40290a:	2907      	cmp	r1, #7
  40290c:	920f      	str	r2, [sp, #60]	; 0x3c
  40290e:	f8cc 5000 	str.w	r5, [ip]
  402912:	f8cc 3004 	str.w	r3, [ip, #4]
  402916:	910e      	str	r1, [sp, #56]	; 0x38
  402918:	dded      	ble.n	4028f6 <_vfiprintf_r+0x8b6>
  40291a:	b9d2      	cbnz	r2, 402952 <_vfiprintf_r+0x912>
  40291c:	3c10      	subs	r4, #16
  40291e:	2c10      	cmp	r4, #16
  402920:	f04f 0e01 	mov.w	lr, #1
  402924:	4610      	mov	r0, r2
  402926:	46dc      	mov	ip, fp
  402928:	dced      	bgt.n	402906 <_vfiprintf_r+0x8c6>
  40292a:	46a9      	mov	r9, r5
  40292c:	4645      	mov	r5, r8
  40292e:	46d0      	mov	r8, sl
  402930:	46e2      	mov	sl, ip
  402932:	4422      	add	r2, r4
  402934:	f1be 0f07 	cmp.w	lr, #7
  402938:	920f      	str	r2, [sp, #60]	; 0x3c
  40293a:	f8ca 9000 	str.w	r9, [sl]
  40293e:	f8ca 4004 	str.w	r4, [sl, #4]
  402942:	f8cd e038 	str.w	lr, [sp, #56]	; 0x38
  402946:	dc2e      	bgt.n	4029a6 <_vfiprintf_r+0x966>
  402948:	f10a 0a08 	add.w	sl, sl, #8
  40294c:	f10e 0e01 	add.w	lr, lr, #1
  402950:	e558      	b.n	402404 <_vfiprintf_r+0x3c4>
  402952:	aa0d      	add	r2, sp, #52	; 0x34
  402954:	9900      	ldr	r1, [sp, #0]
  402956:	9301      	str	r3, [sp, #4]
  402958:	4648      	mov	r0, r9
  40295a:	f7ff fb35 	bl	401fc8 <__sprint_r.part.0>
  40295e:	b968      	cbnz	r0, 40297c <_vfiprintf_r+0x93c>
  402960:	980e      	ldr	r0, [sp, #56]	; 0x38
  402962:	9a0f      	ldr	r2, [sp, #60]	; 0x3c
  402964:	9b01      	ldr	r3, [sp, #4]
  402966:	f100 0e01 	add.w	lr, r0, #1
  40296a:	46dc      	mov	ip, fp
  40296c:	e7c8      	b.n	402900 <_vfiprintf_r+0x8c0>
  40296e:	9b0f      	ldr	r3, [sp, #60]	; 0x3c
  402970:	b123      	cbz	r3, 40297c <_vfiprintf_r+0x93c>
  402972:	9805      	ldr	r0, [sp, #20]
  402974:	9900      	ldr	r1, [sp, #0]
  402976:	aa0d      	add	r2, sp, #52	; 0x34
  402978:	f7ff fb26 	bl	401fc8 <__sprint_r.part.0>
  40297c:	9b00      	ldr	r3, [sp, #0]
  40297e:	899b      	ldrh	r3, [r3, #12]
  402980:	065a      	lsls	r2, r3, #25
  402982:	f100 818b 	bmi.w	402c9c <_vfiprintf_r+0xc5c>
  402986:	9802      	ldr	r0, [sp, #8]
  402988:	b02b      	add	sp, #172	; 0xac
  40298a:	e8bd 8ff0 	ldmia.w	sp!, {r4, r5, r6, r7, r8, r9, sl, fp, pc}
  40298e:	aa0d      	add	r2, sp, #52	; 0x34
  402990:	9900      	ldr	r1, [sp, #0]
  402992:	4648      	mov	r0, r9
  402994:	f7ff fb18 	bl	401fc8 <__sprint_r.part.0>
  402998:	2800      	cmp	r0, #0
  40299a:	d1ef      	bne.n	40297c <_vfiprintf_r+0x93c>
  40299c:	990e      	ldr	r1, [sp, #56]	; 0x38
  40299e:	9a0f      	ldr	r2, [sp, #60]	; 0x3c
  4029a0:	1c48      	adds	r0, r1, #1
  4029a2:	46da      	mov	sl, fp
  4029a4:	e555      	b.n	402452 <_vfiprintf_r+0x412>
  4029a6:	2a00      	cmp	r2, #0
  4029a8:	f040 80fb 	bne.w	402ba2 <_vfiprintf_r+0xb62>
  4029ac:	9a03      	ldr	r2, [sp, #12]
  4029ae:	921b      	str	r2, [sp, #108]	; 0x6c
  4029b0:	2301      	movs	r3, #1
  4029b2:	920f      	str	r2, [sp, #60]	; 0x3c
  4029b4:	971a      	str	r7, [sp, #104]	; 0x68
  4029b6:	930e      	str	r3, [sp, #56]	; 0x38
  4029b8:	46da      	mov	sl, fp
  4029ba:	f10a 0a08 	add.w	sl, sl, #8
  4029be:	0771      	lsls	r1, r6, #29
  4029c0:	d504      	bpl.n	4029cc <_vfiprintf_r+0x98c>
  4029c2:	9b06      	ldr	r3, [sp, #24]
  4029c4:	1b5c      	subs	r4, r3, r5
  4029c6:	2c00      	cmp	r4, #0
  4029c8:	f73f ad34 	bgt.w	402434 <_vfiprintf_r+0x3f4>
  4029cc:	9b02      	ldr	r3, [sp, #8]
  4029ce:	9906      	ldr	r1, [sp, #24]
  4029d0:	42a9      	cmp	r1, r5
  4029d2:	bfac      	ite	ge
  4029d4:	185b      	addge	r3, r3, r1
  4029d6:	195b      	addlt	r3, r3, r5
  4029d8:	9302      	str	r3, [sp, #8]
  4029da:	2a00      	cmp	r2, #0
  4029dc:	f040 80b3 	bne.w	402b46 <_vfiprintf_r+0xb06>
  4029e0:	2300      	movs	r3, #0
  4029e2:	930e      	str	r3, [sp, #56]	; 0x38
  4029e4:	46da      	mov	sl, fp
  4029e6:	f7ff bb5c 	b.w	4020a2 <_vfiprintf_r+0x62>
  4029ea:	aa0d      	add	r2, sp, #52	; 0x34
  4029ec:	9900      	ldr	r1, [sp, #0]
  4029ee:	9307      	str	r3, [sp, #28]
  4029f0:	4648      	mov	r0, r9
  4029f2:	f7ff fae9 	bl	401fc8 <__sprint_r.part.0>
  4029f6:	2800      	cmp	r0, #0
  4029f8:	d1c0      	bne.n	40297c <_vfiprintf_r+0x93c>
  4029fa:	980e      	ldr	r0, [sp, #56]	; 0x38
  4029fc:	9a0f      	ldr	r2, [sp, #60]	; 0x3c
  4029fe:	9b07      	ldr	r3, [sp, #28]
  402a00:	f100 0c01 	add.w	ip, r0, #1
  402a04:	46de      	mov	lr, fp
  402a06:	e4cb      	b.n	4023a0 <_vfiprintf_r+0x360>
  402a08:	0040c5dc 	.word	0x0040c5dc
  402a0c:	0040c5f0 	.word	0x0040c5f0
  402a10:	0040c5cc 	.word	0x0040c5cc
  402a14:	2a00      	cmp	r2, #0
  402a16:	f040 8133 	bne.w	402c80 <_vfiprintf_r+0xc40>
  402a1a:	f89d 302f 	ldrb.w	r3, [sp, #47]	; 0x2f
  402a1e:	2b00      	cmp	r3, #0
  402a20:	f000 80f5 	beq.w	402c0e <_vfiprintf_r+0xbce>
  402a24:	2301      	movs	r3, #1
  402a26:	f10d 012f 	add.w	r1, sp, #47	; 0x2f
  402a2a:	461a      	mov	r2, r3
  402a2c:	931b      	str	r3, [sp, #108]	; 0x6c
  402a2e:	469e      	mov	lr, r3
  402a30:	911a      	str	r1, [sp, #104]	; 0x68
  402a32:	46da      	mov	sl, fp
  402a34:	4670      	mov	r0, lr
  402a36:	f10a 0a08 	add.w	sl, sl, #8
  402a3a:	f10e 0e01 	add.w	lr, lr, #1
  402a3e:	e47d      	b.n	40233c <_vfiprintf_r+0x2fc>
  402a40:	a90c      	add	r1, sp, #48	; 0x30
  402a42:	2202      	movs	r2, #2
  402a44:	469e      	mov	lr, r3
  402a46:	911a      	str	r1, [sp, #104]	; 0x68
  402a48:	921b      	str	r2, [sp, #108]	; 0x6c
  402a4a:	46da      	mov	sl, fp
  402a4c:	4670      	mov	r0, lr
  402a4e:	f10a 0a08 	add.w	sl, sl, #8
  402a52:	f10e 0e01 	add.w	lr, lr, #1
  402a56:	e738      	b.n	4028ca <_vfiprintf_r+0x88a>
  402a58:	9b01      	ldr	r3, [sp, #4]
  402a5a:	f88d 902f 	strb.w	r9, [sp, #47]	; 0x2f
  402a5e:	2b00      	cmp	r3, #0
  402a60:	f2c0 812a 	blt.w	402cb8 <_vfiprintf_r+0xc78>
  402a64:	ea54 0305 	orrs.w	r3, r4, r5
  402a68:	f026 0680 	bic.w	r6, r6, #128	; 0x80
  402a6c:	f43f abff 	beq.w	40226e <_vfiprintf_r+0x22e>
  402a70:	465f      	mov	r7, fp
  402a72:	0923      	lsrs	r3, r4, #4
  402a74:	f004 010f 	and.w	r1, r4, #15
  402a78:	ea43 7305 	orr.w	r3, r3, r5, lsl #28
  402a7c:	092a      	lsrs	r2, r5, #4
  402a7e:	461c      	mov	r4, r3
  402a80:	4615      	mov	r5, r2
  402a82:	5c43      	ldrb	r3, [r0, r1]
  402a84:	f807 3d01 	strb.w	r3, [r7, #-1]!
  402a88:	ea54 0305 	orrs.w	r3, r4, r5
  402a8c:	d1f1      	bne.n	402a72 <_vfiprintf_r+0xa32>
  402a8e:	ebc7 030b 	rsb	r3, r7, fp
  402a92:	9303      	str	r3, [sp, #12]
  402a94:	f7ff bbf4 	b.w	402280 <_vfiprintf_r+0x240>
  402a98:	aa0d      	add	r2, sp, #52	; 0x34
  402a9a:	9900      	ldr	r1, [sp, #0]
  402a9c:	9805      	ldr	r0, [sp, #20]
  402a9e:	f7ff fa93 	bl	401fc8 <__sprint_r.part.0>
  402aa2:	2800      	cmp	r0, #0
  402aa4:	f47f af6a 	bne.w	40297c <_vfiprintf_r+0x93c>
  402aa8:	9a0f      	ldr	r2, [sp, #60]	; 0x3c
  402aaa:	46da      	mov	sl, fp
  402aac:	e787      	b.n	4029be <_vfiprintf_r+0x97e>
  402aae:	f04f 0900 	mov.w	r9, #0
  402ab2:	2400      	movs	r4, #0
  402ab4:	2500      	movs	r5, #0
  402ab6:	e7db      	b.n	402a70 <_vfiprintf_r+0xa30>
  402ab8:	f016 0210 	ands.w	r2, r6, #16
  402abc:	f000 80b2 	beq.w	402c24 <_vfiprintf_r+0xbe4>
  402ac0:	9904      	ldr	r1, [sp, #16]
  402ac2:	f88d 302f 	strb.w	r3, [sp, #47]	; 0x2f
  402ac6:	460a      	mov	r2, r1
  402ac8:	680c      	ldr	r4, [r1, #0]
  402aca:	9901      	ldr	r1, [sp, #4]
  402acc:	2900      	cmp	r1, #0
  402ace:	f102 0204 	add.w	r2, r2, #4
  402ad2:	f04f 0500 	mov.w	r5, #0
  402ad6:	f2c0 8159 	blt.w	402d8c <_vfiprintf_r+0xd4c>
  402ada:	ea54 0105 	orrs.w	r1, r4, r5
  402ade:	f026 0680 	bic.w	r6, r6, #128	; 0x80
  402ae2:	9204      	str	r2, [sp, #16]
  402ae4:	f43f ad51 	beq.w	40258a <_vfiprintf_r+0x54a>
  402ae8:	4699      	mov	r9, r3
  402aea:	e556      	b.n	40259a <_vfiprintf_r+0x55a>
  402aec:	06f7      	lsls	r7, r6, #27
  402aee:	d40a      	bmi.n	402b06 <_vfiprintf_r+0xac6>
  402af0:	0675      	lsls	r5, r6, #25
  402af2:	d508      	bpl.n	402b06 <_vfiprintf_r+0xac6>
  402af4:	9904      	ldr	r1, [sp, #16]
  402af6:	f9b1 4000 	ldrsh.w	r4, [r1]
  402afa:	3104      	adds	r1, #4
  402afc:	17e5      	asrs	r5, r4, #31
  402afe:	4622      	mov	r2, r4
  402b00:	462b      	mov	r3, r5
  402b02:	9104      	str	r1, [sp, #16]
  402b04:	e4ea      	b.n	4024dc <_vfiprintf_r+0x49c>
  402b06:	9a04      	ldr	r2, [sp, #16]
  402b08:	6814      	ldr	r4, [r2, #0]
  402b0a:	4613      	mov	r3, r2
  402b0c:	3304      	adds	r3, #4
  402b0e:	17e5      	asrs	r5, r4, #31
  402b10:	9304      	str	r3, [sp, #16]
  402b12:	4622      	mov	r2, r4
  402b14:	462b      	mov	r3, r5
  402b16:	e4e1      	b.n	4024dc <_vfiprintf_r+0x49c>
  402b18:	6814      	ldr	r4, [r2, #0]
  402b1a:	3204      	adds	r2, #4
  402b1c:	9204      	str	r2, [sp, #16]
  402b1e:	2500      	movs	r5, #0
  402b20:	e61f      	b.n	402762 <_vfiprintf_r+0x722>
  402b22:	f04f 0900 	mov.w	r9, #0
  402b26:	ea54 0305 	orrs.w	r3, r4, r5
  402b2a:	f47f ace8 	bne.w	4024fe <_vfiprintf_r+0x4be>
  402b2e:	e5d8      	b.n	4026e2 <_vfiprintf_r+0x6a2>
  402b30:	aa0d      	add	r2, sp, #52	; 0x34
  402b32:	9900      	ldr	r1, [sp, #0]
  402b34:	9805      	ldr	r0, [sp, #20]
  402b36:	f7ff fa47 	bl	401fc8 <__sprint_r.part.0>
  402b3a:	2800      	cmp	r0, #0
  402b3c:	f47f af1e 	bne.w	40297c <_vfiprintf_r+0x93c>
  402b40:	46da      	mov	sl, fp
  402b42:	f7ff bb48 	b.w	4021d6 <_vfiprintf_r+0x196>
  402b46:	aa0d      	add	r2, sp, #52	; 0x34
  402b48:	9900      	ldr	r1, [sp, #0]
  402b4a:	9805      	ldr	r0, [sp, #20]
  402b4c:	f7ff fa3c 	bl	401fc8 <__sprint_r.part.0>
  402b50:	2800      	cmp	r0, #0
  402b52:	f43f af45 	beq.w	4029e0 <_vfiprintf_r+0x9a0>
  402b56:	e711      	b.n	40297c <_vfiprintf_r+0x93c>
  402b58:	aa0d      	add	r2, sp, #52	; 0x34
  402b5a:	9900      	ldr	r1, [sp, #0]
  402b5c:	9805      	ldr	r0, [sp, #20]
  402b5e:	f7ff fa33 	bl	401fc8 <__sprint_r.part.0>
  402b62:	2800      	cmp	r0, #0
  402b64:	f47f af0a 	bne.w	40297c <_vfiprintf_r+0x93c>
  402b68:	980e      	ldr	r0, [sp, #56]	; 0x38
  402b6a:	9a0f      	ldr	r2, [sp, #60]	; 0x3c
  402b6c:	f100 0e01 	add.w	lr, r0, #1
  402b70:	46da      	mov	sl, fp
  402b72:	f7ff bbe3 	b.w	40233c <_vfiprintf_r+0x2fc>
  402b76:	aa0d      	add	r2, sp, #52	; 0x34
  402b78:	9900      	ldr	r1, [sp, #0]
  402b7a:	9805      	ldr	r0, [sp, #20]
  402b7c:	f7ff fa24 	bl	401fc8 <__sprint_r.part.0>
  402b80:	2800      	cmp	r0, #0
  402b82:	f47f aefb 	bne.w	40297c <_vfiprintf_r+0x93c>
  402b86:	980e      	ldr	r0, [sp, #56]	; 0x38
  402b88:	9a0f      	ldr	r2, [sp, #60]	; 0x3c
  402b8a:	f100 0e01 	add.w	lr, r0, #1
  402b8e:	46da      	mov	sl, fp
  402b90:	e69b      	b.n	4028ca <_vfiprintf_r+0x88a>
  402b92:	2a00      	cmp	r2, #0
  402b94:	f040 80d8 	bne.w	402d48 <_vfiprintf_r+0xd08>
  402b98:	f04f 0e01 	mov.w	lr, #1
  402b9c:	4610      	mov	r0, r2
  402b9e:	46da      	mov	sl, fp
  402ba0:	e697      	b.n	4028d2 <_vfiprintf_r+0x892>
  402ba2:	aa0d      	add	r2, sp, #52	; 0x34
  402ba4:	9900      	ldr	r1, [sp, #0]
  402ba6:	9805      	ldr	r0, [sp, #20]
  402ba8:	f7ff fa0e 	bl	401fc8 <__sprint_r.part.0>
  402bac:	2800      	cmp	r0, #0
  402bae:	f47f aee5 	bne.w	40297c <_vfiprintf_r+0x93c>
  402bb2:	9b0e      	ldr	r3, [sp, #56]	; 0x38
  402bb4:	9a0f      	ldr	r2, [sp, #60]	; 0x3c
  402bb6:	f103 0e01 	add.w	lr, r3, #1
  402bba:	46da      	mov	sl, fp
  402bbc:	e422      	b.n	402404 <_vfiprintf_r+0x3c4>
  402bbe:	2230      	movs	r2, #48	; 0x30
  402bc0:	f88d 2030 	strb.w	r2, [sp, #48]	; 0x30
  402bc4:	9a01      	ldr	r2, [sp, #4]
  402bc6:	f88d 3031 	strb.w	r3, [sp, #49]	; 0x31
  402bca:	2a00      	cmp	r2, #0
  402bcc:	f04f 0300 	mov.w	r3, #0
  402bd0:	f88d 302f 	strb.w	r3, [sp, #47]	; 0x2f
  402bd4:	f046 0302 	orr.w	r3, r6, #2
  402bd8:	f2c0 80cb 	blt.w	402d72 <_vfiprintf_r+0xd32>
  402bdc:	f026 0680 	bic.w	r6, r6, #128	; 0x80
  402be0:	f046 0602 	orr.w	r6, r6, #2
  402be4:	f04f 0900 	mov.w	r9, #0
  402be8:	e742      	b.n	402a70 <_vfiprintf_r+0xa30>
  402bea:	f04f 0900 	mov.w	r9, #0
  402bee:	4890      	ldr	r0, [pc, #576]	; (402e30 <_vfiprintf_r+0xdf0>)
  402bf0:	e73e      	b.n	402a70 <_vfiprintf_r+0xa30>
  402bf2:	9b01      	ldr	r3, [sp, #4]
  402bf4:	4264      	negs	r4, r4
  402bf6:	f04f 092d 	mov.w	r9, #45	; 0x2d
  402bfa:	eb65 0545 	sbc.w	r5, r5, r5, lsl #1
  402bfe:	2b00      	cmp	r3, #0
  402c00:	f88d 902f 	strb.w	r9, [sp, #47]	; 0x2f
  402c04:	f6ff ac7b 	blt.w	4024fe <_vfiprintf_r+0x4be>
  402c08:	f026 0680 	bic.w	r6, r6, #128	; 0x80
  402c0c:	e477      	b.n	4024fe <_vfiprintf_r+0x4be>
  402c0e:	9b07      	ldr	r3, [sp, #28]
  402c10:	2b00      	cmp	r3, #0
  402c12:	d072      	beq.n	402cfa <_vfiprintf_r+0xcba>
  402c14:	ab0c      	add	r3, sp, #48	; 0x30
  402c16:	2202      	movs	r2, #2
  402c18:	931a      	str	r3, [sp, #104]	; 0x68
  402c1a:	921b      	str	r2, [sp, #108]	; 0x6c
  402c1c:	f04f 0e01 	mov.w	lr, #1
  402c20:	46da      	mov	sl, fp
  402c22:	e713      	b.n	402a4c <_vfiprintf_r+0xa0c>
  402c24:	f016 0940 	ands.w	r9, r6, #64	; 0x40
  402c28:	d048      	beq.n	402cbc <_vfiprintf_r+0xc7c>
  402c2a:	9904      	ldr	r1, [sp, #16]
  402c2c:	f88d 202f 	strb.w	r2, [sp, #47]	; 0x2f
  402c30:	460b      	mov	r3, r1
  402c32:	880c      	ldrh	r4, [r1, #0]
  402c34:	9901      	ldr	r1, [sp, #4]
  402c36:	2900      	cmp	r1, #0
  402c38:	f103 0304 	add.w	r3, r3, #4
  402c3c:	f04f 0500 	mov.w	r5, #0
  402c40:	f6ff ae10 	blt.w	402864 <_vfiprintf_r+0x824>
  402c44:	ea54 0105 	orrs.w	r1, r4, r5
  402c48:	f026 0680 	bic.w	r6, r6, #128	; 0x80
  402c4c:	9304      	str	r3, [sp, #16]
  402c4e:	f43f ac9c 	beq.w	40258a <_vfiprintf_r+0x54a>
  402c52:	4691      	mov	r9, r2
  402c54:	e4a1      	b.n	40259a <_vfiprintf_r+0x55a>
  402c56:	06f0      	lsls	r0, r6, #27
  402c58:	d40a      	bmi.n	402c70 <_vfiprintf_r+0xc30>
  402c5a:	0671      	lsls	r1, r6, #25
  402c5c:	d508      	bpl.n	402c70 <_vfiprintf_r+0xc30>
  402c5e:	9a04      	ldr	r2, [sp, #16]
  402c60:	6813      	ldr	r3, [r2, #0]
  402c62:	3204      	adds	r2, #4
  402c64:	9204      	str	r2, [sp, #16]
  402c66:	f8bd 2008 	ldrh.w	r2, [sp, #8]
  402c6a:	801a      	strh	r2, [r3, #0]
  402c6c:	f7ff ba19 	b.w	4020a2 <_vfiprintf_r+0x62>
  402c70:	9a04      	ldr	r2, [sp, #16]
  402c72:	6813      	ldr	r3, [r2, #0]
  402c74:	3204      	adds	r2, #4
  402c76:	9204      	str	r2, [sp, #16]
  402c78:	9a02      	ldr	r2, [sp, #8]
  402c7a:	601a      	str	r2, [r3, #0]
  402c7c:	f7ff ba11 	b.w	4020a2 <_vfiprintf_r+0x62>
  402c80:	aa0d      	add	r2, sp, #52	; 0x34
  402c82:	9900      	ldr	r1, [sp, #0]
  402c84:	9805      	ldr	r0, [sp, #20]
  402c86:	f7ff f99f 	bl	401fc8 <__sprint_r.part.0>
  402c8a:	2800      	cmp	r0, #0
  402c8c:	f47f ae76 	bne.w	40297c <_vfiprintf_r+0x93c>
  402c90:	980e      	ldr	r0, [sp, #56]	; 0x38
  402c92:	9a0f      	ldr	r2, [sp, #60]	; 0x3c
  402c94:	f100 0e01 	add.w	lr, r0, #1
  402c98:	46da      	mov	sl, fp
  402c9a:	e5fa      	b.n	402892 <_vfiprintf_r+0x852>
  402c9c:	f04f 30ff 	mov.w	r0, #4294967295
  402ca0:	f7ff bab6 	b.w	402210 <_vfiprintf_r+0x1d0>
  402ca4:	4862      	ldr	r0, [pc, #392]	; (402e30 <_vfiprintf_r+0xdf0>)
  402ca6:	4616      	mov	r6, r2
  402ca8:	ea54 0205 	orrs.w	r2, r4, r5
  402cac:	9304      	str	r3, [sp, #16]
  402cae:	f04f 0900 	mov.w	r9, #0
  402cb2:	f47f aedd 	bne.w	402a70 <_vfiprintf_r+0xa30>
  402cb6:	e6fc      	b.n	402ab2 <_vfiprintf_r+0xa72>
  402cb8:	9b04      	ldr	r3, [sp, #16]
  402cba:	e7f5      	b.n	402ca8 <_vfiprintf_r+0xc68>
  402cbc:	9a04      	ldr	r2, [sp, #16]
  402cbe:	f88d 902f 	strb.w	r9, [sp, #47]	; 0x2f
  402cc2:	4613      	mov	r3, r2
  402cc4:	6814      	ldr	r4, [r2, #0]
  402cc6:	9a01      	ldr	r2, [sp, #4]
  402cc8:	2a00      	cmp	r2, #0
  402cca:	f103 0304 	add.w	r3, r3, #4
  402cce:	f04f 0500 	mov.w	r5, #0
  402cd2:	f6ff adc7 	blt.w	402864 <_vfiprintf_r+0x824>
  402cd6:	ea54 0205 	orrs.w	r2, r4, r5
  402cda:	f026 0680 	bic.w	r6, r6, #128	; 0x80
  402cde:	9304      	str	r3, [sp, #16]
  402ce0:	f47f ac5b 	bne.w	40259a <_vfiprintf_r+0x55a>
  402ce4:	e451      	b.n	40258a <_vfiprintf_r+0x54a>
  402ce6:	aa0d      	add	r2, sp, #52	; 0x34
  402ce8:	9900      	ldr	r1, [sp, #0]
  402cea:	9805      	ldr	r0, [sp, #20]
  402cec:	f7ff f96c 	bl	401fc8 <__sprint_r.part.0>
  402cf0:	2800      	cmp	r0, #0
  402cf2:	f47f ae43 	bne.w	40297c <_vfiprintf_r+0x93c>
  402cf6:	9a0f      	ldr	r2, [sp, #60]	; 0x3c
  402cf8:	e668      	b.n	4029cc <_vfiprintf_r+0x98c>
  402cfa:	4610      	mov	r0, r2
  402cfc:	f04f 0e01 	mov.w	lr, #1
  402d00:	46da      	mov	sl, fp
  402d02:	e5e6      	b.n	4028d2 <_vfiprintf_r+0x892>
  402d04:	9904      	ldr	r1, [sp, #16]
  402d06:	f88d 302f 	strb.w	r3, [sp, #47]	; 0x2f
  402d0a:	460a      	mov	r2, r1
  402d0c:	880c      	ldrh	r4, [r1, #0]
  402d0e:	9901      	ldr	r1, [sp, #4]
  402d10:	2900      	cmp	r1, #0
  402d12:	f102 0204 	add.w	r2, r2, #4
  402d16:	f04f 0500 	mov.w	r5, #0
  402d1a:	db4e      	blt.n	402dba <_vfiprintf_r+0xd7a>
  402d1c:	ea54 0105 	orrs.w	r1, r4, r5
  402d20:	f026 0680 	bic.w	r6, r6, #128	; 0x80
  402d24:	9204      	str	r2, [sp, #16]
  402d26:	4699      	mov	r9, r3
  402d28:	f47f abe9 	bne.w	4024fe <_vfiprintf_r+0x4be>
  402d2c:	e4d4      	b.n	4026d8 <_vfiprintf_r+0x698>
  402d2e:	9304      	str	r3, [sp, #16]
  402d30:	e6f9      	b.n	402b26 <_vfiprintf_r+0xae6>
  402d32:	4638      	mov	r0, r7
  402d34:	9404      	str	r4, [sp, #16]
  402d36:	f001 fc03 	bl	404540 <strlen>
  402d3a:	2300      	movs	r3, #0
  402d3c:	9003      	str	r0, [sp, #12]
  402d3e:	f89d 902f 	ldrb.w	r9, [sp, #47]	; 0x2f
  402d42:	9301      	str	r3, [sp, #4]
  402d44:	f7ff ba9c 	b.w	402280 <_vfiprintf_r+0x240>
  402d48:	aa0d      	add	r2, sp, #52	; 0x34
  402d4a:	9900      	ldr	r1, [sp, #0]
  402d4c:	9805      	ldr	r0, [sp, #20]
  402d4e:	f7ff f93b 	bl	401fc8 <__sprint_r.part.0>
  402d52:	2800      	cmp	r0, #0
  402d54:	f47f ae12 	bne.w	40297c <_vfiprintf_r+0x93c>
  402d58:	980e      	ldr	r0, [sp, #56]	; 0x38
  402d5a:	9a0f      	ldr	r2, [sp, #60]	; 0x3c
  402d5c:	f100 0e01 	add.w	lr, r0, #1
  402d60:	46da      	mov	sl, fp
  402d62:	e5b6      	b.n	4028d2 <_vfiprintf_r+0x892>
  402d64:	980e      	ldr	r0, [sp, #56]	; 0x38
  402d66:	9a0f      	ldr	r2, [sp, #60]	; 0x3c
  402d68:	f8df 90cc 	ldr.w	r9, [pc, #204]	; 402e38 <_vfiprintf_r+0xdf8>
  402d6c:	3001      	adds	r0, #1
  402d6e:	f7ff bad2 	b.w	402316 <_vfiprintf_r+0x2d6>
  402d72:	461e      	mov	r6, r3
  402d74:	f04f 0900 	mov.w	r9, #0
  402d78:	e67a      	b.n	402a70 <_vfiprintf_r+0xa30>
  402d7a:	2b06      	cmp	r3, #6
  402d7c:	bf28      	it	cs
  402d7e:	2306      	movcs	r3, #6
  402d80:	9303      	str	r3, [sp, #12]
  402d82:	9404      	str	r4, [sp, #16]
  402d84:	ea23 75e3 	bic.w	r5, r3, r3, asr #31
  402d88:	4f2a      	ldr	r7, [pc, #168]	; (402e34 <_vfiprintf_r+0xdf4>)
  402d8a:	e50c      	b.n	4027a6 <_vfiprintf_r+0x766>
  402d8c:	9204      	str	r2, [sp, #16]
  402d8e:	e56a      	b.n	402866 <_vfiprintf_r+0x826>
  402d90:	980e      	ldr	r0, [sp, #56]	; 0x38
  402d92:	f8df 90a4 	ldr.w	r9, [pc, #164]	; 402e38 <_vfiprintf_r+0xdf8>
  402d96:	3001      	adds	r0, #1
  402d98:	f7ff bb73 	b.w	402482 <_vfiprintf_r+0x442>
  402d9c:	46f4      	mov	ip, lr
  402d9e:	f7ff bb1a 	b.w	4023d6 <_vfiprintf_r+0x396>
  402da2:	9b01      	ldr	r3, [sp, #4]
  402da4:	f89d 902f 	ldrb.w	r9, [sp, #47]	; 0x2f
  402da8:	9303      	str	r3, [sp, #12]
  402daa:	9404      	str	r4, [sp, #16]
  402dac:	9001      	str	r0, [sp, #4]
  402dae:	f7ff ba67 	b.w	402280 <_vfiprintf_r+0x240>
  402db2:	2200      	movs	r2, #0
  402db4:	9201      	str	r2, [sp, #4]
  402db6:	f7ff b9ac 	b.w	402112 <_vfiprintf_r+0xd2>
  402dba:	9204      	str	r2, [sp, #16]
  402dbc:	4699      	mov	r9, r3
  402dbe:	e6b2      	b.n	402b26 <_vfiprintf_r+0xae6>
  402dc0:	9a04      	ldr	r2, [sp, #16]
  402dc2:	6813      	ldr	r3, [r2, #0]
  402dc4:	9301      	str	r3, [sp, #4]
  402dc6:	3204      	adds	r2, #4
  402dc8:	2b00      	cmp	r3, #0
  402dca:	9204      	str	r2, [sp, #16]
  402dcc:	f898 3001 	ldrb.w	r3, [r8, #1]
  402dd0:	46a8      	mov	r8, r5
  402dd2:	f6bf a99c 	bge.w	40210e <_vfiprintf_r+0xce>
  402dd6:	f04f 32ff 	mov.w	r2, #4294967295
  402dda:	9201      	str	r2, [sp, #4]
  402ddc:	f7ff b997 	b.w	40210e <_vfiprintf_r+0xce>
  402de0:	f88d 002f 	strb.w	r0, [sp, #47]	; 0x2f
  402de4:	e48e      	b.n	402704 <_vfiprintf_r+0x6c4>
  402de6:	f88d 002f 	strb.w	r0, [sp, #47]	; 0x2f
  402dea:	e4f0      	b.n	4027ce <_vfiprintf_r+0x78e>
  402dec:	f88d 002f 	strb.w	r0, [sp, #47]	; 0x2f
  402df0:	e4ab      	b.n	40274a <_vfiprintf_r+0x70a>
  402df2:	4699      	mov	r9, r3
  402df4:	07f3      	lsls	r3, r6, #31
  402df6:	d505      	bpl.n	402e04 <_vfiprintf_r+0xdc4>
  402df8:	af2a      	add	r7, sp, #168	; 0xa8
  402dfa:	2330      	movs	r3, #48	; 0x30
  402dfc:	f807 3d41 	strb.w	r3, [r7, #-65]!
  402e00:	f7ff bb97 	b.w	402532 <_vfiprintf_r+0x4f2>
  402e04:	9b01      	ldr	r3, [sp, #4]
  402e06:	9303      	str	r3, [sp, #12]
  402e08:	465f      	mov	r7, fp
  402e0a:	f7ff ba39 	b.w	402280 <_vfiprintf_r+0x240>
  402e0e:	f88d 002f 	strb.w	r0, [sp, #47]	; 0x2f
  402e12:	e443      	b.n	40269c <_vfiprintf_r+0x65c>
  402e14:	f88d 002f 	strb.w	r0, [sp, #47]	; 0x2f
  402e18:	f7ff bb9a 	b.w	402550 <_vfiprintf_r+0x510>
  402e1c:	f88d 002f 	strb.w	r0, [sp, #47]	; 0x2f
  402e20:	f7ff bb4d 	b.w	4024be <_vfiprintf_r+0x47e>
  402e24:	f88d 002f 	strb.w	r0, [sp, #47]	; 0x2f
  402e28:	e50f      	b.n	40284a <_vfiprintf_r+0x80a>
  402e2a:	f88d 002f 	strb.w	r0, [sp, #47]	; 0x2f
  402e2e:	e4f3      	b.n	402818 <_vfiprintf_r+0x7d8>
  402e30:	0040c5f0 	.word	0x0040c5f0
  402e34:	0040c604 	.word	0x0040c604
  402e38:	0040c60c 	.word	0x0040c60c

00402e3c <__sbprintf>:
  402e3c:	b5f0      	push	{r4, r5, r6, r7, lr}
  402e3e:	460c      	mov	r4, r1
  402e40:	f2ad 4d6c 	subw	sp, sp, #1132	; 0x46c
  402e44:	8989      	ldrh	r1, [r1, #12]
  402e46:	6e66      	ldr	r6, [r4, #100]	; 0x64
  402e48:	89e5      	ldrh	r5, [r4, #14]
  402e4a:	9619      	str	r6, [sp, #100]	; 0x64
  402e4c:	f021 0102 	bic.w	r1, r1, #2
  402e50:	6a66      	ldr	r6, [r4, #36]	; 0x24
  402e52:	f8ad 500e 	strh.w	r5, [sp, #14]
  402e56:	2500      	movs	r5, #0
  402e58:	69e7      	ldr	r7, [r4, #28]
  402e5a:	f8ad 100c 	strh.w	r1, [sp, #12]
  402e5e:	9609      	str	r6, [sp, #36]	; 0x24
  402e60:	9506      	str	r5, [sp, #24]
  402e62:	ae1a      	add	r6, sp, #104	; 0x68
  402e64:	f44f 6580 	mov.w	r5, #1024	; 0x400
  402e68:	4669      	mov	r1, sp
  402e6a:	9600      	str	r6, [sp, #0]
  402e6c:	9604      	str	r6, [sp, #16]
  402e6e:	9502      	str	r5, [sp, #8]
  402e70:	9505      	str	r5, [sp, #20]
  402e72:	9707      	str	r7, [sp, #28]
  402e74:	4606      	mov	r6, r0
  402e76:	f7ff f8e3 	bl	402040 <_vfiprintf_r>
  402e7a:	1e05      	subs	r5, r0, #0
  402e7c:	db07      	blt.n	402e8e <__sbprintf+0x52>
  402e7e:	4630      	mov	r0, r6
  402e80:	4669      	mov	r1, sp
  402e82:	f000 f929 	bl	4030d8 <_fflush_r>
  402e86:	2800      	cmp	r0, #0
  402e88:	bf18      	it	ne
  402e8a:	f04f 35ff 	movne.w	r5, #4294967295
  402e8e:	f8bd 300c 	ldrh.w	r3, [sp, #12]
  402e92:	065b      	lsls	r3, r3, #25
  402e94:	d503      	bpl.n	402e9e <__sbprintf+0x62>
  402e96:	89a3      	ldrh	r3, [r4, #12]
  402e98:	f043 0340 	orr.w	r3, r3, #64	; 0x40
  402e9c:	81a3      	strh	r3, [r4, #12]
  402e9e:	4628      	mov	r0, r5
  402ea0:	f20d 4d6c 	addw	sp, sp, #1132	; 0x46c
  402ea4:	bdf0      	pop	{r4, r5, r6, r7, pc}
  402ea6:	bf00      	nop

00402ea8 <__swsetup_r>:
  402ea8:	b538      	push	{r3, r4, r5, lr}
  402eaa:	4b30      	ldr	r3, [pc, #192]	; (402f6c <__swsetup_r+0xc4>)
  402eac:	681b      	ldr	r3, [r3, #0]
  402eae:	4605      	mov	r5, r0
  402eb0:	460c      	mov	r4, r1
  402eb2:	b113      	cbz	r3, 402eba <__swsetup_r+0x12>
  402eb4:	6b9a      	ldr	r2, [r3, #56]	; 0x38
  402eb6:	2a00      	cmp	r2, #0
  402eb8:	d038      	beq.n	402f2c <__swsetup_r+0x84>
  402eba:	f9b4 200c 	ldrsh.w	r2, [r4, #12]
  402ebe:	b293      	uxth	r3, r2
  402ec0:	0718      	lsls	r0, r3, #28
  402ec2:	d50c      	bpl.n	402ede <__swsetup_r+0x36>
  402ec4:	6920      	ldr	r0, [r4, #16]
  402ec6:	b1a8      	cbz	r0, 402ef4 <__swsetup_r+0x4c>
  402ec8:	f013 0201 	ands.w	r2, r3, #1
  402ecc:	d01e      	beq.n	402f0c <__swsetup_r+0x64>
  402ece:	6963      	ldr	r3, [r4, #20]
  402ed0:	2200      	movs	r2, #0
  402ed2:	425b      	negs	r3, r3
  402ed4:	61a3      	str	r3, [r4, #24]
  402ed6:	60a2      	str	r2, [r4, #8]
  402ed8:	b1f0      	cbz	r0, 402f18 <__swsetup_r+0x70>
  402eda:	2000      	movs	r0, #0
  402edc:	bd38      	pop	{r3, r4, r5, pc}
  402ede:	06d9      	lsls	r1, r3, #27
  402ee0:	d53c      	bpl.n	402f5c <__swsetup_r+0xb4>
  402ee2:	0758      	lsls	r0, r3, #29
  402ee4:	d426      	bmi.n	402f34 <__swsetup_r+0x8c>
  402ee6:	6920      	ldr	r0, [r4, #16]
  402ee8:	f042 0308 	orr.w	r3, r2, #8
  402eec:	81a3      	strh	r3, [r4, #12]
  402eee:	b29b      	uxth	r3, r3
  402ef0:	2800      	cmp	r0, #0
  402ef2:	d1e9      	bne.n	402ec8 <__swsetup_r+0x20>
  402ef4:	f403 7220 	and.w	r2, r3, #640	; 0x280
  402ef8:	f5b2 7f00 	cmp.w	r2, #512	; 0x200
  402efc:	d0e4      	beq.n	402ec8 <__swsetup_r+0x20>
  402efe:	4628      	mov	r0, r5
  402f00:	4621      	mov	r1, r4
  402f02:	f000 fd15 	bl	403930 <__smakebuf_r>
  402f06:	89a3      	ldrh	r3, [r4, #12]
  402f08:	6920      	ldr	r0, [r4, #16]
  402f0a:	e7dd      	b.n	402ec8 <__swsetup_r+0x20>
  402f0c:	0799      	lsls	r1, r3, #30
  402f0e:	bf58      	it	pl
  402f10:	6962      	ldrpl	r2, [r4, #20]
  402f12:	60a2      	str	r2, [r4, #8]
  402f14:	2800      	cmp	r0, #0
  402f16:	d1e0      	bne.n	402eda <__swsetup_r+0x32>
  402f18:	f9b4 300c 	ldrsh.w	r3, [r4, #12]
  402f1c:	061a      	lsls	r2, r3, #24
  402f1e:	d5dd      	bpl.n	402edc <__swsetup_r+0x34>
  402f20:	f043 0340 	orr.w	r3, r3, #64	; 0x40
  402f24:	81a3      	strh	r3, [r4, #12]
  402f26:	f04f 30ff 	mov.w	r0, #4294967295
  402f2a:	bd38      	pop	{r3, r4, r5, pc}
  402f2c:	4618      	mov	r0, r3
  402f2e:	f000 f967 	bl	403200 <__sinit>
  402f32:	e7c2      	b.n	402eba <__swsetup_r+0x12>
  402f34:	6b21      	ldr	r1, [r4, #48]	; 0x30
  402f36:	b151      	cbz	r1, 402f4e <__swsetup_r+0xa6>
  402f38:	f104 0340 	add.w	r3, r4, #64	; 0x40
  402f3c:	4299      	cmp	r1, r3
  402f3e:	d004      	beq.n	402f4a <__swsetup_r+0xa2>
  402f40:	4628      	mov	r0, r5
  402f42:	f000 fa27 	bl	403394 <_free_r>
  402f46:	f9b4 200c 	ldrsh.w	r2, [r4, #12]
  402f4a:	2300      	movs	r3, #0
  402f4c:	6323      	str	r3, [r4, #48]	; 0x30
  402f4e:	2300      	movs	r3, #0
  402f50:	6920      	ldr	r0, [r4, #16]
  402f52:	6063      	str	r3, [r4, #4]
  402f54:	f022 0224 	bic.w	r2, r2, #36	; 0x24
  402f58:	6020      	str	r0, [r4, #0]
  402f5a:	e7c5      	b.n	402ee8 <__swsetup_r+0x40>
  402f5c:	f042 0240 	orr.w	r2, r2, #64	; 0x40
  402f60:	2309      	movs	r3, #9
  402f62:	602b      	str	r3, [r5, #0]
  402f64:	f04f 30ff 	mov.w	r0, #4294967295
  402f68:	81a2      	strh	r2, [r4, #12]
  402f6a:	bd38      	pop	{r3, r4, r5, pc}
  402f6c:	20400430 	.word	0x20400430

00402f70 <register_fini>:
  402f70:	4b02      	ldr	r3, [pc, #8]	; (402f7c <register_fini+0xc>)
  402f72:	b113      	cbz	r3, 402f7a <register_fini+0xa>
  402f74:	4802      	ldr	r0, [pc, #8]	; (402f80 <register_fini+0x10>)
  402f76:	f000 b805 	b.w	402f84 <atexit>
  402f7a:	4770      	bx	lr
  402f7c:	00000000 	.word	0x00000000
  402f80:	00403215 	.word	0x00403215

00402f84 <atexit>:
  402f84:	2300      	movs	r3, #0
  402f86:	4601      	mov	r1, r0
  402f88:	461a      	mov	r2, r3
  402f8a:	4618      	mov	r0, r3
  402f8c:	f001 bbea 	b.w	404764 <__register_exitproc>

00402f90 <__sflush_r>:
  402f90:	f9b1 300c 	ldrsh.w	r3, [r1, #12]
  402f94:	b29a      	uxth	r2, r3
  402f96:	e92d 41f0 	stmdb	sp!, {r4, r5, r6, r7, r8, lr}
  402f9a:	460d      	mov	r5, r1
  402f9c:	0711      	lsls	r1, r2, #28
  402f9e:	4680      	mov	r8, r0
  402fa0:	d43c      	bmi.n	40301c <__sflush_r+0x8c>
  402fa2:	686a      	ldr	r2, [r5, #4]
  402fa4:	f443 6300 	orr.w	r3, r3, #2048	; 0x800
  402fa8:	2a00      	cmp	r2, #0
  402faa:	81ab      	strh	r3, [r5, #12]
  402fac:	dd73      	ble.n	403096 <__sflush_r+0x106>
  402fae:	6aac      	ldr	r4, [r5, #40]	; 0x28
  402fb0:	2c00      	cmp	r4, #0
  402fb2:	d04b      	beq.n	40304c <__sflush_r+0xbc>
  402fb4:	b29b      	uxth	r3, r3
  402fb6:	f403 5280 	and.w	r2, r3, #4096	; 0x1000
  402fba:	2100      	movs	r1, #0
  402fbc:	b292      	uxth	r2, r2
  402fbe:	f8d8 6000 	ldr.w	r6, [r8]
  402fc2:	f8c8 1000 	str.w	r1, [r8]
  402fc6:	2a00      	cmp	r2, #0
  402fc8:	d069      	beq.n	40309e <__sflush_r+0x10e>
  402fca:	6d2a      	ldr	r2, [r5, #80]	; 0x50
  402fcc:	075f      	lsls	r7, r3, #29
  402fce:	d505      	bpl.n	402fdc <__sflush_r+0x4c>
  402fd0:	6869      	ldr	r1, [r5, #4]
  402fd2:	6b2b      	ldr	r3, [r5, #48]	; 0x30
  402fd4:	1a52      	subs	r2, r2, r1
  402fd6:	b10b      	cbz	r3, 402fdc <__sflush_r+0x4c>
  402fd8:	6beb      	ldr	r3, [r5, #60]	; 0x3c
  402fda:	1ad2      	subs	r2, r2, r3
  402fdc:	2300      	movs	r3, #0
  402fde:	69e9      	ldr	r1, [r5, #28]
  402fe0:	4640      	mov	r0, r8
  402fe2:	47a0      	blx	r4
  402fe4:	1c44      	adds	r4, r0, #1
  402fe6:	d03c      	beq.n	403062 <__sflush_r+0xd2>
  402fe8:	f9b5 300c 	ldrsh.w	r3, [r5, #12]
  402fec:	692a      	ldr	r2, [r5, #16]
  402fee:	602a      	str	r2, [r5, #0]
  402ff0:	f423 6300 	bic.w	r3, r3, #2048	; 0x800
  402ff4:	2200      	movs	r2, #0
  402ff6:	81ab      	strh	r3, [r5, #12]
  402ff8:	04db      	lsls	r3, r3, #19
  402ffa:	606a      	str	r2, [r5, #4]
  402ffc:	d449      	bmi.n	403092 <__sflush_r+0x102>
  402ffe:	6b29      	ldr	r1, [r5, #48]	; 0x30
  403000:	f8c8 6000 	str.w	r6, [r8]
  403004:	b311      	cbz	r1, 40304c <__sflush_r+0xbc>
  403006:	f105 0340 	add.w	r3, r5, #64	; 0x40
  40300a:	4299      	cmp	r1, r3
  40300c:	d002      	beq.n	403014 <__sflush_r+0x84>
  40300e:	4640      	mov	r0, r8
  403010:	f000 f9c0 	bl	403394 <_free_r>
  403014:	2000      	movs	r0, #0
  403016:	6328      	str	r0, [r5, #48]	; 0x30
  403018:	e8bd 81f0 	ldmia.w	sp!, {r4, r5, r6, r7, r8, pc}
  40301c:	692e      	ldr	r6, [r5, #16]
  40301e:	b1ae      	cbz	r6, 40304c <__sflush_r+0xbc>
  403020:	682c      	ldr	r4, [r5, #0]
  403022:	602e      	str	r6, [r5, #0]
  403024:	0790      	lsls	r0, r2, #30
  403026:	bf0c      	ite	eq
  403028:	696b      	ldreq	r3, [r5, #20]
  40302a:	2300      	movne	r3, #0
  40302c:	1ba4      	subs	r4, r4, r6
  40302e:	60ab      	str	r3, [r5, #8]
  403030:	e00a      	b.n	403048 <__sflush_r+0xb8>
  403032:	4623      	mov	r3, r4
  403034:	4632      	mov	r2, r6
  403036:	6a6f      	ldr	r7, [r5, #36]	; 0x24
  403038:	69e9      	ldr	r1, [r5, #28]
  40303a:	4640      	mov	r0, r8
  40303c:	47b8      	blx	r7
  40303e:	2800      	cmp	r0, #0
  403040:	eba4 0400 	sub.w	r4, r4, r0
  403044:	4406      	add	r6, r0
  403046:	dd04      	ble.n	403052 <__sflush_r+0xc2>
  403048:	2c00      	cmp	r4, #0
  40304a:	dcf2      	bgt.n	403032 <__sflush_r+0xa2>
  40304c:	2000      	movs	r0, #0
  40304e:	e8bd 81f0 	ldmia.w	sp!, {r4, r5, r6, r7, r8, pc}
  403052:	89ab      	ldrh	r3, [r5, #12]
  403054:	f043 0340 	orr.w	r3, r3, #64	; 0x40
  403058:	81ab      	strh	r3, [r5, #12]
  40305a:	f04f 30ff 	mov.w	r0, #4294967295
  40305e:	e8bd 81f0 	ldmia.w	sp!, {r4, r5, r6, r7, r8, pc}
  403062:	f8d8 2000 	ldr.w	r2, [r8]
  403066:	2a1d      	cmp	r2, #29
  403068:	d8f3      	bhi.n	403052 <__sflush_r+0xc2>
  40306a:	4b1a      	ldr	r3, [pc, #104]	; (4030d4 <__sflush_r+0x144>)
  40306c:	40d3      	lsrs	r3, r2
  40306e:	f003 0301 	and.w	r3, r3, #1
  403072:	f083 0401 	eor.w	r4, r3, #1
  403076:	2b00      	cmp	r3, #0
  403078:	d0eb      	beq.n	403052 <__sflush_r+0xc2>
  40307a:	f9b5 300c 	ldrsh.w	r3, [r5, #12]
  40307e:	6929      	ldr	r1, [r5, #16]
  403080:	6029      	str	r1, [r5, #0]
  403082:	f423 6300 	bic.w	r3, r3, #2048	; 0x800
  403086:	04d9      	lsls	r1, r3, #19
  403088:	606c      	str	r4, [r5, #4]
  40308a:	81ab      	strh	r3, [r5, #12]
  40308c:	d5b7      	bpl.n	402ffe <__sflush_r+0x6e>
  40308e:	2a00      	cmp	r2, #0
  403090:	d1b5      	bne.n	402ffe <__sflush_r+0x6e>
  403092:	6528      	str	r0, [r5, #80]	; 0x50
  403094:	e7b3      	b.n	402ffe <__sflush_r+0x6e>
  403096:	6bea      	ldr	r2, [r5, #60]	; 0x3c
  403098:	2a00      	cmp	r2, #0
  40309a:	dc88      	bgt.n	402fae <__sflush_r+0x1e>
  40309c:	e7d6      	b.n	40304c <__sflush_r+0xbc>
  40309e:	2301      	movs	r3, #1
  4030a0:	69e9      	ldr	r1, [r5, #28]
  4030a2:	4640      	mov	r0, r8
  4030a4:	47a0      	blx	r4
  4030a6:	1c43      	adds	r3, r0, #1
  4030a8:	4602      	mov	r2, r0
  4030aa:	d002      	beq.n	4030b2 <__sflush_r+0x122>
  4030ac:	89ab      	ldrh	r3, [r5, #12]
  4030ae:	6aac      	ldr	r4, [r5, #40]	; 0x28
  4030b0:	e78c      	b.n	402fcc <__sflush_r+0x3c>
  4030b2:	f8d8 3000 	ldr.w	r3, [r8]
  4030b6:	2b00      	cmp	r3, #0
  4030b8:	d0f8      	beq.n	4030ac <__sflush_r+0x11c>
  4030ba:	2b1d      	cmp	r3, #29
  4030bc:	d001      	beq.n	4030c2 <__sflush_r+0x132>
  4030be:	2b16      	cmp	r3, #22
  4030c0:	d102      	bne.n	4030c8 <__sflush_r+0x138>
  4030c2:	f8c8 6000 	str.w	r6, [r8]
  4030c6:	e7c1      	b.n	40304c <__sflush_r+0xbc>
  4030c8:	89ab      	ldrh	r3, [r5, #12]
  4030ca:	f043 0340 	orr.w	r3, r3, #64	; 0x40
  4030ce:	81ab      	strh	r3, [r5, #12]
  4030d0:	e8bd 81f0 	ldmia.w	sp!, {r4, r5, r6, r7, r8, pc}
  4030d4:	20400001 	.word	0x20400001

004030d8 <_fflush_r>:
  4030d8:	b510      	push	{r4, lr}
  4030da:	4604      	mov	r4, r0
  4030dc:	b082      	sub	sp, #8
  4030de:	b108      	cbz	r0, 4030e4 <_fflush_r+0xc>
  4030e0:	6b83      	ldr	r3, [r0, #56]	; 0x38
  4030e2:	b153      	cbz	r3, 4030fa <_fflush_r+0x22>
  4030e4:	f9b1 000c 	ldrsh.w	r0, [r1, #12]
  4030e8:	b908      	cbnz	r0, 4030ee <_fflush_r+0x16>
  4030ea:	b002      	add	sp, #8
  4030ec:	bd10      	pop	{r4, pc}
  4030ee:	4620      	mov	r0, r4
  4030f0:	b002      	add	sp, #8
  4030f2:	e8bd 4010 	ldmia.w	sp!, {r4, lr}
  4030f6:	f7ff bf4b 	b.w	402f90 <__sflush_r>
  4030fa:	9101      	str	r1, [sp, #4]
  4030fc:	f000 f880 	bl	403200 <__sinit>
  403100:	9901      	ldr	r1, [sp, #4]
  403102:	e7ef      	b.n	4030e4 <_fflush_r+0xc>

00403104 <_cleanup_r>:
  403104:	4901      	ldr	r1, [pc, #4]	; (40310c <_cleanup_r+0x8>)
  403106:	f000 bbaf 	b.w	403868 <_fwalk_reent>
  40310a:	bf00      	nop
  40310c:	0040482d 	.word	0x0040482d

00403110 <__sinit.part.1>:
  403110:	e92d 4ff0 	stmdb	sp!, {r4, r5, r6, r7, r8, r9, sl, fp, lr}
  403114:	4b35      	ldr	r3, [pc, #212]	; (4031ec <__sinit.part.1+0xdc>)
  403116:	6845      	ldr	r5, [r0, #4]
  403118:	63c3      	str	r3, [r0, #60]	; 0x3c
  40311a:	2400      	movs	r4, #0
  40311c:	4607      	mov	r7, r0
  40311e:	f500 723b 	add.w	r2, r0, #748	; 0x2ec
  403122:	2304      	movs	r3, #4
  403124:	2103      	movs	r1, #3
  403126:	f8c0 12e4 	str.w	r1, [r0, #740]	; 0x2e4
  40312a:	f8c0 22e8 	str.w	r2, [r0, #744]	; 0x2e8
  40312e:	f8c0 42e0 	str.w	r4, [r0, #736]	; 0x2e0
  403132:	b083      	sub	sp, #12
  403134:	602c      	str	r4, [r5, #0]
  403136:	606c      	str	r4, [r5, #4]
  403138:	60ac      	str	r4, [r5, #8]
  40313a:	666c      	str	r4, [r5, #100]	; 0x64
  40313c:	81ec      	strh	r4, [r5, #14]
  40313e:	612c      	str	r4, [r5, #16]
  403140:	616c      	str	r4, [r5, #20]
  403142:	61ac      	str	r4, [r5, #24]
  403144:	81ab      	strh	r3, [r5, #12]
  403146:	4621      	mov	r1, r4
  403148:	f105 005c 	add.w	r0, r5, #92	; 0x5c
  40314c:	2208      	movs	r2, #8
  40314e:	f7fe fdfd 	bl	401d4c <memset>
  403152:	68be      	ldr	r6, [r7, #8]
  403154:	f8df b098 	ldr.w	fp, [pc, #152]	; 4031f0 <__sinit.part.1+0xe0>
  403158:	f8df a098 	ldr.w	sl, [pc, #152]	; 4031f4 <__sinit.part.1+0xe4>
  40315c:	f8df 9098 	ldr.w	r9, [pc, #152]	; 4031f8 <__sinit.part.1+0xe8>
  403160:	f8df 8098 	ldr.w	r8, [pc, #152]	; 4031fc <__sinit.part.1+0xec>
  403164:	f8c5 b020 	str.w	fp, [r5, #32]
  403168:	2301      	movs	r3, #1
  40316a:	2209      	movs	r2, #9
  40316c:	f8c5 a024 	str.w	sl, [r5, #36]	; 0x24
  403170:	f8c5 9028 	str.w	r9, [r5, #40]	; 0x28
  403174:	f8c5 802c 	str.w	r8, [r5, #44]	; 0x2c
  403178:	61ed      	str	r5, [r5, #28]
  40317a:	4621      	mov	r1, r4
  40317c:	81f3      	strh	r3, [r6, #14]
  40317e:	81b2      	strh	r2, [r6, #12]
  403180:	f106 005c 	add.w	r0, r6, #92	; 0x5c
  403184:	6034      	str	r4, [r6, #0]
  403186:	6074      	str	r4, [r6, #4]
  403188:	60b4      	str	r4, [r6, #8]
  40318a:	6674      	str	r4, [r6, #100]	; 0x64
  40318c:	6134      	str	r4, [r6, #16]
  40318e:	6174      	str	r4, [r6, #20]
  403190:	61b4      	str	r4, [r6, #24]
  403192:	2208      	movs	r2, #8
  403194:	9301      	str	r3, [sp, #4]
  403196:	f7fe fdd9 	bl	401d4c <memset>
  40319a:	68fd      	ldr	r5, [r7, #12]
  40319c:	61f6      	str	r6, [r6, #28]
  40319e:	2012      	movs	r0, #18
  4031a0:	2202      	movs	r2, #2
  4031a2:	f8c6 b020 	str.w	fp, [r6, #32]
  4031a6:	f8c6 a024 	str.w	sl, [r6, #36]	; 0x24
  4031aa:	f8c6 9028 	str.w	r9, [r6, #40]	; 0x28
  4031ae:	f8c6 802c 	str.w	r8, [r6, #44]	; 0x2c
  4031b2:	4621      	mov	r1, r4
  4031b4:	81a8      	strh	r0, [r5, #12]
  4031b6:	81ea      	strh	r2, [r5, #14]
  4031b8:	602c      	str	r4, [r5, #0]
  4031ba:	606c      	str	r4, [r5, #4]
  4031bc:	60ac      	str	r4, [r5, #8]
  4031be:	666c      	str	r4, [r5, #100]	; 0x64
  4031c0:	612c      	str	r4, [r5, #16]
  4031c2:	616c      	str	r4, [r5, #20]
  4031c4:	61ac      	str	r4, [r5, #24]
  4031c6:	f105 005c 	add.w	r0, r5, #92	; 0x5c
  4031ca:	2208      	movs	r2, #8
  4031cc:	f7fe fdbe 	bl	401d4c <memset>
  4031d0:	9b01      	ldr	r3, [sp, #4]
  4031d2:	61ed      	str	r5, [r5, #28]
  4031d4:	f8c5 b020 	str.w	fp, [r5, #32]
  4031d8:	f8c5 a024 	str.w	sl, [r5, #36]	; 0x24
  4031dc:	f8c5 9028 	str.w	r9, [r5, #40]	; 0x28
  4031e0:	f8c5 802c 	str.w	r8, [r5, #44]	; 0x2c
  4031e4:	63bb      	str	r3, [r7, #56]	; 0x38
  4031e6:	b003      	add	sp, #12
  4031e8:	e8bd 8ff0 	ldmia.w	sp!, {r4, r5, r6, r7, r8, r9, sl, fp, pc}
  4031ec:	00403105 	.word	0x00403105
  4031f0:	004044b5 	.word	0x004044b5
  4031f4:	004044d9 	.word	0x004044d9
  4031f8:	00404515 	.word	0x00404515
  4031fc:	00404535 	.word	0x00404535

00403200 <__sinit>:
  403200:	6b83      	ldr	r3, [r0, #56]	; 0x38
  403202:	b103      	cbz	r3, 403206 <__sinit+0x6>
  403204:	4770      	bx	lr
  403206:	f7ff bf83 	b.w	403110 <__sinit.part.1>
  40320a:	bf00      	nop

0040320c <__sfp_lock_acquire>:
  40320c:	4770      	bx	lr
  40320e:	bf00      	nop

00403210 <__sfp_lock_release>:
  403210:	4770      	bx	lr
  403212:	bf00      	nop

00403214 <__libc_fini_array>:
  403214:	b538      	push	{r3, r4, r5, lr}
  403216:	4d07      	ldr	r5, [pc, #28]	; (403234 <__libc_fini_array+0x20>)
  403218:	4c07      	ldr	r4, [pc, #28]	; (403238 <__libc_fini_array+0x24>)
  40321a:	1b2c      	subs	r4, r5, r4
  40321c:	10a4      	asrs	r4, r4, #2
  40321e:	d005      	beq.n	40322c <__libc_fini_array+0x18>
  403220:	3c01      	subs	r4, #1
  403222:	f855 3d04 	ldr.w	r3, [r5, #-4]!
  403226:	4798      	blx	r3
  403228:	2c00      	cmp	r4, #0
  40322a:	d1f9      	bne.n	403220 <__libc_fini_array+0xc>
  40322c:	e8bd 4038 	ldmia.w	sp!, {r3, r4, r5, lr}
  403230:	f009 b9fe 	b.w	40c630 <_fini>
  403234:	0040c640 	.word	0x0040c640
  403238:	0040c63c 	.word	0x0040c63c

0040323c <__fputwc>:
  40323c:	e92d 47f0 	stmdb	sp!, {r4, r5, r6, r7, r8, r9, sl, lr}
  403240:	b082      	sub	sp, #8
  403242:	4680      	mov	r8, r0
  403244:	4689      	mov	r9, r1
  403246:	4614      	mov	r4, r2
  403248:	f000 fb3c 	bl	4038c4 <__locale_mb_cur_max>
  40324c:	2801      	cmp	r0, #1
  40324e:	d033      	beq.n	4032b8 <__fputwc+0x7c>
  403250:	f104 035c 	add.w	r3, r4, #92	; 0x5c
  403254:	464a      	mov	r2, r9
  403256:	a901      	add	r1, sp, #4
  403258:	4640      	mov	r0, r8
  40325a:	f001 fa35 	bl	4046c8 <_wcrtomb_r>
  40325e:	f1b0 3fff 	cmp.w	r0, #4294967295
  403262:	4682      	mov	sl, r0
  403264:	d021      	beq.n	4032aa <__fputwc+0x6e>
  403266:	b388      	cbz	r0, 4032cc <__fputwc+0x90>
  403268:	f89d 6004 	ldrb.w	r6, [sp, #4]
  40326c:	2500      	movs	r5, #0
  40326e:	e008      	b.n	403282 <__fputwc+0x46>
  403270:	6823      	ldr	r3, [r4, #0]
  403272:	1c5a      	adds	r2, r3, #1
  403274:	6022      	str	r2, [r4, #0]
  403276:	701e      	strb	r6, [r3, #0]
  403278:	3501      	adds	r5, #1
  40327a:	4555      	cmp	r5, sl
  40327c:	d226      	bcs.n	4032cc <__fputwc+0x90>
  40327e:	ab01      	add	r3, sp, #4
  403280:	5d5e      	ldrb	r6, [r3, r5]
  403282:	68a3      	ldr	r3, [r4, #8]
  403284:	3b01      	subs	r3, #1
  403286:	2b00      	cmp	r3, #0
  403288:	60a3      	str	r3, [r4, #8]
  40328a:	daf1      	bge.n	403270 <__fputwc+0x34>
  40328c:	69a7      	ldr	r7, [r4, #24]
  40328e:	42bb      	cmp	r3, r7
  403290:	4631      	mov	r1, r6
  403292:	4622      	mov	r2, r4
  403294:	4640      	mov	r0, r8
  403296:	db01      	blt.n	40329c <__fputwc+0x60>
  403298:	2e0a      	cmp	r6, #10
  40329a:	d1e9      	bne.n	403270 <__fputwc+0x34>
  40329c:	f001 f9be 	bl	40461c <__swbuf_r>
  4032a0:	1c43      	adds	r3, r0, #1
  4032a2:	d1e9      	bne.n	403278 <__fputwc+0x3c>
  4032a4:	b002      	add	sp, #8
  4032a6:	e8bd 87f0 	ldmia.w	sp!, {r4, r5, r6, r7, r8, r9, sl, pc}
  4032aa:	89a3      	ldrh	r3, [r4, #12]
  4032ac:	f043 0340 	orr.w	r3, r3, #64	; 0x40
  4032b0:	81a3      	strh	r3, [r4, #12]
  4032b2:	b002      	add	sp, #8
  4032b4:	e8bd 87f0 	ldmia.w	sp!, {r4, r5, r6, r7, r8, r9, sl, pc}
  4032b8:	f109 33ff 	add.w	r3, r9, #4294967295
  4032bc:	2bfe      	cmp	r3, #254	; 0xfe
  4032be:	d8c7      	bhi.n	403250 <__fputwc+0x14>
  4032c0:	fa5f f689 	uxtb.w	r6, r9
  4032c4:	4682      	mov	sl, r0
  4032c6:	f88d 6004 	strb.w	r6, [sp, #4]
  4032ca:	e7cf      	b.n	40326c <__fputwc+0x30>
  4032cc:	4648      	mov	r0, r9
  4032ce:	b002      	add	sp, #8
  4032d0:	e8bd 87f0 	ldmia.w	sp!, {r4, r5, r6, r7, r8, r9, sl, pc}

004032d4 <_fputwc_r>:
  4032d4:	f9b2 300c 	ldrsh.w	r3, [r2, #12]
  4032d8:	f413 5f00 	tst.w	r3, #8192	; 0x2000
  4032dc:	d10a      	bne.n	4032f4 <_fputwc_r+0x20>
  4032de:	b410      	push	{r4}
  4032e0:	6e54      	ldr	r4, [r2, #100]	; 0x64
  4032e2:	f443 5300 	orr.w	r3, r3, #8192	; 0x2000
  4032e6:	f444 5400 	orr.w	r4, r4, #8192	; 0x2000
  4032ea:	6654      	str	r4, [r2, #100]	; 0x64
  4032ec:	8193      	strh	r3, [r2, #12]
  4032ee:	bc10      	pop	{r4}
  4032f0:	f7ff bfa4 	b.w	40323c <__fputwc>
  4032f4:	f7ff bfa2 	b.w	40323c <__fputwc>

004032f8 <_malloc_trim_r>:
  4032f8:	b5f8      	push	{r3, r4, r5, r6, r7, lr}
  4032fa:	4f23      	ldr	r7, [pc, #140]	; (403388 <_malloc_trim_r+0x90>)
  4032fc:	460c      	mov	r4, r1
  4032fe:	4606      	mov	r6, r0
  403300:	f000 fed2 	bl	4040a8 <__malloc_lock>
  403304:	68bb      	ldr	r3, [r7, #8]
  403306:	685d      	ldr	r5, [r3, #4]
  403308:	f025 0503 	bic.w	r5, r5, #3
  40330c:	1b29      	subs	r1, r5, r4
  40330e:	f601 71ef 	addw	r1, r1, #4079	; 0xfef
  403312:	f421 617f 	bic.w	r1, r1, #4080	; 0xff0
  403316:	f021 010f 	bic.w	r1, r1, #15
  40331a:	f5a1 5480 	sub.w	r4, r1, #4096	; 0x1000
  40331e:	f5b4 5f80 	cmp.w	r4, #4096	; 0x1000
  403322:	db07      	blt.n	403334 <_malloc_trim_r+0x3c>
  403324:	2100      	movs	r1, #0
  403326:	4630      	mov	r0, r6
  403328:	f001 f8b2 	bl	404490 <_sbrk_r>
  40332c:	68bb      	ldr	r3, [r7, #8]
  40332e:	442b      	add	r3, r5
  403330:	4298      	cmp	r0, r3
  403332:	d004      	beq.n	40333e <_malloc_trim_r+0x46>
  403334:	4630      	mov	r0, r6
  403336:	f000 feb9 	bl	4040ac <__malloc_unlock>
  40333a:	2000      	movs	r0, #0
  40333c:	bdf8      	pop	{r3, r4, r5, r6, r7, pc}
  40333e:	4261      	negs	r1, r4
  403340:	4630      	mov	r0, r6
  403342:	f001 f8a5 	bl	404490 <_sbrk_r>
  403346:	3001      	adds	r0, #1
  403348:	d00d      	beq.n	403366 <_malloc_trim_r+0x6e>
  40334a:	4b10      	ldr	r3, [pc, #64]	; (40338c <_malloc_trim_r+0x94>)
  40334c:	68ba      	ldr	r2, [r7, #8]
  40334e:	6819      	ldr	r1, [r3, #0]
  403350:	1b2d      	subs	r5, r5, r4
  403352:	f045 0501 	orr.w	r5, r5, #1
  403356:	4630      	mov	r0, r6
  403358:	1b09      	subs	r1, r1, r4
  40335a:	6055      	str	r5, [r2, #4]
  40335c:	6019      	str	r1, [r3, #0]
  40335e:	f000 fea5 	bl	4040ac <__malloc_unlock>
  403362:	2001      	movs	r0, #1
  403364:	bdf8      	pop	{r3, r4, r5, r6, r7, pc}
  403366:	2100      	movs	r1, #0
  403368:	4630      	mov	r0, r6
  40336a:	f001 f891 	bl	404490 <_sbrk_r>
  40336e:	68ba      	ldr	r2, [r7, #8]
  403370:	1a83      	subs	r3, r0, r2
  403372:	2b0f      	cmp	r3, #15
  403374:	ddde      	ble.n	403334 <_malloc_trim_r+0x3c>
  403376:	4c06      	ldr	r4, [pc, #24]	; (403390 <_malloc_trim_r+0x98>)
  403378:	4904      	ldr	r1, [pc, #16]	; (40338c <_malloc_trim_r+0x94>)
  40337a:	6824      	ldr	r4, [r4, #0]
  40337c:	f043 0301 	orr.w	r3, r3, #1
  403380:	1b00      	subs	r0, r0, r4
  403382:	6053      	str	r3, [r2, #4]
  403384:	6008      	str	r0, [r1, #0]
  403386:	e7d5      	b.n	403334 <_malloc_trim_r+0x3c>
  403388:	20400458 	.word	0x20400458
  40338c:	20400ccc 	.word	0x20400ccc
  403390:	20400864 	.word	0x20400864

00403394 <_free_r>:
  403394:	2900      	cmp	r1, #0
  403396:	d045      	beq.n	403424 <_free_r+0x90>
  403398:	e92d 41f0 	stmdb	sp!, {r4, r5, r6, r7, r8, lr}
  40339c:	460d      	mov	r5, r1
  40339e:	4680      	mov	r8, r0
  4033a0:	f000 fe82 	bl	4040a8 <__malloc_lock>
  4033a4:	f855 7c04 	ldr.w	r7, [r5, #-4]
  4033a8:	496a      	ldr	r1, [pc, #424]	; (403554 <_free_r+0x1c0>)
  4033aa:	f027 0301 	bic.w	r3, r7, #1
  4033ae:	f1a5 0408 	sub.w	r4, r5, #8
  4033b2:	18e2      	adds	r2, r4, r3
  4033b4:	688e      	ldr	r6, [r1, #8]
  4033b6:	6850      	ldr	r0, [r2, #4]
  4033b8:	42b2      	cmp	r2, r6
  4033ba:	f020 0003 	bic.w	r0, r0, #3
  4033be:	d062      	beq.n	403486 <_free_r+0xf2>
  4033c0:	07fe      	lsls	r6, r7, #31
  4033c2:	6050      	str	r0, [r2, #4]
  4033c4:	d40b      	bmi.n	4033de <_free_r+0x4a>
  4033c6:	f855 7c08 	ldr.w	r7, [r5, #-8]
  4033ca:	1be4      	subs	r4, r4, r7
  4033cc:	f101 0e08 	add.w	lr, r1, #8
  4033d0:	68a5      	ldr	r5, [r4, #8]
  4033d2:	4575      	cmp	r5, lr
  4033d4:	443b      	add	r3, r7
  4033d6:	d06f      	beq.n	4034b8 <_free_r+0x124>
  4033d8:	68e7      	ldr	r7, [r4, #12]
  4033da:	60ef      	str	r7, [r5, #12]
  4033dc:	60bd      	str	r5, [r7, #8]
  4033de:	1815      	adds	r5, r2, r0
  4033e0:	686d      	ldr	r5, [r5, #4]
  4033e2:	07ed      	lsls	r5, r5, #31
  4033e4:	d542      	bpl.n	40346c <_free_r+0xd8>
  4033e6:	f043 0201 	orr.w	r2, r3, #1
  4033ea:	6062      	str	r2, [r4, #4]
  4033ec:	50e3      	str	r3, [r4, r3]
  4033ee:	f5b3 7f00 	cmp.w	r3, #512	; 0x200
  4033f2:	d218      	bcs.n	403426 <_free_r+0x92>
  4033f4:	08db      	lsrs	r3, r3, #3
  4033f6:	1c5a      	adds	r2, r3, #1
  4033f8:	684d      	ldr	r5, [r1, #4]
  4033fa:	f851 7032 	ldr.w	r7, [r1, r2, lsl #3]
  4033fe:	60a7      	str	r7, [r4, #8]
  403400:	2001      	movs	r0, #1
  403402:	109b      	asrs	r3, r3, #2
  403404:	fa00 f303 	lsl.w	r3, r0, r3
  403408:	eb01 00c2 	add.w	r0, r1, r2, lsl #3
  40340c:	431d      	orrs	r5, r3
  40340e:	3808      	subs	r0, #8
  403410:	60e0      	str	r0, [r4, #12]
  403412:	604d      	str	r5, [r1, #4]
  403414:	f841 4032 	str.w	r4, [r1, r2, lsl #3]
  403418:	60fc      	str	r4, [r7, #12]
  40341a:	4640      	mov	r0, r8
  40341c:	e8bd 41f0 	ldmia.w	sp!, {r4, r5, r6, r7, r8, lr}
  403420:	f000 be44 	b.w	4040ac <__malloc_unlock>
  403424:	4770      	bx	lr
  403426:	0a5a      	lsrs	r2, r3, #9
  403428:	2a04      	cmp	r2, #4
  40342a:	d853      	bhi.n	4034d4 <_free_r+0x140>
  40342c:	099a      	lsrs	r2, r3, #6
  40342e:	f102 0739 	add.w	r7, r2, #57	; 0x39
  403432:	007f      	lsls	r7, r7, #1
  403434:	f102 0538 	add.w	r5, r2, #56	; 0x38
  403438:	eb01 0087 	add.w	r0, r1, r7, lsl #2
  40343c:	f851 2027 	ldr.w	r2, [r1, r7, lsl #2]
  403440:	4944      	ldr	r1, [pc, #272]	; (403554 <_free_r+0x1c0>)
  403442:	3808      	subs	r0, #8
  403444:	4290      	cmp	r0, r2
  403446:	d04d      	beq.n	4034e4 <_free_r+0x150>
  403448:	6851      	ldr	r1, [r2, #4]
  40344a:	f021 0103 	bic.w	r1, r1, #3
  40344e:	428b      	cmp	r3, r1
  403450:	d202      	bcs.n	403458 <_free_r+0xc4>
  403452:	6892      	ldr	r2, [r2, #8]
  403454:	4290      	cmp	r0, r2
  403456:	d1f7      	bne.n	403448 <_free_r+0xb4>
  403458:	68d0      	ldr	r0, [r2, #12]
  40345a:	60e0      	str	r0, [r4, #12]
  40345c:	60a2      	str	r2, [r4, #8]
  40345e:	6084      	str	r4, [r0, #8]
  403460:	60d4      	str	r4, [r2, #12]
  403462:	4640      	mov	r0, r8
  403464:	e8bd 41f0 	ldmia.w	sp!, {r4, r5, r6, r7, r8, lr}
  403468:	f000 be20 	b.w	4040ac <__malloc_unlock>
  40346c:	6895      	ldr	r5, [r2, #8]
  40346e:	4f3a      	ldr	r7, [pc, #232]	; (403558 <_free_r+0x1c4>)
  403470:	42bd      	cmp	r5, r7
  403472:	4403      	add	r3, r0
  403474:	d03f      	beq.n	4034f6 <_free_r+0x162>
  403476:	68d0      	ldr	r0, [r2, #12]
  403478:	60e8      	str	r0, [r5, #12]
  40347a:	f043 0201 	orr.w	r2, r3, #1
  40347e:	6085      	str	r5, [r0, #8]
  403480:	6062      	str	r2, [r4, #4]
  403482:	50e3      	str	r3, [r4, r3]
  403484:	e7b3      	b.n	4033ee <_free_r+0x5a>
  403486:	07ff      	lsls	r7, r7, #31
  403488:	4403      	add	r3, r0
  40348a:	d407      	bmi.n	40349c <_free_r+0x108>
  40348c:	f855 2c08 	ldr.w	r2, [r5, #-8]
  403490:	1aa4      	subs	r4, r4, r2
  403492:	4413      	add	r3, r2
  403494:	68a0      	ldr	r0, [r4, #8]
  403496:	68e2      	ldr	r2, [r4, #12]
  403498:	60c2      	str	r2, [r0, #12]
  40349a:	6090      	str	r0, [r2, #8]
  40349c:	4a2f      	ldr	r2, [pc, #188]	; (40355c <_free_r+0x1c8>)
  40349e:	6812      	ldr	r2, [r2, #0]
  4034a0:	f043 0001 	orr.w	r0, r3, #1
  4034a4:	4293      	cmp	r3, r2
  4034a6:	6060      	str	r0, [r4, #4]
  4034a8:	608c      	str	r4, [r1, #8]
  4034aa:	d3b6      	bcc.n	40341a <_free_r+0x86>
  4034ac:	4b2c      	ldr	r3, [pc, #176]	; (403560 <_free_r+0x1cc>)
  4034ae:	4640      	mov	r0, r8
  4034b0:	6819      	ldr	r1, [r3, #0]
  4034b2:	f7ff ff21 	bl	4032f8 <_malloc_trim_r>
  4034b6:	e7b0      	b.n	40341a <_free_r+0x86>
  4034b8:	1811      	adds	r1, r2, r0
  4034ba:	6849      	ldr	r1, [r1, #4]
  4034bc:	07c9      	lsls	r1, r1, #31
  4034be:	d444      	bmi.n	40354a <_free_r+0x1b6>
  4034c0:	6891      	ldr	r1, [r2, #8]
  4034c2:	68d2      	ldr	r2, [r2, #12]
  4034c4:	60ca      	str	r2, [r1, #12]
  4034c6:	4403      	add	r3, r0
  4034c8:	f043 0001 	orr.w	r0, r3, #1
  4034cc:	6091      	str	r1, [r2, #8]
  4034ce:	6060      	str	r0, [r4, #4]
  4034d0:	50e3      	str	r3, [r4, r3]
  4034d2:	e7a2      	b.n	40341a <_free_r+0x86>
  4034d4:	2a14      	cmp	r2, #20
  4034d6:	d817      	bhi.n	403508 <_free_r+0x174>
  4034d8:	f102 075c 	add.w	r7, r2, #92	; 0x5c
  4034dc:	007f      	lsls	r7, r7, #1
  4034de:	f102 055b 	add.w	r5, r2, #91	; 0x5b
  4034e2:	e7a9      	b.n	403438 <_free_r+0xa4>
  4034e4:	10aa      	asrs	r2, r5, #2
  4034e6:	684b      	ldr	r3, [r1, #4]
  4034e8:	2501      	movs	r5, #1
  4034ea:	fa05 f202 	lsl.w	r2, r5, r2
  4034ee:	4313      	orrs	r3, r2
  4034f0:	604b      	str	r3, [r1, #4]
  4034f2:	4602      	mov	r2, r0
  4034f4:	e7b1      	b.n	40345a <_free_r+0xc6>
  4034f6:	f043 0201 	orr.w	r2, r3, #1
  4034fa:	614c      	str	r4, [r1, #20]
  4034fc:	610c      	str	r4, [r1, #16]
  4034fe:	60e5      	str	r5, [r4, #12]
  403500:	60a5      	str	r5, [r4, #8]
  403502:	6062      	str	r2, [r4, #4]
  403504:	50e3      	str	r3, [r4, r3]
  403506:	e788      	b.n	40341a <_free_r+0x86>
  403508:	2a54      	cmp	r2, #84	; 0x54
  40350a:	d806      	bhi.n	40351a <_free_r+0x186>
  40350c:	0b1a      	lsrs	r2, r3, #12
  40350e:	f102 076f 	add.w	r7, r2, #111	; 0x6f
  403512:	007f      	lsls	r7, r7, #1
  403514:	f102 056e 	add.w	r5, r2, #110	; 0x6e
  403518:	e78e      	b.n	403438 <_free_r+0xa4>
  40351a:	f5b2 7faa 	cmp.w	r2, #340	; 0x154
  40351e:	d806      	bhi.n	40352e <_free_r+0x19a>
  403520:	0bda      	lsrs	r2, r3, #15
  403522:	f102 0778 	add.w	r7, r2, #120	; 0x78
  403526:	007f      	lsls	r7, r7, #1
  403528:	f102 0577 	add.w	r5, r2, #119	; 0x77
  40352c:	e784      	b.n	403438 <_free_r+0xa4>
  40352e:	f240 5054 	movw	r0, #1364	; 0x554
  403532:	4282      	cmp	r2, r0
  403534:	d806      	bhi.n	403544 <_free_r+0x1b0>
  403536:	0c9a      	lsrs	r2, r3, #18
  403538:	f102 077d 	add.w	r7, r2, #125	; 0x7d
  40353c:	007f      	lsls	r7, r7, #1
  40353e:	f102 057c 	add.w	r5, r2, #124	; 0x7c
  403542:	e779      	b.n	403438 <_free_r+0xa4>
  403544:	27fe      	movs	r7, #254	; 0xfe
  403546:	257e      	movs	r5, #126	; 0x7e
  403548:	e776      	b.n	403438 <_free_r+0xa4>
  40354a:	f043 0201 	orr.w	r2, r3, #1
  40354e:	6062      	str	r2, [r4, #4]
  403550:	50e3      	str	r3, [r4, r3]
  403552:	e762      	b.n	40341a <_free_r+0x86>
  403554:	20400458 	.word	0x20400458
  403558:	20400460 	.word	0x20400460
  40355c:	20400860 	.word	0x20400860
  403560:	20400cc8 	.word	0x20400cc8

00403564 <__sfvwrite_r>:
  403564:	6893      	ldr	r3, [r2, #8]
  403566:	2b00      	cmp	r3, #0
  403568:	d076      	beq.n	403658 <__sfvwrite_r+0xf4>
  40356a:	e92d 4ff0 	stmdb	sp!, {r4, r5, r6, r7, r8, r9, sl, fp, lr}
  40356e:	898b      	ldrh	r3, [r1, #12]
  403570:	b085      	sub	sp, #20
  403572:	460c      	mov	r4, r1
  403574:	0719      	lsls	r1, r3, #28
  403576:	9001      	str	r0, [sp, #4]
  403578:	4616      	mov	r6, r2
  40357a:	d529      	bpl.n	4035d0 <__sfvwrite_r+0x6c>
  40357c:	6922      	ldr	r2, [r4, #16]
  40357e:	b33a      	cbz	r2, 4035d0 <__sfvwrite_r+0x6c>
  403580:	f003 0802 	and.w	r8, r3, #2
  403584:	fa1f f088 	uxth.w	r0, r8
  403588:	6835      	ldr	r5, [r6, #0]
  40358a:	2800      	cmp	r0, #0
  40358c:	d02f      	beq.n	4035ee <__sfvwrite_r+0x8a>
  40358e:	f04f 0900 	mov.w	r9, #0
  403592:	4fb4      	ldr	r7, [pc, #720]	; (403864 <__sfvwrite_r+0x300>)
  403594:	46c8      	mov	r8, r9
  403596:	46b2      	mov	sl, r6
  403598:	45b8      	cmp	r8, r7
  40359a:	4643      	mov	r3, r8
  40359c:	464a      	mov	r2, r9
  40359e:	bf28      	it	cs
  4035a0:	463b      	movcs	r3, r7
  4035a2:	9801      	ldr	r0, [sp, #4]
  4035a4:	f1b8 0f00 	cmp.w	r8, #0
  4035a8:	d050      	beq.n	40364c <__sfvwrite_r+0xe8>
  4035aa:	69e1      	ldr	r1, [r4, #28]
  4035ac:	6a66      	ldr	r6, [r4, #36]	; 0x24
  4035ae:	47b0      	blx	r6
  4035b0:	2800      	cmp	r0, #0
  4035b2:	dd71      	ble.n	403698 <__sfvwrite_r+0x134>
  4035b4:	f8da 3008 	ldr.w	r3, [sl, #8]
  4035b8:	1a1b      	subs	r3, r3, r0
  4035ba:	4481      	add	r9, r0
  4035bc:	ebc0 0808 	rsb	r8, r0, r8
  4035c0:	f8ca 3008 	str.w	r3, [sl, #8]
  4035c4:	2b00      	cmp	r3, #0
  4035c6:	d1e7      	bne.n	403598 <__sfvwrite_r+0x34>
  4035c8:	2000      	movs	r0, #0
  4035ca:	b005      	add	sp, #20
  4035cc:	e8bd 8ff0 	ldmia.w	sp!, {r4, r5, r6, r7, r8, r9, sl, fp, pc}
  4035d0:	4621      	mov	r1, r4
  4035d2:	9801      	ldr	r0, [sp, #4]
  4035d4:	f7ff fc68 	bl	402ea8 <__swsetup_r>
  4035d8:	2800      	cmp	r0, #0
  4035da:	f040 813a 	bne.w	403852 <__sfvwrite_r+0x2ee>
  4035de:	89a3      	ldrh	r3, [r4, #12]
  4035e0:	6835      	ldr	r5, [r6, #0]
  4035e2:	f003 0802 	and.w	r8, r3, #2
  4035e6:	fa1f f088 	uxth.w	r0, r8
  4035ea:	2800      	cmp	r0, #0
  4035ec:	d1cf      	bne.n	40358e <__sfvwrite_r+0x2a>
  4035ee:	f013 0901 	ands.w	r9, r3, #1
  4035f2:	d15b      	bne.n	4036ac <__sfvwrite_r+0x148>
  4035f4:	464f      	mov	r7, r9
  4035f6:	9602      	str	r6, [sp, #8]
  4035f8:	b31f      	cbz	r7, 403642 <__sfvwrite_r+0xde>
  4035fa:	059a      	lsls	r2, r3, #22
  4035fc:	f8d4 8008 	ldr.w	r8, [r4, #8]
  403600:	d52c      	bpl.n	40365c <__sfvwrite_r+0xf8>
  403602:	4547      	cmp	r7, r8
  403604:	46c2      	mov	sl, r8
  403606:	f0c0 80a4 	bcc.w	403752 <__sfvwrite_r+0x1ee>
  40360a:	f413 6f90 	tst.w	r3, #1152	; 0x480
  40360e:	f040 80b1 	bne.w	403774 <__sfvwrite_r+0x210>
  403612:	6820      	ldr	r0, [r4, #0]
  403614:	4652      	mov	r2, sl
  403616:	4649      	mov	r1, r9
  403618:	f000 fce2 	bl	403fe0 <memmove>
  40361c:	68a0      	ldr	r0, [r4, #8]
  40361e:	6823      	ldr	r3, [r4, #0]
  403620:	ebc8 0000 	rsb	r0, r8, r0
  403624:	4453      	add	r3, sl
  403626:	60a0      	str	r0, [r4, #8]
  403628:	6023      	str	r3, [r4, #0]
  40362a:	4638      	mov	r0, r7
  40362c:	9a02      	ldr	r2, [sp, #8]
  40362e:	6893      	ldr	r3, [r2, #8]
  403630:	1a1b      	subs	r3, r3, r0
  403632:	4481      	add	r9, r0
  403634:	1a3f      	subs	r7, r7, r0
  403636:	6093      	str	r3, [r2, #8]
  403638:	2b00      	cmp	r3, #0
  40363a:	d0c5      	beq.n	4035c8 <__sfvwrite_r+0x64>
  40363c:	89a3      	ldrh	r3, [r4, #12]
  40363e:	2f00      	cmp	r7, #0
  403640:	d1db      	bne.n	4035fa <__sfvwrite_r+0x96>
  403642:	f8d5 9000 	ldr.w	r9, [r5]
  403646:	686f      	ldr	r7, [r5, #4]
  403648:	3508      	adds	r5, #8
  40364a:	e7d5      	b.n	4035f8 <__sfvwrite_r+0x94>
  40364c:	f8d5 9000 	ldr.w	r9, [r5]
  403650:	f8d5 8004 	ldr.w	r8, [r5, #4]
  403654:	3508      	adds	r5, #8
  403656:	e79f      	b.n	403598 <__sfvwrite_r+0x34>
  403658:	2000      	movs	r0, #0
  40365a:	4770      	bx	lr
  40365c:	6820      	ldr	r0, [r4, #0]
  40365e:	6923      	ldr	r3, [r4, #16]
  403660:	4298      	cmp	r0, r3
  403662:	d803      	bhi.n	40366c <__sfvwrite_r+0x108>
  403664:	6961      	ldr	r1, [r4, #20]
  403666:	428f      	cmp	r7, r1
  403668:	f080 80b7 	bcs.w	4037da <__sfvwrite_r+0x276>
  40366c:	45b8      	cmp	r8, r7
  40366e:	bf28      	it	cs
  403670:	46b8      	movcs	r8, r7
  403672:	4642      	mov	r2, r8
  403674:	4649      	mov	r1, r9
  403676:	f000 fcb3 	bl	403fe0 <memmove>
  40367a:	68a3      	ldr	r3, [r4, #8]
  40367c:	6822      	ldr	r2, [r4, #0]
  40367e:	ebc8 0303 	rsb	r3, r8, r3
  403682:	4442      	add	r2, r8
  403684:	60a3      	str	r3, [r4, #8]
  403686:	6022      	str	r2, [r4, #0]
  403688:	2b00      	cmp	r3, #0
  40368a:	d149      	bne.n	403720 <__sfvwrite_r+0x1bc>
  40368c:	4621      	mov	r1, r4
  40368e:	9801      	ldr	r0, [sp, #4]
  403690:	f7ff fd22 	bl	4030d8 <_fflush_r>
  403694:	2800      	cmp	r0, #0
  403696:	d043      	beq.n	403720 <__sfvwrite_r+0x1bc>
  403698:	f9b4 300c 	ldrsh.w	r3, [r4, #12]
  40369c:	f043 0340 	orr.w	r3, r3, #64	; 0x40
  4036a0:	f04f 30ff 	mov.w	r0, #4294967295
  4036a4:	81a3      	strh	r3, [r4, #12]
  4036a6:	b005      	add	sp, #20
  4036a8:	e8bd 8ff0 	ldmia.w	sp!, {r4, r5, r6, r7, r8, r9, sl, fp, pc}
  4036ac:	4680      	mov	r8, r0
  4036ae:	9002      	str	r0, [sp, #8]
  4036b0:	4682      	mov	sl, r0
  4036b2:	4681      	mov	r9, r0
  4036b4:	f1b9 0f00 	cmp.w	r9, #0
  4036b8:	d02a      	beq.n	403710 <__sfvwrite_r+0x1ac>
  4036ba:	9b02      	ldr	r3, [sp, #8]
  4036bc:	2b00      	cmp	r3, #0
  4036be:	d04c      	beq.n	40375a <__sfvwrite_r+0x1f6>
  4036c0:	6820      	ldr	r0, [r4, #0]
  4036c2:	6923      	ldr	r3, [r4, #16]
  4036c4:	6962      	ldr	r2, [r4, #20]
  4036c6:	45c8      	cmp	r8, r9
  4036c8:	46c3      	mov	fp, r8
  4036ca:	bf28      	it	cs
  4036cc:	46cb      	movcs	fp, r9
  4036ce:	4298      	cmp	r0, r3
  4036d0:	465f      	mov	r7, fp
  4036d2:	d904      	bls.n	4036de <__sfvwrite_r+0x17a>
  4036d4:	68a3      	ldr	r3, [r4, #8]
  4036d6:	4413      	add	r3, r2
  4036d8:	459b      	cmp	fp, r3
  4036da:	f300 8090 	bgt.w	4037fe <__sfvwrite_r+0x29a>
  4036de:	4593      	cmp	fp, r2
  4036e0:	db20      	blt.n	403724 <__sfvwrite_r+0x1c0>
  4036e2:	4613      	mov	r3, r2
  4036e4:	6a67      	ldr	r7, [r4, #36]	; 0x24
  4036e6:	69e1      	ldr	r1, [r4, #28]
  4036e8:	9801      	ldr	r0, [sp, #4]
  4036ea:	4652      	mov	r2, sl
  4036ec:	47b8      	blx	r7
  4036ee:	1e07      	subs	r7, r0, #0
  4036f0:	ddd2      	ble.n	403698 <__sfvwrite_r+0x134>
  4036f2:	ebb8 0807 	subs.w	r8, r8, r7
  4036f6:	d023      	beq.n	403740 <__sfvwrite_r+0x1dc>
  4036f8:	68b3      	ldr	r3, [r6, #8]
  4036fa:	1bdb      	subs	r3, r3, r7
  4036fc:	44ba      	add	sl, r7
  4036fe:	ebc7 0909 	rsb	r9, r7, r9
  403702:	60b3      	str	r3, [r6, #8]
  403704:	2b00      	cmp	r3, #0
  403706:	f43f af5f 	beq.w	4035c8 <__sfvwrite_r+0x64>
  40370a:	f1b9 0f00 	cmp.w	r9, #0
  40370e:	d1d4      	bne.n	4036ba <__sfvwrite_r+0x156>
  403710:	2300      	movs	r3, #0
  403712:	f8d5 a000 	ldr.w	sl, [r5]
  403716:	f8d5 9004 	ldr.w	r9, [r5, #4]
  40371a:	9302      	str	r3, [sp, #8]
  40371c:	3508      	adds	r5, #8
  40371e:	e7c9      	b.n	4036b4 <__sfvwrite_r+0x150>
  403720:	4640      	mov	r0, r8
  403722:	e783      	b.n	40362c <__sfvwrite_r+0xc8>
  403724:	465a      	mov	r2, fp
  403726:	4651      	mov	r1, sl
  403728:	f000 fc5a 	bl	403fe0 <memmove>
  40372c:	68a2      	ldr	r2, [r4, #8]
  40372e:	6823      	ldr	r3, [r4, #0]
  403730:	ebcb 0202 	rsb	r2, fp, r2
  403734:	445b      	add	r3, fp
  403736:	ebb8 0807 	subs.w	r8, r8, r7
  40373a:	60a2      	str	r2, [r4, #8]
  40373c:	6023      	str	r3, [r4, #0]
  40373e:	d1db      	bne.n	4036f8 <__sfvwrite_r+0x194>
  403740:	4621      	mov	r1, r4
  403742:	9801      	ldr	r0, [sp, #4]
  403744:	f7ff fcc8 	bl	4030d8 <_fflush_r>
  403748:	2800      	cmp	r0, #0
  40374a:	d1a5      	bne.n	403698 <__sfvwrite_r+0x134>
  40374c:	f8cd 8008 	str.w	r8, [sp, #8]
  403750:	e7d2      	b.n	4036f8 <__sfvwrite_r+0x194>
  403752:	6820      	ldr	r0, [r4, #0]
  403754:	46b8      	mov	r8, r7
  403756:	46ba      	mov	sl, r7
  403758:	e75c      	b.n	403614 <__sfvwrite_r+0xb0>
  40375a:	464a      	mov	r2, r9
  40375c:	210a      	movs	r1, #10
  40375e:	4650      	mov	r0, sl
  403760:	f000 fbee 	bl	403f40 <memchr>
  403764:	2800      	cmp	r0, #0
  403766:	d06f      	beq.n	403848 <__sfvwrite_r+0x2e4>
  403768:	3001      	adds	r0, #1
  40376a:	2301      	movs	r3, #1
  40376c:	ebca 0800 	rsb	r8, sl, r0
  403770:	9302      	str	r3, [sp, #8]
  403772:	e7a5      	b.n	4036c0 <__sfvwrite_r+0x15c>
  403774:	6962      	ldr	r2, [r4, #20]
  403776:	6820      	ldr	r0, [r4, #0]
  403778:	6921      	ldr	r1, [r4, #16]
  40377a:	eb02 0842 	add.w	r8, r2, r2, lsl #1
  40377e:	ebc1 0a00 	rsb	sl, r1, r0
  403782:	eb08 78d8 	add.w	r8, r8, r8, lsr #31
  403786:	f10a 0001 	add.w	r0, sl, #1
  40378a:	ea4f 0868 	mov.w	r8, r8, asr #1
  40378e:	4438      	add	r0, r7
  403790:	4540      	cmp	r0, r8
  403792:	4642      	mov	r2, r8
  403794:	bf84      	itt	hi
  403796:	4680      	movhi	r8, r0
  403798:	4642      	movhi	r2, r8
  40379a:	055b      	lsls	r3, r3, #21
  40379c:	d542      	bpl.n	403824 <__sfvwrite_r+0x2c0>
  40379e:	4611      	mov	r1, r2
  4037a0:	9801      	ldr	r0, [sp, #4]
  4037a2:	f000 f911 	bl	4039c8 <_malloc_r>
  4037a6:	4683      	mov	fp, r0
  4037a8:	2800      	cmp	r0, #0
  4037aa:	d055      	beq.n	403858 <__sfvwrite_r+0x2f4>
  4037ac:	4652      	mov	r2, sl
  4037ae:	6921      	ldr	r1, [r4, #16]
  4037b0:	f7fe fa32 	bl	401c18 <memcpy>
  4037b4:	89a3      	ldrh	r3, [r4, #12]
  4037b6:	f423 6390 	bic.w	r3, r3, #1152	; 0x480
  4037ba:	f043 0380 	orr.w	r3, r3, #128	; 0x80
  4037be:	81a3      	strh	r3, [r4, #12]
  4037c0:	ebca 0308 	rsb	r3, sl, r8
  4037c4:	eb0b 000a 	add.w	r0, fp, sl
  4037c8:	f8c4 8014 	str.w	r8, [r4, #20]
  4037cc:	f8c4 b010 	str.w	fp, [r4, #16]
  4037d0:	6020      	str	r0, [r4, #0]
  4037d2:	60a3      	str	r3, [r4, #8]
  4037d4:	46b8      	mov	r8, r7
  4037d6:	46ba      	mov	sl, r7
  4037d8:	e71c      	b.n	403614 <__sfvwrite_r+0xb0>
  4037da:	f06f 4300 	mvn.w	r3, #2147483648	; 0x80000000
  4037de:	42bb      	cmp	r3, r7
  4037e0:	bf28      	it	cs
  4037e2:	463b      	movcs	r3, r7
  4037e4:	464a      	mov	r2, r9
  4037e6:	fb93 f3f1 	sdiv	r3, r3, r1
  4037ea:	9801      	ldr	r0, [sp, #4]
  4037ec:	6a66      	ldr	r6, [r4, #36]	; 0x24
  4037ee:	fb01 f303 	mul.w	r3, r1, r3
  4037f2:	69e1      	ldr	r1, [r4, #28]
  4037f4:	47b0      	blx	r6
  4037f6:	2800      	cmp	r0, #0
  4037f8:	f73f af18 	bgt.w	40362c <__sfvwrite_r+0xc8>
  4037fc:	e74c      	b.n	403698 <__sfvwrite_r+0x134>
  4037fe:	461a      	mov	r2, r3
  403800:	4651      	mov	r1, sl
  403802:	9303      	str	r3, [sp, #12]
  403804:	f000 fbec 	bl	403fe0 <memmove>
  403808:	6822      	ldr	r2, [r4, #0]
  40380a:	9b03      	ldr	r3, [sp, #12]
  40380c:	9801      	ldr	r0, [sp, #4]
  40380e:	441a      	add	r2, r3
  403810:	6022      	str	r2, [r4, #0]
  403812:	4621      	mov	r1, r4
  403814:	f7ff fc60 	bl	4030d8 <_fflush_r>
  403818:	9b03      	ldr	r3, [sp, #12]
  40381a:	2800      	cmp	r0, #0
  40381c:	f47f af3c 	bne.w	403698 <__sfvwrite_r+0x134>
  403820:	461f      	mov	r7, r3
  403822:	e766      	b.n	4036f2 <__sfvwrite_r+0x18e>
  403824:	9801      	ldr	r0, [sp, #4]
  403826:	f000 fc43 	bl	4040b0 <_realloc_r>
  40382a:	4683      	mov	fp, r0
  40382c:	2800      	cmp	r0, #0
  40382e:	d1c7      	bne.n	4037c0 <__sfvwrite_r+0x25c>
  403830:	9d01      	ldr	r5, [sp, #4]
  403832:	6921      	ldr	r1, [r4, #16]
  403834:	4628      	mov	r0, r5
  403836:	f7ff fdad 	bl	403394 <_free_r>
  40383a:	f9b4 300c 	ldrsh.w	r3, [r4, #12]
  40383e:	220c      	movs	r2, #12
  403840:	f023 0380 	bic.w	r3, r3, #128	; 0x80
  403844:	602a      	str	r2, [r5, #0]
  403846:	e729      	b.n	40369c <__sfvwrite_r+0x138>
  403848:	2301      	movs	r3, #1
  40384a:	f109 0801 	add.w	r8, r9, #1
  40384e:	9302      	str	r3, [sp, #8]
  403850:	e736      	b.n	4036c0 <__sfvwrite_r+0x15c>
  403852:	f04f 30ff 	mov.w	r0, #4294967295
  403856:	e6b8      	b.n	4035ca <__sfvwrite_r+0x66>
  403858:	9a01      	ldr	r2, [sp, #4]
  40385a:	230c      	movs	r3, #12
  40385c:	6013      	str	r3, [r2, #0]
  40385e:	f9b4 300c 	ldrsh.w	r3, [r4, #12]
  403862:	e71b      	b.n	40369c <__sfvwrite_r+0x138>
  403864:	7ffffc00 	.word	0x7ffffc00

00403868 <_fwalk_reent>:
  403868:	e92d 43f8 	stmdb	sp!, {r3, r4, r5, r6, r7, r8, r9, lr}
  40386c:	f510 7738 	adds.w	r7, r0, #736	; 0x2e0
  403870:	d01f      	beq.n	4038b2 <_fwalk_reent+0x4a>
  403872:	4688      	mov	r8, r1
  403874:	4606      	mov	r6, r0
  403876:	f04f 0900 	mov.w	r9, #0
  40387a:	687d      	ldr	r5, [r7, #4]
  40387c:	68bc      	ldr	r4, [r7, #8]
  40387e:	3d01      	subs	r5, #1
  403880:	d411      	bmi.n	4038a6 <_fwalk_reent+0x3e>
  403882:	89a3      	ldrh	r3, [r4, #12]
  403884:	2b01      	cmp	r3, #1
  403886:	f105 35ff 	add.w	r5, r5, #4294967295
  40388a:	d908      	bls.n	40389e <_fwalk_reent+0x36>
  40388c:	f9b4 300e 	ldrsh.w	r3, [r4, #14]
  403890:	3301      	adds	r3, #1
  403892:	4621      	mov	r1, r4
  403894:	4630      	mov	r0, r6
  403896:	d002      	beq.n	40389e <_fwalk_reent+0x36>
  403898:	47c0      	blx	r8
  40389a:	ea49 0900 	orr.w	r9, r9, r0
  40389e:	1c6b      	adds	r3, r5, #1
  4038a0:	f104 0468 	add.w	r4, r4, #104	; 0x68
  4038a4:	d1ed      	bne.n	403882 <_fwalk_reent+0x1a>
  4038a6:	683f      	ldr	r7, [r7, #0]
  4038a8:	2f00      	cmp	r7, #0
  4038aa:	d1e6      	bne.n	40387a <_fwalk_reent+0x12>
  4038ac:	4648      	mov	r0, r9
  4038ae:	e8bd 83f8 	ldmia.w	sp!, {r3, r4, r5, r6, r7, r8, r9, pc}
  4038b2:	46b9      	mov	r9, r7
  4038b4:	4648      	mov	r0, r9
  4038b6:	e8bd 83f8 	ldmia.w	sp!, {r3, r4, r5, r6, r7, r8, r9, pc}
  4038ba:	bf00      	nop

004038bc <__locale_charset>:
  4038bc:	4800      	ldr	r0, [pc, #0]	; (4038c0 <__locale_charset+0x4>)
  4038be:	4770      	bx	lr
  4038c0:	20400434 	.word	0x20400434

004038c4 <__locale_mb_cur_max>:
  4038c4:	4b01      	ldr	r3, [pc, #4]	; (4038cc <__locale_mb_cur_max+0x8>)
  4038c6:	6818      	ldr	r0, [r3, #0]
  4038c8:	4770      	bx	lr
  4038ca:	bf00      	nop
  4038cc:	20400454 	.word	0x20400454

004038d0 <__swhatbuf_r>:
  4038d0:	b570      	push	{r4, r5, r6, lr}
  4038d2:	460d      	mov	r5, r1
  4038d4:	f9b1 100e 	ldrsh.w	r1, [r1, #14]
  4038d8:	2900      	cmp	r1, #0
  4038da:	b090      	sub	sp, #64	; 0x40
  4038dc:	4614      	mov	r4, r2
  4038de:	461e      	mov	r6, r3
  4038e0:	db14      	blt.n	40390c <__swhatbuf_r+0x3c>
  4038e2:	aa01      	add	r2, sp, #4
  4038e4:	f000 ffe4 	bl	4048b0 <_fstat_r>
  4038e8:	2800      	cmp	r0, #0
  4038ea:	db0f      	blt.n	40390c <__swhatbuf_r+0x3c>
  4038ec:	9a02      	ldr	r2, [sp, #8]
  4038ee:	f402 4270 	and.w	r2, r2, #61440	; 0xf000
  4038f2:	f5a2 5200 	sub.w	r2, r2, #8192	; 0x2000
  4038f6:	fab2 f282 	clz	r2, r2
  4038fa:	0952      	lsrs	r2, r2, #5
  4038fc:	f44f 6380 	mov.w	r3, #1024	; 0x400
  403900:	f44f 6000 	mov.w	r0, #2048	; 0x800
  403904:	6032      	str	r2, [r6, #0]
  403906:	6023      	str	r3, [r4, #0]
  403908:	b010      	add	sp, #64	; 0x40
  40390a:	bd70      	pop	{r4, r5, r6, pc}
  40390c:	89a8      	ldrh	r0, [r5, #12]
  40390e:	f000 0080 	and.w	r0, r0, #128	; 0x80
  403912:	b282      	uxth	r2, r0
  403914:	2000      	movs	r0, #0
  403916:	6030      	str	r0, [r6, #0]
  403918:	b11a      	cbz	r2, 403922 <__swhatbuf_r+0x52>
  40391a:	2340      	movs	r3, #64	; 0x40
  40391c:	6023      	str	r3, [r4, #0]
  40391e:	b010      	add	sp, #64	; 0x40
  403920:	bd70      	pop	{r4, r5, r6, pc}
  403922:	f44f 6380 	mov.w	r3, #1024	; 0x400
  403926:	4610      	mov	r0, r2
  403928:	6023      	str	r3, [r4, #0]
  40392a:	b010      	add	sp, #64	; 0x40
  40392c:	bd70      	pop	{r4, r5, r6, pc}
  40392e:	bf00      	nop

00403930 <__smakebuf_r>:
  403930:	898a      	ldrh	r2, [r1, #12]
  403932:	0792      	lsls	r2, r2, #30
  403934:	460b      	mov	r3, r1
  403936:	d506      	bpl.n	403946 <__smakebuf_r+0x16>
  403938:	f101 0243 	add.w	r2, r1, #67	; 0x43
  40393c:	2101      	movs	r1, #1
  40393e:	601a      	str	r2, [r3, #0]
  403940:	611a      	str	r2, [r3, #16]
  403942:	6159      	str	r1, [r3, #20]
  403944:	4770      	bx	lr
  403946:	b5f0      	push	{r4, r5, r6, r7, lr}
  403948:	b083      	sub	sp, #12
  40394a:	ab01      	add	r3, sp, #4
  40394c:	466a      	mov	r2, sp
  40394e:	460c      	mov	r4, r1
  403950:	4605      	mov	r5, r0
  403952:	f7ff ffbd 	bl	4038d0 <__swhatbuf_r>
  403956:	9900      	ldr	r1, [sp, #0]
  403958:	4606      	mov	r6, r0
  40395a:	4628      	mov	r0, r5
  40395c:	f000 f834 	bl	4039c8 <_malloc_r>
  403960:	f9b4 300c 	ldrsh.w	r3, [r4, #12]
  403964:	b1d0      	cbz	r0, 40399c <__smakebuf_r+0x6c>
  403966:	9a01      	ldr	r2, [sp, #4]
  403968:	4f12      	ldr	r7, [pc, #72]	; (4039b4 <__smakebuf_r+0x84>)
  40396a:	9900      	ldr	r1, [sp, #0]
  40396c:	63ef      	str	r7, [r5, #60]	; 0x3c
  40396e:	f043 0380 	orr.w	r3, r3, #128	; 0x80
  403972:	81a3      	strh	r3, [r4, #12]
  403974:	6020      	str	r0, [r4, #0]
  403976:	6120      	str	r0, [r4, #16]
  403978:	6161      	str	r1, [r4, #20]
  40397a:	b91a      	cbnz	r2, 403984 <__smakebuf_r+0x54>
  40397c:	4333      	orrs	r3, r6
  40397e:	81a3      	strh	r3, [r4, #12]
  403980:	b003      	add	sp, #12
  403982:	bdf0      	pop	{r4, r5, r6, r7, pc}
  403984:	4628      	mov	r0, r5
  403986:	f9b4 100e 	ldrsh.w	r1, [r4, #14]
  40398a:	f000 ffa5 	bl	4048d8 <_isatty_r>
  40398e:	f9b4 300c 	ldrsh.w	r3, [r4, #12]
  403992:	2800      	cmp	r0, #0
  403994:	d0f2      	beq.n	40397c <__smakebuf_r+0x4c>
  403996:	f043 0301 	orr.w	r3, r3, #1
  40399a:	e7ef      	b.n	40397c <__smakebuf_r+0x4c>
  40399c:	059a      	lsls	r2, r3, #22
  40399e:	d4ef      	bmi.n	403980 <__smakebuf_r+0x50>
  4039a0:	f104 0243 	add.w	r2, r4, #67	; 0x43
  4039a4:	f043 0302 	orr.w	r3, r3, #2
  4039a8:	2101      	movs	r1, #1
  4039aa:	81a3      	strh	r3, [r4, #12]
  4039ac:	6022      	str	r2, [r4, #0]
  4039ae:	6122      	str	r2, [r4, #16]
  4039b0:	6161      	str	r1, [r4, #20]
  4039b2:	e7e5      	b.n	403980 <__smakebuf_r+0x50>
  4039b4:	00403105 	.word	0x00403105

004039b8 <malloc>:
  4039b8:	4b02      	ldr	r3, [pc, #8]	; (4039c4 <malloc+0xc>)
  4039ba:	4601      	mov	r1, r0
  4039bc:	6818      	ldr	r0, [r3, #0]
  4039be:	f000 b803 	b.w	4039c8 <_malloc_r>
  4039c2:	bf00      	nop
  4039c4:	20400430 	.word	0x20400430

004039c8 <_malloc_r>:
  4039c8:	e92d 4ff0 	stmdb	sp!, {r4, r5, r6, r7, r8, r9, sl, fp, lr}
  4039cc:	f101 050b 	add.w	r5, r1, #11
  4039d0:	2d16      	cmp	r5, #22
  4039d2:	b083      	sub	sp, #12
  4039d4:	4606      	mov	r6, r0
  4039d6:	f240 809f 	bls.w	403b18 <_malloc_r+0x150>
  4039da:	f035 0507 	bics.w	r5, r5, #7
  4039de:	f100 80bf 	bmi.w	403b60 <_malloc_r+0x198>
  4039e2:	42a9      	cmp	r1, r5
  4039e4:	f200 80bc 	bhi.w	403b60 <_malloc_r+0x198>
  4039e8:	f000 fb5e 	bl	4040a8 <__malloc_lock>
  4039ec:	f5b5 7ffc 	cmp.w	r5, #504	; 0x1f8
  4039f0:	f0c0 829c 	bcc.w	403f2c <_malloc_r+0x564>
  4039f4:	0a6b      	lsrs	r3, r5, #9
  4039f6:	f000 80ba 	beq.w	403b6e <_malloc_r+0x1a6>
  4039fa:	2b04      	cmp	r3, #4
  4039fc:	f200 8183 	bhi.w	403d06 <_malloc_r+0x33e>
  403a00:	09a8      	lsrs	r0, r5, #6
  403a02:	f100 0e39 	add.w	lr, r0, #57	; 0x39
  403a06:	ea4f 034e 	mov.w	r3, lr, lsl #1
  403a0a:	3038      	adds	r0, #56	; 0x38
  403a0c:	4fc4      	ldr	r7, [pc, #784]	; (403d20 <_malloc_r+0x358>)
  403a0e:	eb07 0383 	add.w	r3, r7, r3, lsl #2
  403a12:	f1a3 0108 	sub.w	r1, r3, #8
  403a16:	685c      	ldr	r4, [r3, #4]
  403a18:	42a1      	cmp	r1, r4
  403a1a:	d107      	bne.n	403a2c <_malloc_r+0x64>
  403a1c:	e0ac      	b.n	403b78 <_malloc_r+0x1b0>
  403a1e:	2a00      	cmp	r2, #0
  403a20:	f280 80ac 	bge.w	403b7c <_malloc_r+0x1b4>
  403a24:	68e4      	ldr	r4, [r4, #12]
  403a26:	42a1      	cmp	r1, r4
  403a28:	f000 80a6 	beq.w	403b78 <_malloc_r+0x1b0>
  403a2c:	6863      	ldr	r3, [r4, #4]
  403a2e:	f023 0303 	bic.w	r3, r3, #3
  403a32:	1b5a      	subs	r2, r3, r5
  403a34:	2a0f      	cmp	r2, #15
  403a36:	ddf2      	ble.n	403a1e <_malloc_r+0x56>
  403a38:	49b9      	ldr	r1, [pc, #740]	; (403d20 <_malloc_r+0x358>)
  403a3a:	693c      	ldr	r4, [r7, #16]
  403a3c:	f101 0e08 	add.w	lr, r1, #8
  403a40:	4574      	cmp	r4, lr
  403a42:	f000 81b3 	beq.w	403dac <_malloc_r+0x3e4>
  403a46:	6863      	ldr	r3, [r4, #4]
  403a48:	f023 0303 	bic.w	r3, r3, #3
  403a4c:	1b5a      	subs	r2, r3, r5
  403a4e:	2a0f      	cmp	r2, #15
  403a50:	f300 8199 	bgt.w	403d86 <_malloc_r+0x3be>
  403a54:	2a00      	cmp	r2, #0
  403a56:	f8c1 e014 	str.w	lr, [r1, #20]
  403a5a:	f8c1 e010 	str.w	lr, [r1, #16]
  403a5e:	f280 809e 	bge.w	403b9e <_malloc_r+0x1d6>
  403a62:	f5b3 7f00 	cmp.w	r3, #512	; 0x200
  403a66:	f080 8167 	bcs.w	403d38 <_malloc_r+0x370>
  403a6a:	08db      	lsrs	r3, r3, #3
  403a6c:	f103 0c01 	add.w	ip, r3, #1
  403a70:	2201      	movs	r2, #1
  403a72:	109b      	asrs	r3, r3, #2
  403a74:	fa02 f303 	lsl.w	r3, r2, r3
  403a78:	684a      	ldr	r2, [r1, #4]
  403a7a:	f851 803c 	ldr.w	r8, [r1, ip, lsl #3]
  403a7e:	f8c4 8008 	str.w	r8, [r4, #8]
  403a82:	eb01 09cc 	add.w	r9, r1, ip, lsl #3
  403a86:	431a      	orrs	r2, r3
  403a88:	f1a9 0308 	sub.w	r3, r9, #8
  403a8c:	60e3      	str	r3, [r4, #12]
  403a8e:	604a      	str	r2, [r1, #4]
  403a90:	f841 403c 	str.w	r4, [r1, ip, lsl #3]
  403a94:	f8c8 400c 	str.w	r4, [r8, #12]
  403a98:	1083      	asrs	r3, r0, #2
  403a9a:	2401      	movs	r4, #1
  403a9c:	409c      	lsls	r4, r3
  403a9e:	4294      	cmp	r4, r2
  403aa0:	f200 808a 	bhi.w	403bb8 <_malloc_r+0x1f0>
  403aa4:	4214      	tst	r4, r2
  403aa6:	d106      	bne.n	403ab6 <_malloc_r+0xee>
  403aa8:	f020 0003 	bic.w	r0, r0, #3
  403aac:	0064      	lsls	r4, r4, #1
  403aae:	4214      	tst	r4, r2
  403ab0:	f100 0004 	add.w	r0, r0, #4
  403ab4:	d0fa      	beq.n	403aac <_malloc_r+0xe4>
  403ab6:	eb07 09c0 	add.w	r9, r7, r0, lsl #3
  403aba:	46cc      	mov	ip, r9
  403abc:	4680      	mov	r8, r0
  403abe:	f8dc 100c 	ldr.w	r1, [ip, #12]
  403ac2:	458c      	cmp	ip, r1
  403ac4:	d107      	bne.n	403ad6 <_malloc_r+0x10e>
  403ac6:	e173      	b.n	403db0 <_malloc_r+0x3e8>
  403ac8:	2a00      	cmp	r2, #0
  403aca:	f280 8181 	bge.w	403dd0 <_malloc_r+0x408>
  403ace:	68c9      	ldr	r1, [r1, #12]
  403ad0:	458c      	cmp	ip, r1
  403ad2:	f000 816d 	beq.w	403db0 <_malloc_r+0x3e8>
  403ad6:	684b      	ldr	r3, [r1, #4]
  403ad8:	f023 0303 	bic.w	r3, r3, #3
  403adc:	1b5a      	subs	r2, r3, r5
  403ade:	2a0f      	cmp	r2, #15
  403ae0:	ddf2      	ble.n	403ac8 <_malloc_r+0x100>
  403ae2:	460c      	mov	r4, r1
  403ae4:	f8d1 c00c 	ldr.w	ip, [r1, #12]
  403ae8:	f854 8f08 	ldr.w	r8, [r4, #8]!
  403aec:	194b      	adds	r3, r1, r5
  403aee:	f045 0501 	orr.w	r5, r5, #1
  403af2:	604d      	str	r5, [r1, #4]
  403af4:	f042 0101 	orr.w	r1, r2, #1
  403af8:	f8c8 c00c 	str.w	ip, [r8, #12]
  403afc:	4630      	mov	r0, r6
  403afe:	f8cc 8008 	str.w	r8, [ip, #8]
  403b02:	617b      	str	r3, [r7, #20]
  403b04:	613b      	str	r3, [r7, #16]
  403b06:	f8c3 e00c 	str.w	lr, [r3, #12]
  403b0a:	f8c3 e008 	str.w	lr, [r3, #8]
  403b0e:	6059      	str	r1, [r3, #4]
  403b10:	509a      	str	r2, [r3, r2]
  403b12:	f000 facb 	bl	4040ac <__malloc_unlock>
  403b16:	e01f      	b.n	403b58 <_malloc_r+0x190>
  403b18:	2910      	cmp	r1, #16
  403b1a:	d821      	bhi.n	403b60 <_malloc_r+0x198>
  403b1c:	f000 fac4 	bl	4040a8 <__malloc_lock>
  403b20:	2510      	movs	r5, #16
  403b22:	2306      	movs	r3, #6
  403b24:	2002      	movs	r0, #2
  403b26:	4f7e      	ldr	r7, [pc, #504]	; (403d20 <_malloc_r+0x358>)
  403b28:	eb07 0383 	add.w	r3, r7, r3, lsl #2
  403b2c:	f1a3 0208 	sub.w	r2, r3, #8
  403b30:	685c      	ldr	r4, [r3, #4]
  403b32:	4294      	cmp	r4, r2
  403b34:	f000 8145 	beq.w	403dc2 <_malloc_r+0x3fa>
  403b38:	6863      	ldr	r3, [r4, #4]
  403b3a:	68e1      	ldr	r1, [r4, #12]
  403b3c:	68a5      	ldr	r5, [r4, #8]
  403b3e:	f023 0303 	bic.w	r3, r3, #3
  403b42:	4423      	add	r3, r4
  403b44:	4630      	mov	r0, r6
  403b46:	685a      	ldr	r2, [r3, #4]
  403b48:	60e9      	str	r1, [r5, #12]
  403b4a:	f042 0201 	orr.w	r2, r2, #1
  403b4e:	608d      	str	r5, [r1, #8]
  403b50:	605a      	str	r2, [r3, #4]
  403b52:	f000 faab 	bl	4040ac <__malloc_unlock>
  403b56:	3408      	adds	r4, #8
  403b58:	4620      	mov	r0, r4
  403b5a:	b003      	add	sp, #12
  403b5c:	e8bd 8ff0 	ldmia.w	sp!, {r4, r5, r6, r7, r8, r9, sl, fp, pc}
  403b60:	2400      	movs	r4, #0
  403b62:	230c      	movs	r3, #12
  403b64:	4620      	mov	r0, r4
  403b66:	6033      	str	r3, [r6, #0]
  403b68:	b003      	add	sp, #12
  403b6a:	e8bd 8ff0 	ldmia.w	sp!, {r4, r5, r6, r7, r8, r9, sl, fp, pc}
  403b6e:	2380      	movs	r3, #128	; 0x80
  403b70:	f04f 0e40 	mov.w	lr, #64	; 0x40
  403b74:	203f      	movs	r0, #63	; 0x3f
  403b76:	e749      	b.n	403a0c <_malloc_r+0x44>
  403b78:	4670      	mov	r0, lr
  403b7a:	e75d      	b.n	403a38 <_malloc_r+0x70>
  403b7c:	4423      	add	r3, r4
  403b7e:	68e1      	ldr	r1, [r4, #12]
  403b80:	685a      	ldr	r2, [r3, #4]
  403b82:	68a5      	ldr	r5, [r4, #8]
  403b84:	f042 0201 	orr.w	r2, r2, #1
  403b88:	60e9      	str	r1, [r5, #12]
  403b8a:	4630      	mov	r0, r6
  403b8c:	608d      	str	r5, [r1, #8]
  403b8e:	605a      	str	r2, [r3, #4]
  403b90:	f000 fa8c 	bl	4040ac <__malloc_unlock>
  403b94:	3408      	adds	r4, #8
  403b96:	4620      	mov	r0, r4
  403b98:	b003      	add	sp, #12
  403b9a:	e8bd 8ff0 	ldmia.w	sp!, {r4, r5, r6, r7, r8, r9, sl, fp, pc}
  403b9e:	4423      	add	r3, r4
  403ba0:	4630      	mov	r0, r6
  403ba2:	685a      	ldr	r2, [r3, #4]
  403ba4:	f042 0201 	orr.w	r2, r2, #1
  403ba8:	605a      	str	r2, [r3, #4]
  403baa:	f000 fa7f 	bl	4040ac <__malloc_unlock>
  403bae:	3408      	adds	r4, #8
  403bb0:	4620      	mov	r0, r4
  403bb2:	b003      	add	sp, #12
  403bb4:	e8bd 8ff0 	ldmia.w	sp!, {r4, r5, r6, r7, r8, r9, sl, fp, pc}
  403bb8:	68bc      	ldr	r4, [r7, #8]
  403bba:	6863      	ldr	r3, [r4, #4]
  403bbc:	f023 0803 	bic.w	r8, r3, #3
  403bc0:	45a8      	cmp	r8, r5
  403bc2:	d304      	bcc.n	403bce <_malloc_r+0x206>
  403bc4:	ebc5 0308 	rsb	r3, r5, r8
  403bc8:	2b0f      	cmp	r3, #15
  403bca:	f300 808c 	bgt.w	403ce6 <_malloc_r+0x31e>
  403bce:	4b55      	ldr	r3, [pc, #340]	; (403d24 <_malloc_r+0x35c>)
  403bd0:	f8df 9160 	ldr.w	r9, [pc, #352]	; 403d34 <_malloc_r+0x36c>
  403bd4:	681a      	ldr	r2, [r3, #0]
  403bd6:	f8d9 3000 	ldr.w	r3, [r9]
  403bda:	3301      	adds	r3, #1
  403bdc:	442a      	add	r2, r5
  403bde:	eb04 0a08 	add.w	sl, r4, r8
  403be2:	f000 8160 	beq.w	403ea6 <_malloc_r+0x4de>
  403be6:	f502 5280 	add.w	r2, r2, #4096	; 0x1000
  403bea:	320f      	adds	r2, #15
  403bec:	f422 627f 	bic.w	r2, r2, #4080	; 0xff0
  403bf0:	f022 020f 	bic.w	r2, r2, #15
  403bf4:	4611      	mov	r1, r2
  403bf6:	4630      	mov	r0, r6
  403bf8:	9201      	str	r2, [sp, #4]
  403bfa:	f000 fc49 	bl	404490 <_sbrk_r>
  403bfe:	f1b0 3fff 	cmp.w	r0, #4294967295
  403c02:	4683      	mov	fp, r0
  403c04:	9a01      	ldr	r2, [sp, #4]
  403c06:	f000 8158 	beq.w	403eba <_malloc_r+0x4f2>
  403c0a:	4582      	cmp	sl, r0
  403c0c:	f200 80fc 	bhi.w	403e08 <_malloc_r+0x440>
  403c10:	4b45      	ldr	r3, [pc, #276]	; (403d28 <_malloc_r+0x360>)
  403c12:	6819      	ldr	r1, [r3, #0]
  403c14:	45da      	cmp	sl, fp
  403c16:	4411      	add	r1, r2
  403c18:	6019      	str	r1, [r3, #0]
  403c1a:	f000 8153 	beq.w	403ec4 <_malloc_r+0x4fc>
  403c1e:	f8d9 0000 	ldr.w	r0, [r9]
  403c22:	f8df e110 	ldr.w	lr, [pc, #272]	; 403d34 <_malloc_r+0x36c>
  403c26:	3001      	adds	r0, #1
  403c28:	bf1b      	ittet	ne
  403c2a:	ebca 0a0b 	rsbne	sl, sl, fp
  403c2e:	4451      	addne	r1, sl
  403c30:	f8ce b000 	streq.w	fp, [lr]
  403c34:	6019      	strne	r1, [r3, #0]
  403c36:	f01b 0107 	ands.w	r1, fp, #7
  403c3a:	f000 8117 	beq.w	403e6c <_malloc_r+0x4a4>
  403c3e:	f1c1 0008 	rsb	r0, r1, #8
  403c42:	f5c1 5180 	rsb	r1, r1, #4096	; 0x1000
  403c46:	4483      	add	fp, r0
  403c48:	3108      	adds	r1, #8
  403c4a:	445a      	add	r2, fp
  403c4c:	f3c2 020b 	ubfx	r2, r2, #0, #12
  403c50:	ebc2 0901 	rsb	r9, r2, r1
  403c54:	4649      	mov	r1, r9
  403c56:	4630      	mov	r0, r6
  403c58:	9301      	str	r3, [sp, #4]
  403c5a:	f000 fc19 	bl	404490 <_sbrk_r>
  403c5e:	1c43      	adds	r3, r0, #1
  403c60:	9b01      	ldr	r3, [sp, #4]
  403c62:	f000 813f 	beq.w	403ee4 <_malloc_r+0x51c>
  403c66:	ebcb 0200 	rsb	r2, fp, r0
  403c6a:	444a      	add	r2, r9
  403c6c:	f042 0201 	orr.w	r2, r2, #1
  403c70:	6819      	ldr	r1, [r3, #0]
  403c72:	f8c7 b008 	str.w	fp, [r7, #8]
  403c76:	4449      	add	r1, r9
  403c78:	42bc      	cmp	r4, r7
  403c7a:	f8cb 2004 	str.w	r2, [fp, #4]
  403c7e:	6019      	str	r1, [r3, #0]
  403c80:	f8df 90a4 	ldr.w	r9, [pc, #164]	; 403d28 <_malloc_r+0x360>
  403c84:	d016      	beq.n	403cb4 <_malloc_r+0x2ec>
  403c86:	f1b8 0f0f 	cmp.w	r8, #15
  403c8a:	f240 80fd 	bls.w	403e88 <_malloc_r+0x4c0>
  403c8e:	6862      	ldr	r2, [r4, #4]
  403c90:	f1a8 030c 	sub.w	r3, r8, #12
  403c94:	f023 0307 	bic.w	r3, r3, #7
  403c98:	18e0      	adds	r0, r4, r3
  403c9a:	f002 0201 	and.w	r2, r2, #1
  403c9e:	f04f 0e05 	mov.w	lr, #5
  403ca2:	431a      	orrs	r2, r3
  403ca4:	2b0f      	cmp	r3, #15
  403ca6:	6062      	str	r2, [r4, #4]
  403ca8:	f8c0 e004 	str.w	lr, [r0, #4]
  403cac:	f8c0 e008 	str.w	lr, [r0, #8]
  403cb0:	f200 811c 	bhi.w	403eec <_malloc_r+0x524>
  403cb4:	4b1d      	ldr	r3, [pc, #116]	; (403d2c <_malloc_r+0x364>)
  403cb6:	68bc      	ldr	r4, [r7, #8]
  403cb8:	681a      	ldr	r2, [r3, #0]
  403cba:	4291      	cmp	r1, r2
  403cbc:	bf88      	it	hi
  403cbe:	6019      	strhi	r1, [r3, #0]
  403cc0:	4b1b      	ldr	r3, [pc, #108]	; (403d30 <_malloc_r+0x368>)
  403cc2:	681a      	ldr	r2, [r3, #0]
  403cc4:	4291      	cmp	r1, r2
  403cc6:	6862      	ldr	r2, [r4, #4]
  403cc8:	bf88      	it	hi
  403cca:	6019      	strhi	r1, [r3, #0]
  403ccc:	f022 0203 	bic.w	r2, r2, #3
  403cd0:	4295      	cmp	r5, r2
  403cd2:	eba2 0305 	sub.w	r3, r2, r5
  403cd6:	d801      	bhi.n	403cdc <_malloc_r+0x314>
  403cd8:	2b0f      	cmp	r3, #15
  403cda:	dc04      	bgt.n	403ce6 <_malloc_r+0x31e>
  403cdc:	4630      	mov	r0, r6
  403cde:	f000 f9e5 	bl	4040ac <__malloc_unlock>
  403ce2:	2400      	movs	r4, #0
  403ce4:	e738      	b.n	403b58 <_malloc_r+0x190>
  403ce6:	1962      	adds	r2, r4, r5
  403ce8:	f043 0301 	orr.w	r3, r3, #1
  403cec:	f045 0501 	orr.w	r5, r5, #1
  403cf0:	6065      	str	r5, [r4, #4]
  403cf2:	4630      	mov	r0, r6
  403cf4:	60ba      	str	r2, [r7, #8]
  403cf6:	6053      	str	r3, [r2, #4]
  403cf8:	f000 f9d8 	bl	4040ac <__malloc_unlock>
  403cfc:	3408      	adds	r4, #8
  403cfe:	4620      	mov	r0, r4
  403d00:	b003      	add	sp, #12
  403d02:	e8bd 8ff0 	ldmia.w	sp!, {r4, r5, r6, r7, r8, r9, sl, fp, pc}
  403d06:	2b14      	cmp	r3, #20
  403d08:	d971      	bls.n	403dee <_malloc_r+0x426>
  403d0a:	2b54      	cmp	r3, #84	; 0x54
  403d0c:	f200 80a4 	bhi.w	403e58 <_malloc_r+0x490>
  403d10:	0b28      	lsrs	r0, r5, #12
  403d12:	f100 0e6f 	add.w	lr, r0, #111	; 0x6f
  403d16:	ea4f 034e 	mov.w	r3, lr, lsl #1
  403d1a:	306e      	adds	r0, #110	; 0x6e
  403d1c:	e676      	b.n	403a0c <_malloc_r+0x44>
  403d1e:	bf00      	nop
  403d20:	20400458 	.word	0x20400458
  403d24:	20400cc8 	.word	0x20400cc8
  403d28:	20400ccc 	.word	0x20400ccc
  403d2c:	20400cc4 	.word	0x20400cc4
  403d30:	20400cc0 	.word	0x20400cc0
  403d34:	20400864 	.word	0x20400864
  403d38:	0a5a      	lsrs	r2, r3, #9
  403d3a:	2a04      	cmp	r2, #4
  403d3c:	d95e      	bls.n	403dfc <_malloc_r+0x434>
  403d3e:	2a14      	cmp	r2, #20
  403d40:	f200 80b3 	bhi.w	403eaa <_malloc_r+0x4e2>
  403d44:	f102 015c 	add.w	r1, r2, #92	; 0x5c
  403d48:	0049      	lsls	r1, r1, #1
  403d4a:	325b      	adds	r2, #91	; 0x5b
  403d4c:	eb07 0c81 	add.w	ip, r7, r1, lsl #2
  403d50:	f857 1021 	ldr.w	r1, [r7, r1, lsl #2]
  403d54:	f8df 81dc 	ldr.w	r8, [pc, #476]	; 403f34 <_malloc_r+0x56c>
  403d58:	f1ac 0c08 	sub.w	ip, ip, #8
  403d5c:	458c      	cmp	ip, r1
  403d5e:	f000 8088 	beq.w	403e72 <_malloc_r+0x4aa>
  403d62:	684a      	ldr	r2, [r1, #4]
  403d64:	f022 0203 	bic.w	r2, r2, #3
  403d68:	4293      	cmp	r3, r2
  403d6a:	d202      	bcs.n	403d72 <_malloc_r+0x3aa>
  403d6c:	6889      	ldr	r1, [r1, #8]
  403d6e:	458c      	cmp	ip, r1
  403d70:	d1f7      	bne.n	403d62 <_malloc_r+0x39a>
  403d72:	f8d1 c00c 	ldr.w	ip, [r1, #12]
  403d76:	687a      	ldr	r2, [r7, #4]
  403d78:	f8c4 c00c 	str.w	ip, [r4, #12]
  403d7c:	60a1      	str	r1, [r4, #8]
  403d7e:	f8cc 4008 	str.w	r4, [ip, #8]
  403d82:	60cc      	str	r4, [r1, #12]
  403d84:	e688      	b.n	403a98 <_malloc_r+0xd0>
  403d86:	1963      	adds	r3, r4, r5
  403d88:	f042 0701 	orr.w	r7, r2, #1
  403d8c:	f045 0501 	orr.w	r5, r5, #1
  403d90:	6065      	str	r5, [r4, #4]
  403d92:	4630      	mov	r0, r6
  403d94:	614b      	str	r3, [r1, #20]
  403d96:	610b      	str	r3, [r1, #16]
  403d98:	f8c3 e00c 	str.w	lr, [r3, #12]
  403d9c:	f8c3 e008 	str.w	lr, [r3, #8]
  403da0:	605f      	str	r7, [r3, #4]
  403da2:	509a      	str	r2, [r3, r2]
  403da4:	3408      	adds	r4, #8
  403da6:	f000 f981 	bl	4040ac <__malloc_unlock>
  403daa:	e6d5      	b.n	403b58 <_malloc_r+0x190>
  403dac:	684a      	ldr	r2, [r1, #4]
  403dae:	e673      	b.n	403a98 <_malloc_r+0xd0>
  403db0:	f108 0801 	add.w	r8, r8, #1
  403db4:	f018 0f03 	tst.w	r8, #3
  403db8:	f10c 0c08 	add.w	ip, ip, #8
  403dbc:	f47f ae7f 	bne.w	403abe <_malloc_r+0xf6>
  403dc0:	e030      	b.n	403e24 <_malloc_r+0x45c>
  403dc2:	68dc      	ldr	r4, [r3, #12]
  403dc4:	42a3      	cmp	r3, r4
  403dc6:	bf08      	it	eq
  403dc8:	3002      	addeq	r0, #2
  403dca:	f43f ae35 	beq.w	403a38 <_malloc_r+0x70>
  403dce:	e6b3      	b.n	403b38 <_malloc_r+0x170>
  403dd0:	440b      	add	r3, r1
  403dd2:	460c      	mov	r4, r1
  403dd4:	685a      	ldr	r2, [r3, #4]
  403dd6:	68c9      	ldr	r1, [r1, #12]
  403dd8:	f854 5f08 	ldr.w	r5, [r4, #8]!
  403ddc:	f042 0201 	orr.w	r2, r2, #1
  403de0:	605a      	str	r2, [r3, #4]
  403de2:	4630      	mov	r0, r6
  403de4:	60e9      	str	r1, [r5, #12]
  403de6:	608d      	str	r5, [r1, #8]
  403de8:	f000 f960 	bl	4040ac <__malloc_unlock>
  403dec:	e6b4      	b.n	403b58 <_malloc_r+0x190>
  403dee:	f103 0e5c 	add.w	lr, r3, #92	; 0x5c
  403df2:	f103 005b 	add.w	r0, r3, #91	; 0x5b
  403df6:	ea4f 034e 	mov.w	r3, lr, lsl #1
  403dfa:	e607      	b.n	403a0c <_malloc_r+0x44>
  403dfc:	099a      	lsrs	r2, r3, #6
  403dfe:	f102 0139 	add.w	r1, r2, #57	; 0x39
  403e02:	0049      	lsls	r1, r1, #1
  403e04:	3238      	adds	r2, #56	; 0x38
  403e06:	e7a1      	b.n	403d4c <_malloc_r+0x384>
  403e08:	42bc      	cmp	r4, r7
  403e0a:	4b4a      	ldr	r3, [pc, #296]	; (403f34 <_malloc_r+0x56c>)
  403e0c:	f43f af00 	beq.w	403c10 <_malloc_r+0x248>
  403e10:	689c      	ldr	r4, [r3, #8]
  403e12:	6862      	ldr	r2, [r4, #4]
  403e14:	f022 0203 	bic.w	r2, r2, #3
  403e18:	e75a      	b.n	403cd0 <_malloc_r+0x308>
  403e1a:	f859 3908 	ldr.w	r3, [r9], #-8
  403e1e:	4599      	cmp	r9, r3
  403e20:	f040 8082 	bne.w	403f28 <_malloc_r+0x560>
  403e24:	f010 0f03 	tst.w	r0, #3
  403e28:	f100 30ff 	add.w	r0, r0, #4294967295
  403e2c:	d1f5      	bne.n	403e1a <_malloc_r+0x452>
  403e2e:	687b      	ldr	r3, [r7, #4]
  403e30:	ea23 0304 	bic.w	r3, r3, r4
  403e34:	607b      	str	r3, [r7, #4]
  403e36:	0064      	lsls	r4, r4, #1
  403e38:	429c      	cmp	r4, r3
  403e3a:	f63f aebd 	bhi.w	403bb8 <_malloc_r+0x1f0>
  403e3e:	2c00      	cmp	r4, #0
  403e40:	f43f aeba 	beq.w	403bb8 <_malloc_r+0x1f0>
  403e44:	421c      	tst	r4, r3
  403e46:	4640      	mov	r0, r8
  403e48:	f47f ae35 	bne.w	403ab6 <_malloc_r+0xee>
  403e4c:	0064      	lsls	r4, r4, #1
  403e4e:	421c      	tst	r4, r3
  403e50:	f100 0004 	add.w	r0, r0, #4
  403e54:	d0fa      	beq.n	403e4c <_malloc_r+0x484>
  403e56:	e62e      	b.n	403ab6 <_malloc_r+0xee>
  403e58:	f5b3 7faa 	cmp.w	r3, #340	; 0x154
  403e5c:	d818      	bhi.n	403e90 <_malloc_r+0x4c8>
  403e5e:	0be8      	lsrs	r0, r5, #15
  403e60:	f100 0e78 	add.w	lr, r0, #120	; 0x78
  403e64:	ea4f 034e 	mov.w	r3, lr, lsl #1
  403e68:	3077      	adds	r0, #119	; 0x77
  403e6a:	e5cf      	b.n	403a0c <_malloc_r+0x44>
  403e6c:	f44f 5180 	mov.w	r1, #4096	; 0x1000
  403e70:	e6eb      	b.n	403c4a <_malloc_r+0x282>
  403e72:	2101      	movs	r1, #1
  403e74:	f8d8 3004 	ldr.w	r3, [r8, #4]
  403e78:	1092      	asrs	r2, r2, #2
  403e7a:	fa01 f202 	lsl.w	r2, r1, r2
  403e7e:	431a      	orrs	r2, r3
  403e80:	f8c8 2004 	str.w	r2, [r8, #4]
  403e84:	4661      	mov	r1, ip
  403e86:	e777      	b.n	403d78 <_malloc_r+0x3b0>
  403e88:	2301      	movs	r3, #1
  403e8a:	f8cb 3004 	str.w	r3, [fp, #4]
  403e8e:	e725      	b.n	403cdc <_malloc_r+0x314>
  403e90:	f240 5254 	movw	r2, #1364	; 0x554
  403e94:	4293      	cmp	r3, r2
  403e96:	d820      	bhi.n	403eda <_malloc_r+0x512>
  403e98:	0ca8      	lsrs	r0, r5, #18
  403e9a:	f100 0e7d 	add.w	lr, r0, #125	; 0x7d
  403e9e:	ea4f 034e 	mov.w	r3, lr, lsl #1
  403ea2:	307c      	adds	r0, #124	; 0x7c
  403ea4:	e5b2      	b.n	403a0c <_malloc_r+0x44>
  403ea6:	3210      	adds	r2, #16
  403ea8:	e6a4      	b.n	403bf4 <_malloc_r+0x22c>
  403eaa:	2a54      	cmp	r2, #84	; 0x54
  403eac:	d826      	bhi.n	403efc <_malloc_r+0x534>
  403eae:	0b1a      	lsrs	r2, r3, #12
  403eb0:	f102 016f 	add.w	r1, r2, #111	; 0x6f
  403eb4:	0049      	lsls	r1, r1, #1
  403eb6:	326e      	adds	r2, #110	; 0x6e
  403eb8:	e748      	b.n	403d4c <_malloc_r+0x384>
  403eba:	68bc      	ldr	r4, [r7, #8]
  403ebc:	6862      	ldr	r2, [r4, #4]
  403ebe:	f022 0203 	bic.w	r2, r2, #3
  403ec2:	e705      	b.n	403cd0 <_malloc_r+0x308>
  403ec4:	f3ca 000b 	ubfx	r0, sl, #0, #12
  403ec8:	2800      	cmp	r0, #0
  403eca:	f47f aea8 	bne.w	403c1e <_malloc_r+0x256>
  403ece:	4442      	add	r2, r8
  403ed0:	68bb      	ldr	r3, [r7, #8]
  403ed2:	f042 0201 	orr.w	r2, r2, #1
  403ed6:	605a      	str	r2, [r3, #4]
  403ed8:	e6ec      	b.n	403cb4 <_malloc_r+0x2ec>
  403eda:	23fe      	movs	r3, #254	; 0xfe
  403edc:	f04f 0e7f 	mov.w	lr, #127	; 0x7f
  403ee0:	207e      	movs	r0, #126	; 0x7e
  403ee2:	e593      	b.n	403a0c <_malloc_r+0x44>
  403ee4:	2201      	movs	r2, #1
  403ee6:	f04f 0900 	mov.w	r9, #0
  403eea:	e6c1      	b.n	403c70 <_malloc_r+0x2a8>
  403eec:	f104 0108 	add.w	r1, r4, #8
  403ef0:	4630      	mov	r0, r6
  403ef2:	f7ff fa4f 	bl	403394 <_free_r>
  403ef6:	f8d9 1000 	ldr.w	r1, [r9]
  403efa:	e6db      	b.n	403cb4 <_malloc_r+0x2ec>
  403efc:	f5b2 7faa 	cmp.w	r2, #340	; 0x154
  403f00:	d805      	bhi.n	403f0e <_malloc_r+0x546>
  403f02:	0bda      	lsrs	r2, r3, #15
  403f04:	f102 0178 	add.w	r1, r2, #120	; 0x78
  403f08:	0049      	lsls	r1, r1, #1
  403f0a:	3277      	adds	r2, #119	; 0x77
  403f0c:	e71e      	b.n	403d4c <_malloc_r+0x384>
  403f0e:	f240 5154 	movw	r1, #1364	; 0x554
  403f12:	428a      	cmp	r2, r1
  403f14:	d805      	bhi.n	403f22 <_malloc_r+0x55a>
  403f16:	0c9a      	lsrs	r2, r3, #18
  403f18:	f102 017d 	add.w	r1, r2, #125	; 0x7d
  403f1c:	0049      	lsls	r1, r1, #1
  403f1e:	327c      	adds	r2, #124	; 0x7c
  403f20:	e714      	b.n	403d4c <_malloc_r+0x384>
  403f22:	21fe      	movs	r1, #254	; 0xfe
  403f24:	227e      	movs	r2, #126	; 0x7e
  403f26:	e711      	b.n	403d4c <_malloc_r+0x384>
  403f28:	687b      	ldr	r3, [r7, #4]
  403f2a:	e784      	b.n	403e36 <_malloc_r+0x46e>
  403f2c:	08e8      	lsrs	r0, r5, #3
  403f2e:	1c43      	adds	r3, r0, #1
  403f30:	005b      	lsls	r3, r3, #1
  403f32:	e5f8      	b.n	403b26 <_malloc_r+0x15e>
  403f34:	20400458 	.word	0x20400458
	...

00403f40 <memchr>:
  403f40:	f001 01ff 	and.w	r1, r1, #255	; 0xff
  403f44:	2a10      	cmp	r2, #16
  403f46:	db2b      	blt.n	403fa0 <memchr+0x60>
  403f48:	f010 0f07 	tst.w	r0, #7
  403f4c:	d008      	beq.n	403f60 <memchr+0x20>
  403f4e:	f810 3b01 	ldrb.w	r3, [r0], #1
  403f52:	3a01      	subs	r2, #1
  403f54:	428b      	cmp	r3, r1
  403f56:	d02d      	beq.n	403fb4 <memchr+0x74>
  403f58:	f010 0f07 	tst.w	r0, #7
  403f5c:	b342      	cbz	r2, 403fb0 <memchr+0x70>
  403f5e:	d1f6      	bne.n	403f4e <memchr+0xe>
  403f60:	b4f0      	push	{r4, r5, r6, r7}
  403f62:	ea41 2101 	orr.w	r1, r1, r1, lsl #8
  403f66:	ea41 4101 	orr.w	r1, r1, r1, lsl #16
  403f6a:	f022 0407 	bic.w	r4, r2, #7
  403f6e:	f07f 0700 	mvns.w	r7, #0
  403f72:	2300      	movs	r3, #0
  403f74:	e8f0 5602 	ldrd	r5, r6, [r0], #8
  403f78:	3c08      	subs	r4, #8
  403f7a:	ea85 0501 	eor.w	r5, r5, r1
  403f7e:	ea86 0601 	eor.w	r6, r6, r1
  403f82:	fa85 f547 	uadd8	r5, r5, r7
  403f86:	faa3 f587 	sel	r5, r3, r7
  403f8a:	fa86 f647 	uadd8	r6, r6, r7
  403f8e:	faa5 f687 	sel	r6, r5, r7
  403f92:	b98e      	cbnz	r6, 403fb8 <memchr+0x78>
  403f94:	d1ee      	bne.n	403f74 <memchr+0x34>
  403f96:	bcf0      	pop	{r4, r5, r6, r7}
  403f98:	f001 01ff 	and.w	r1, r1, #255	; 0xff
  403f9c:	f002 0207 	and.w	r2, r2, #7
  403fa0:	b132      	cbz	r2, 403fb0 <memchr+0x70>
  403fa2:	f810 3b01 	ldrb.w	r3, [r0], #1
  403fa6:	3a01      	subs	r2, #1
  403fa8:	ea83 0301 	eor.w	r3, r3, r1
  403fac:	b113      	cbz	r3, 403fb4 <memchr+0x74>
  403fae:	d1f8      	bne.n	403fa2 <memchr+0x62>
  403fb0:	2000      	movs	r0, #0
  403fb2:	4770      	bx	lr
  403fb4:	3801      	subs	r0, #1
  403fb6:	4770      	bx	lr
  403fb8:	2d00      	cmp	r5, #0
  403fba:	bf06      	itte	eq
  403fbc:	4635      	moveq	r5, r6
  403fbe:	3803      	subeq	r0, #3
  403fc0:	3807      	subne	r0, #7
  403fc2:	f015 0f01 	tst.w	r5, #1
  403fc6:	d107      	bne.n	403fd8 <memchr+0x98>
  403fc8:	3001      	adds	r0, #1
  403fca:	f415 7f80 	tst.w	r5, #256	; 0x100
  403fce:	bf02      	ittt	eq
  403fd0:	3001      	addeq	r0, #1
  403fd2:	f415 3fc0 	tsteq.w	r5, #98304	; 0x18000
  403fd6:	3001      	addeq	r0, #1
  403fd8:	bcf0      	pop	{r4, r5, r6, r7}
  403fda:	3801      	subs	r0, #1
  403fdc:	4770      	bx	lr
  403fde:	bf00      	nop

00403fe0 <memmove>:
  403fe0:	4288      	cmp	r0, r1
  403fe2:	b5f0      	push	{r4, r5, r6, r7, lr}
  403fe4:	d90d      	bls.n	404002 <memmove+0x22>
  403fe6:	188b      	adds	r3, r1, r2
  403fe8:	4298      	cmp	r0, r3
  403fea:	d20a      	bcs.n	404002 <memmove+0x22>
  403fec:	1881      	adds	r1, r0, r2
  403fee:	2a00      	cmp	r2, #0
  403ff0:	d051      	beq.n	404096 <memmove+0xb6>
  403ff2:	1a9a      	subs	r2, r3, r2
  403ff4:	f813 4d01 	ldrb.w	r4, [r3, #-1]!
  403ff8:	f801 4d01 	strb.w	r4, [r1, #-1]!
  403ffc:	4293      	cmp	r3, r2
  403ffe:	d1f9      	bne.n	403ff4 <memmove+0x14>
  404000:	bdf0      	pop	{r4, r5, r6, r7, pc}
  404002:	2a0f      	cmp	r2, #15
  404004:	d948      	bls.n	404098 <memmove+0xb8>
  404006:	ea41 0300 	orr.w	r3, r1, r0
  40400a:	079b      	lsls	r3, r3, #30
  40400c:	d146      	bne.n	40409c <memmove+0xbc>
  40400e:	f100 0410 	add.w	r4, r0, #16
  404012:	f101 0310 	add.w	r3, r1, #16
  404016:	4615      	mov	r5, r2
  404018:	f853 6c10 	ldr.w	r6, [r3, #-16]
  40401c:	f844 6c10 	str.w	r6, [r4, #-16]
  404020:	f853 6c0c 	ldr.w	r6, [r3, #-12]
  404024:	f844 6c0c 	str.w	r6, [r4, #-12]
  404028:	f853 6c08 	ldr.w	r6, [r3, #-8]
  40402c:	f844 6c08 	str.w	r6, [r4, #-8]
  404030:	3d10      	subs	r5, #16
  404032:	f853 6c04 	ldr.w	r6, [r3, #-4]
  404036:	f844 6c04 	str.w	r6, [r4, #-4]
  40403a:	2d0f      	cmp	r5, #15
  40403c:	f103 0310 	add.w	r3, r3, #16
  404040:	f104 0410 	add.w	r4, r4, #16
  404044:	d8e8      	bhi.n	404018 <memmove+0x38>
  404046:	f1a2 0310 	sub.w	r3, r2, #16
  40404a:	f023 030f 	bic.w	r3, r3, #15
  40404e:	f002 0e0f 	and.w	lr, r2, #15
  404052:	3310      	adds	r3, #16
  404054:	f1be 0f03 	cmp.w	lr, #3
  404058:	4419      	add	r1, r3
  40405a:	4403      	add	r3, r0
  40405c:	d921      	bls.n	4040a2 <memmove+0xc2>
  40405e:	1f1e      	subs	r6, r3, #4
  404060:	460d      	mov	r5, r1
  404062:	4674      	mov	r4, lr
  404064:	3c04      	subs	r4, #4
  404066:	f855 7b04 	ldr.w	r7, [r5], #4
  40406a:	f846 7f04 	str.w	r7, [r6, #4]!
  40406e:	2c03      	cmp	r4, #3
  404070:	d8f8      	bhi.n	404064 <memmove+0x84>
  404072:	f1ae 0404 	sub.w	r4, lr, #4
  404076:	f024 0403 	bic.w	r4, r4, #3
  40407a:	3404      	adds	r4, #4
  40407c:	4423      	add	r3, r4
  40407e:	4421      	add	r1, r4
  404080:	f002 0203 	and.w	r2, r2, #3
  404084:	b162      	cbz	r2, 4040a0 <memmove+0xc0>
  404086:	3b01      	subs	r3, #1
  404088:	440a      	add	r2, r1
  40408a:	f811 4b01 	ldrb.w	r4, [r1], #1
  40408e:	f803 4f01 	strb.w	r4, [r3, #1]!
  404092:	428a      	cmp	r2, r1
  404094:	d1f9      	bne.n	40408a <memmove+0xaa>
  404096:	bdf0      	pop	{r4, r5, r6, r7, pc}
  404098:	4603      	mov	r3, r0
  40409a:	e7f3      	b.n	404084 <memmove+0xa4>
  40409c:	4603      	mov	r3, r0
  40409e:	e7f2      	b.n	404086 <memmove+0xa6>
  4040a0:	bdf0      	pop	{r4, r5, r6, r7, pc}
  4040a2:	4672      	mov	r2, lr
  4040a4:	e7ee      	b.n	404084 <memmove+0xa4>
  4040a6:	bf00      	nop

004040a8 <__malloc_lock>:
  4040a8:	4770      	bx	lr
  4040aa:	bf00      	nop

004040ac <__malloc_unlock>:
  4040ac:	4770      	bx	lr
  4040ae:	bf00      	nop

004040b0 <_realloc_r>:
  4040b0:	e92d 4ff0 	stmdb	sp!, {r4, r5, r6, r7, r8, r9, sl, fp, lr}
  4040b4:	4617      	mov	r7, r2
  4040b6:	b083      	sub	sp, #12
  4040b8:	2900      	cmp	r1, #0
  4040ba:	f000 80c1 	beq.w	404240 <_realloc_r+0x190>
  4040be:	460e      	mov	r6, r1
  4040c0:	4681      	mov	r9, r0
  4040c2:	f107 050b 	add.w	r5, r7, #11
  4040c6:	f7ff ffef 	bl	4040a8 <__malloc_lock>
  4040ca:	f856 ec04 	ldr.w	lr, [r6, #-4]
  4040ce:	2d16      	cmp	r5, #22
  4040d0:	f02e 0403 	bic.w	r4, lr, #3
  4040d4:	f1a6 0808 	sub.w	r8, r6, #8
  4040d8:	d840      	bhi.n	40415c <_realloc_r+0xac>
  4040da:	2210      	movs	r2, #16
  4040dc:	4615      	mov	r5, r2
  4040de:	42af      	cmp	r7, r5
  4040e0:	d841      	bhi.n	404166 <_realloc_r+0xb6>
  4040e2:	4294      	cmp	r4, r2
  4040e4:	da75      	bge.n	4041d2 <_realloc_r+0x122>
  4040e6:	4bc9      	ldr	r3, [pc, #804]	; (40440c <_realloc_r+0x35c>)
  4040e8:	6899      	ldr	r1, [r3, #8]
  4040ea:	eb08 0004 	add.w	r0, r8, r4
  4040ee:	4288      	cmp	r0, r1
  4040f0:	6841      	ldr	r1, [r0, #4]
  4040f2:	f000 80d9 	beq.w	4042a8 <_realloc_r+0x1f8>
  4040f6:	f021 0301 	bic.w	r3, r1, #1
  4040fa:	4403      	add	r3, r0
  4040fc:	685b      	ldr	r3, [r3, #4]
  4040fe:	07db      	lsls	r3, r3, #31
  404100:	d57d      	bpl.n	4041fe <_realloc_r+0x14e>
  404102:	f01e 0f01 	tst.w	lr, #1
  404106:	d035      	beq.n	404174 <_realloc_r+0xc4>
  404108:	4639      	mov	r1, r7
  40410a:	4648      	mov	r0, r9
  40410c:	f7ff fc5c 	bl	4039c8 <_malloc_r>
  404110:	4607      	mov	r7, r0
  404112:	b1e0      	cbz	r0, 40414e <_realloc_r+0x9e>
  404114:	f856 3c04 	ldr.w	r3, [r6, #-4]
  404118:	f023 0301 	bic.w	r3, r3, #1
  40411c:	4443      	add	r3, r8
  40411e:	f1a0 0208 	sub.w	r2, r0, #8
  404122:	429a      	cmp	r2, r3
  404124:	f000 8144 	beq.w	4043b0 <_realloc_r+0x300>
  404128:	1f22      	subs	r2, r4, #4
  40412a:	2a24      	cmp	r2, #36	; 0x24
  40412c:	f200 8131 	bhi.w	404392 <_realloc_r+0x2e2>
  404130:	2a13      	cmp	r2, #19
  404132:	f200 8104 	bhi.w	40433e <_realloc_r+0x28e>
  404136:	4603      	mov	r3, r0
  404138:	4632      	mov	r2, r6
  40413a:	6811      	ldr	r1, [r2, #0]
  40413c:	6019      	str	r1, [r3, #0]
  40413e:	6851      	ldr	r1, [r2, #4]
  404140:	6059      	str	r1, [r3, #4]
  404142:	6892      	ldr	r2, [r2, #8]
  404144:	609a      	str	r2, [r3, #8]
  404146:	4631      	mov	r1, r6
  404148:	4648      	mov	r0, r9
  40414a:	f7ff f923 	bl	403394 <_free_r>
  40414e:	4648      	mov	r0, r9
  404150:	f7ff ffac 	bl	4040ac <__malloc_unlock>
  404154:	4638      	mov	r0, r7
  404156:	b003      	add	sp, #12
  404158:	e8bd 8ff0 	ldmia.w	sp!, {r4, r5, r6, r7, r8, r9, sl, fp, pc}
  40415c:	f025 0507 	bic.w	r5, r5, #7
  404160:	2d00      	cmp	r5, #0
  404162:	462a      	mov	r2, r5
  404164:	dabb      	bge.n	4040de <_realloc_r+0x2e>
  404166:	230c      	movs	r3, #12
  404168:	2000      	movs	r0, #0
  40416a:	f8c9 3000 	str.w	r3, [r9]
  40416e:	b003      	add	sp, #12
  404170:	e8bd 8ff0 	ldmia.w	sp!, {r4, r5, r6, r7, r8, r9, sl, fp, pc}
  404174:	f856 3c08 	ldr.w	r3, [r6, #-8]
  404178:	ebc3 0a08 	rsb	sl, r3, r8
  40417c:	f8da 3004 	ldr.w	r3, [sl, #4]
  404180:	f023 0c03 	bic.w	ip, r3, #3
  404184:	eb04 030c 	add.w	r3, r4, ip
  404188:	4293      	cmp	r3, r2
  40418a:	dbbd      	blt.n	404108 <_realloc_r+0x58>
  40418c:	4657      	mov	r7, sl
  40418e:	f8da 100c 	ldr.w	r1, [sl, #12]
  404192:	f857 0f08 	ldr.w	r0, [r7, #8]!
  404196:	1f22      	subs	r2, r4, #4
  404198:	2a24      	cmp	r2, #36	; 0x24
  40419a:	60c1      	str	r1, [r0, #12]
  40419c:	6088      	str	r0, [r1, #8]
  40419e:	f200 8117 	bhi.w	4043d0 <_realloc_r+0x320>
  4041a2:	2a13      	cmp	r2, #19
  4041a4:	f240 8112 	bls.w	4043cc <_realloc_r+0x31c>
  4041a8:	6831      	ldr	r1, [r6, #0]
  4041aa:	f8ca 1008 	str.w	r1, [sl, #8]
  4041ae:	6871      	ldr	r1, [r6, #4]
  4041b0:	f8ca 100c 	str.w	r1, [sl, #12]
  4041b4:	2a1b      	cmp	r2, #27
  4041b6:	f200 812b 	bhi.w	404410 <_realloc_r+0x360>
  4041ba:	3608      	adds	r6, #8
  4041bc:	f10a 0210 	add.w	r2, sl, #16
  4041c0:	6831      	ldr	r1, [r6, #0]
  4041c2:	6011      	str	r1, [r2, #0]
  4041c4:	6871      	ldr	r1, [r6, #4]
  4041c6:	6051      	str	r1, [r2, #4]
  4041c8:	68b1      	ldr	r1, [r6, #8]
  4041ca:	6091      	str	r1, [r2, #8]
  4041cc:	463e      	mov	r6, r7
  4041ce:	461c      	mov	r4, r3
  4041d0:	46d0      	mov	r8, sl
  4041d2:	1b63      	subs	r3, r4, r5
  4041d4:	2b0f      	cmp	r3, #15
  4041d6:	d81d      	bhi.n	404214 <_realloc_r+0x164>
  4041d8:	f8d8 3004 	ldr.w	r3, [r8, #4]
  4041dc:	f003 0301 	and.w	r3, r3, #1
  4041e0:	4323      	orrs	r3, r4
  4041e2:	4444      	add	r4, r8
  4041e4:	f8c8 3004 	str.w	r3, [r8, #4]
  4041e8:	6863      	ldr	r3, [r4, #4]
  4041ea:	f043 0301 	orr.w	r3, r3, #1
  4041ee:	6063      	str	r3, [r4, #4]
  4041f0:	4648      	mov	r0, r9
  4041f2:	f7ff ff5b 	bl	4040ac <__malloc_unlock>
  4041f6:	4630      	mov	r0, r6
  4041f8:	b003      	add	sp, #12
  4041fa:	e8bd 8ff0 	ldmia.w	sp!, {r4, r5, r6, r7, r8, r9, sl, fp, pc}
  4041fe:	f021 0103 	bic.w	r1, r1, #3
  404202:	4421      	add	r1, r4
  404204:	4291      	cmp	r1, r2
  404206:	db21      	blt.n	40424c <_realloc_r+0x19c>
  404208:	68c3      	ldr	r3, [r0, #12]
  40420a:	6882      	ldr	r2, [r0, #8]
  40420c:	460c      	mov	r4, r1
  40420e:	60d3      	str	r3, [r2, #12]
  404210:	609a      	str	r2, [r3, #8]
  404212:	e7de      	b.n	4041d2 <_realloc_r+0x122>
  404214:	f8d8 2004 	ldr.w	r2, [r8, #4]
  404218:	eb08 0105 	add.w	r1, r8, r5
  40421c:	f002 0201 	and.w	r2, r2, #1
  404220:	4315      	orrs	r5, r2
  404222:	f043 0201 	orr.w	r2, r3, #1
  404226:	440b      	add	r3, r1
  404228:	f8c8 5004 	str.w	r5, [r8, #4]
  40422c:	604a      	str	r2, [r1, #4]
  40422e:	685a      	ldr	r2, [r3, #4]
  404230:	f042 0201 	orr.w	r2, r2, #1
  404234:	3108      	adds	r1, #8
  404236:	605a      	str	r2, [r3, #4]
  404238:	4648      	mov	r0, r9
  40423a:	f7ff f8ab 	bl	403394 <_free_r>
  40423e:	e7d7      	b.n	4041f0 <_realloc_r+0x140>
  404240:	4611      	mov	r1, r2
  404242:	b003      	add	sp, #12
  404244:	e8bd 4ff0 	ldmia.w	sp!, {r4, r5, r6, r7, r8, r9, sl, fp, lr}
  404248:	f7ff bbbe 	b.w	4039c8 <_malloc_r>
  40424c:	f01e 0f01 	tst.w	lr, #1
  404250:	f47f af5a 	bne.w	404108 <_realloc_r+0x58>
  404254:	f856 3c08 	ldr.w	r3, [r6, #-8]
  404258:	ebc3 0a08 	rsb	sl, r3, r8
  40425c:	f8da 3004 	ldr.w	r3, [sl, #4]
  404260:	f023 0c03 	bic.w	ip, r3, #3
  404264:	eb01 0e0c 	add.w	lr, r1, ip
  404268:	4596      	cmp	lr, r2
  40426a:	db8b      	blt.n	404184 <_realloc_r+0xd4>
  40426c:	68c3      	ldr	r3, [r0, #12]
  40426e:	6882      	ldr	r2, [r0, #8]
  404270:	4657      	mov	r7, sl
  404272:	60d3      	str	r3, [r2, #12]
  404274:	609a      	str	r2, [r3, #8]
  404276:	f857 1f08 	ldr.w	r1, [r7, #8]!
  40427a:	f8da 300c 	ldr.w	r3, [sl, #12]
  40427e:	60cb      	str	r3, [r1, #12]
  404280:	1f22      	subs	r2, r4, #4
  404282:	2a24      	cmp	r2, #36	; 0x24
  404284:	6099      	str	r1, [r3, #8]
  404286:	f200 8099 	bhi.w	4043bc <_realloc_r+0x30c>
  40428a:	2a13      	cmp	r2, #19
  40428c:	d962      	bls.n	404354 <_realloc_r+0x2a4>
  40428e:	6833      	ldr	r3, [r6, #0]
  404290:	f8ca 3008 	str.w	r3, [sl, #8]
  404294:	6873      	ldr	r3, [r6, #4]
  404296:	f8ca 300c 	str.w	r3, [sl, #12]
  40429a:	2a1b      	cmp	r2, #27
  40429c:	f200 80a0 	bhi.w	4043e0 <_realloc_r+0x330>
  4042a0:	3608      	adds	r6, #8
  4042a2:	f10a 0310 	add.w	r3, sl, #16
  4042a6:	e056      	b.n	404356 <_realloc_r+0x2a6>
  4042a8:	f021 0b03 	bic.w	fp, r1, #3
  4042ac:	44a3      	add	fp, r4
  4042ae:	f105 0010 	add.w	r0, r5, #16
  4042b2:	4583      	cmp	fp, r0
  4042b4:	da59      	bge.n	40436a <_realloc_r+0x2ba>
  4042b6:	f01e 0f01 	tst.w	lr, #1
  4042ba:	f47f af25 	bne.w	404108 <_realloc_r+0x58>
  4042be:	f856 1c08 	ldr.w	r1, [r6, #-8]
  4042c2:	ebc1 0a08 	rsb	sl, r1, r8
  4042c6:	f8da 1004 	ldr.w	r1, [sl, #4]
  4042ca:	f021 0c03 	bic.w	ip, r1, #3
  4042ce:	44e3      	add	fp, ip
  4042d0:	4558      	cmp	r0, fp
  4042d2:	f73f af57 	bgt.w	404184 <_realloc_r+0xd4>
  4042d6:	4657      	mov	r7, sl
  4042d8:	f8da 100c 	ldr.w	r1, [sl, #12]
  4042dc:	f857 0f08 	ldr.w	r0, [r7, #8]!
  4042e0:	1f22      	subs	r2, r4, #4
  4042e2:	2a24      	cmp	r2, #36	; 0x24
  4042e4:	60c1      	str	r1, [r0, #12]
  4042e6:	6088      	str	r0, [r1, #8]
  4042e8:	f200 80b4 	bhi.w	404454 <_realloc_r+0x3a4>
  4042ec:	2a13      	cmp	r2, #19
  4042ee:	f240 80a5 	bls.w	40443c <_realloc_r+0x38c>
  4042f2:	6831      	ldr	r1, [r6, #0]
  4042f4:	f8ca 1008 	str.w	r1, [sl, #8]
  4042f8:	6871      	ldr	r1, [r6, #4]
  4042fa:	f8ca 100c 	str.w	r1, [sl, #12]
  4042fe:	2a1b      	cmp	r2, #27
  404300:	f200 80af 	bhi.w	404462 <_realloc_r+0x3b2>
  404304:	3608      	adds	r6, #8
  404306:	f10a 0210 	add.w	r2, sl, #16
  40430a:	6831      	ldr	r1, [r6, #0]
  40430c:	6011      	str	r1, [r2, #0]
  40430e:	6871      	ldr	r1, [r6, #4]
  404310:	6051      	str	r1, [r2, #4]
  404312:	68b1      	ldr	r1, [r6, #8]
  404314:	6091      	str	r1, [r2, #8]
  404316:	eb0a 0105 	add.w	r1, sl, r5
  40431a:	ebc5 020b 	rsb	r2, r5, fp
  40431e:	f042 0201 	orr.w	r2, r2, #1
  404322:	6099      	str	r1, [r3, #8]
  404324:	604a      	str	r2, [r1, #4]
  404326:	f8da 3004 	ldr.w	r3, [sl, #4]
  40432a:	f003 0301 	and.w	r3, r3, #1
  40432e:	431d      	orrs	r5, r3
  404330:	4648      	mov	r0, r9
  404332:	f8ca 5004 	str.w	r5, [sl, #4]
  404336:	f7ff feb9 	bl	4040ac <__malloc_unlock>
  40433a:	4638      	mov	r0, r7
  40433c:	e75c      	b.n	4041f8 <_realloc_r+0x148>
  40433e:	6833      	ldr	r3, [r6, #0]
  404340:	6003      	str	r3, [r0, #0]
  404342:	6873      	ldr	r3, [r6, #4]
  404344:	6043      	str	r3, [r0, #4]
  404346:	2a1b      	cmp	r2, #27
  404348:	d827      	bhi.n	40439a <_realloc_r+0x2ea>
  40434a:	f100 0308 	add.w	r3, r0, #8
  40434e:	f106 0208 	add.w	r2, r6, #8
  404352:	e6f2      	b.n	40413a <_realloc_r+0x8a>
  404354:	463b      	mov	r3, r7
  404356:	6832      	ldr	r2, [r6, #0]
  404358:	601a      	str	r2, [r3, #0]
  40435a:	6872      	ldr	r2, [r6, #4]
  40435c:	605a      	str	r2, [r3, #4]
  40435e:	68b2      	ldr	r2, [r6, #8]
  404360:	609a      	str	r2, [r3, #8]
  404362:	463e      	mov	r6, r7
  404364:	4674      	mov	r4, lr
  404366:	46d0      	mov	r8, sl
  404368:	e733      	b.n	4041d2 <_realloc_r+0x122>
  40436a:	eb08 0105 	add.w	r1, r8, r5
  40436e:	ebc5 0b0b 	rsb	fp, r5, fp
  404372:	f04b 0201 	orr.w	r2, fp, #1
  404376:	6099      	str	r1, [r3, #8]
  404378:	604a      	str	r2, [r1, #4]
  40437a:	f856 3c04 	ldr.w	r3, [r6, #-4]
  40437e:	f003 0301 	and.w	r3, r3, #1
  404382:	431d      	orrs	r5, r3
  404384:	4648      	mov	r0, r9
  404386:	f846 5c04 	str.w	r5, [r6, #-4]
  40438a:	f7ff fe8f 	bl	4040ac <__malloc_unlock>
  40438e:	4630      	mov	r0, r6
  404390:	e732      	b.n	4041f8 <_realloc_r+0x148>
  404392:	4631      	mov	r1, r6
  404394:	f7ff fe24 	bl	403fe0 <memmove>
  404398:	e6d5      	b.n	404146 <_realloc_r+0x96>
  40439a:	68b3      	ldr	r3, [r6, #8]
  40439c:	6083      	str	r3, [r0, #8]
  40439e:	68f3      	ldr	r3, [r6, #12]
  4043a0:	60c3      	str	r3, [r0, #12]
  4043a2:	2a24      	cmp	r2, #36	; 0x24
  4043a4:	d028      	beq.n	4043f8 <_realloc_r+0x348>
  4043a6:	f100 0310 	add.w	r3, r0, #16
  4043aa:	f106 0210 	add.w	r2, r6, #16
  4043ae:	e6c4      	b.n	40413a <_realloc_r+0x8a>
  4043b0:	f850 3c04 	ldr.w	r3, [r0, #-4]
  4043b4:	f023 0303 	bic.w	r3, r3, #3
  4043b8:	441c      	add	r4, r3
  4043ba:	e70a      	b.n	4041d2 <_realloc_r+0x122>
  4043bc:	4631      	mov	r1, r6
  4043be:	4638      	mov	r0, r7
  4043c0:	4674      	mov	r4, lr
  4043c2:	46d0      	mov	r8, sl
  4043c4:	f7ff fe0c 	bl	403fe0 <memmove>
  4043c8:	463e      	mov	r6, r7
  4043ca:	e702      	b.n	4041d2 <_realloc_r+0x122>
  4043cc:	463a      	mov	r2, r7
  4043ce:	e6f7      	b.n	4041c0 <_realloc_r+0x110>
  4043d0:	4631      	mov	r1, r6
  4043d2:	4638      	mov	r0, r7
  4043d4:	461c      	mov	r4, r3
  4043d6:	46d0      	mov	r8, sl
  4043d8:	f7ff fe02 	bl	403fe0 <memmove>
  4043dc:	463e      	mov	r6, r7
  4043de:	e6f8      	b.n	4041d2 <_realloc_r+0x122>
  4043e0:	68b3      	ldr	r3, [r6, #8]
  4043e2:	f8ca 3010 	str.w	r3, [sl, #16]
  4043e6:	68f3      	ldr	r3, [r6, #12]
  4043e8:	f8ca 3014 	str.w	r3, [sl, #20]
  4043ec:	2a24      	cmp	r2, #36	; 0x24
  4043ee:	d01b      	beq.n	404428 <_realloc_r+0x378>
  4043f0:	3610      	adds	r6, #16
  4043f2:	f10a 0318 	add.w	r3, sl, #24
  4043f6:	e7ae      	b.n	404356 <_realloc_r+0x2a6>
  4043f8:	6933      	ldr	r3, [r6, #16]
  4043fa:	6103      	str	r3, [r0, #16]
  4043fc:	6973      	ldr	r3, [r6, #20]
  4043fe:	6143      	str	r3, [r0, #20]
  404400:	f106 0218 	add.w	r2, r6, #24
  404404:	f100 0318 	add.w	r3, r0, #24
  404408:	e697      	b.n	40413a <_realloc_r+0x8a>
  40440a:	bf00      	nop
  40440c:	20400458 	.word	0x20400458
  404410:	68b1      	ldr	r1, [r6, #8]
  404412:	f8ca 1010 	str.w	r1, [sl, #16]
  404416:	68f1      	ldr	r1, [r6, #12]
  404418:	f8ca 1014 	str.w	r1, [sl, #20]
  40441c:	2a24      	cmp	r2, #36	; 0x24
  40441e:	d00f      	beq.n	404440 <_realloc_r+0x390>
  404420:	3610      	adds	r6, #16
  404422:	f10a 0218 	add.w	r2, sl, #24
  404426:	e6cb      	b.n	4041c0 <_realloc_r+0x110>
  404428:	6933      	ldr	r3, [r6, #16]
  40442a:	f8ca 3018 	str.w	r3, [sl, #24]
  40442e:	6973      	ldr	r3, [r6, #20]
  404430:	f8ca 301c 	str.w	r3, [sl, #28]
  404434:	3618      	adds	r6, #24
  404436:	f10a 0320 	add.w	r3, sl, #32
  40443a:	e78c      	b.n	404356 <_realloc_r+0x2a6>
  40443c:	463a      	mov	r2, r7
  40443e:	e764      	b.n	40430a <_realloc_r+0x25a>
  404440:	6932      	ldr	r2, [r6, #16]
  404442:	f8ca 2018 	str.w	r2, [sl, #24]
  404446:	6972      	ldr	r2, [r6, #20]
  404448:	f8ca 201c 	str.w	r2, [sl, #28]
  40444c:	3618      	adds	r6, #24
  40444e:	f10a 0220 	add.w	r2, sl, #32
  404452:	e6b5      	b.n	4041c0 <_realloc_r+0x110>
  404454:	4631      	mov	r1, r6
  404456:	4638      	mov	r0, r7
  404458:	9301      	str	r3, [sp, #4]
  40445a:	f7ff fdc1 	bl	403fe0 <memmove>
  40445e:	9b01      	ldr	r3, [sp, #4]
  404460:	e759      	b.n	404316 <_realloc_r+0x266>
  404462:	68b1      	ldr	r1, [r6, #8]
  404464:	f8ca 1010 	str.w	r1, [sl, #16]
  404468:	68f1      	ldr	r1, [r6, #12]
  40446a:	f8ca 1014 	str.w	r1, [sl, #20]
  40446e:	2a24      	cmp	r2, #36	; 0x24
  404470:	d003      	beq.n	40447a <_realloc_r+0x3ca>
  404472:	3610      	adds	r6, #16
  404474:	f10a 0218 	add.w	r2, sl, #24
  404478:	e747      	b.n	40430a <_realloc_r+0x25a>
  40447a:	6932      	ldr	r2, [r6, #16]
  40447c:	f8ca 2018 	str.w	r2, [sl, #24]
  404480:	6972      	ldr	r2, [r6, #20]
  404482:	f8ca 201c 	str.w	r2, [sl, #28]
  404486:	3618      	adds	r6, #24
  404488:	f10a 0220 	add.w	r2, sl, #32
  40448c:	e73d      	b.n	40430a <_realloc_r+0x25a>
  40448e:	bf00      	nop

00404490 <_sbrk_r>:
  404490:	b538      	push	{r3, r4, r5, lr}
  404492:	4c07      	ldr	r4, [pc, #28]	; (4044b0 <_sbrk_r+0x20>)
  404494:	2300      	movs	r3, #0
  404496:	4605      	mov	r5, r0
  404498:	4608      	mov	r0, r1
  40449a:	6023      	str	r3, [r4, #0]
  40449c:	f7fd f98e 	bl	4017bc <_sbrk>
  4044a0:	1c43      	adds	r3, r0, #1
  4044a2:	d000      	beq.n	4044a6 <_sbrk_r+0x16>
  4044a4:	bd38      	pop	{r3, r4, r5, pc}
  4044a6:	6823      	ldr	r3, [r4, #0]
  4044a8:	2b00      	cmp	r3, #0
  4044aa:	d0fb      	beq.n	4044a4 <_sbrk_r+0x14>
  4044ac:	602b      	str	r3, [r5, #0]
  4044ae:	bd38      	pop	{r3, r4, r5, pc}
  4044b0:	20400d10 	.word	0x20400d10

004044b4 <__sread>:
  4044b4:	b510      	push	{r4, lr}
  4044b6:	460c      	mov	r4, r1
  4044b8:	f9b1 100e 	ldrsh.w	r1, [r1, #14]
  4044bc:	f000 fa34 	bl	404928 <_read_r>
  4044c0:	2800      	cmp	r0, #0
  4044c2:	db03      	blt.n	4044cc <__sread+0x18>
  4044c4:	6d23      	ldr	r3, [r4, #80]	; 0x50
  4044c6:	4403      	add	r3, r0
  4044c8:	6523      	str	r3, [r4, #80]	; 0x50
  4044ca:	bd10      	pop	{r4, pc}
  4044cc:	89a3      	ldrh	r3, [r4, #12]
  4044ce:	f423 5380 	bic.w	r3, r3, #4096	; 0x1000
  4044d2:	81a3      	strh	r3, [r4, #12]
  4044d4:	bd10      	pop	{r4, pc}
  4044d6:	bf00      	nop

004044d8 <__swrite>:
  4044d8:	e92d 41f0 	stmdb	sp!, {r4, r5, r6, r7, r8, lr}
  4044dc:	4616      	mov	r6, r2
  4044de:	f9b1 200c 	ldrsh.w	r2, [r1, #12]
  4044e2:	461f      	mov	r7, r3
  4044e4:	05d3      	lsls	r3, r2, #23
  4044e6:	460c      	mov	r4, r1
  4044e8:	4605      	mov	r5, r0
  4044ea:	d507      	bpl.n	4044fc <__swrite+0x24>
  4044ec:	2200      	movs	r2, #0
  4044ee:	2302      	movs	r3, #2
  4044f0:	f9b1 100e 	ldrsh.w	r1, [r1, #14]
  4044f4:	f000 fa02 	bl	4048fc <_lseek_r>
  4044f8:	f9b4 200c 	ldrsh.w	r2, [r4, #12]
  4044fc:	f9b4 100e 	ldrsh.w	r1, [r4, #14]
  404500:	f422 5280 	bic.w	r2, r2, #4096	; 0x1000
  404504:	81a2      	strh	r2, [r4, #12]
  404506:	463b      	mov	r3, r7
  404508:	4632      	mov	r2, r6
  40450a:	4628      	mov	r0, r5
  40450c:	e8bd 41f0 	ldmia.w	sp!, {r4, r5, r6, r7, r8, lr}
  404510:	f000 b912 	b.w	404738 <_write_r>

00404514 <__sseek>:
  404514:	b510      	push	{r4, lr}
  404516:	460c      	mov	r4, r1
  404518:	f9b1 100e 	ldrsh.w	r1, [r1, #14]
  40451c:	f000 f9ee 	bl	4048fc <_lseek_r>
  404520:	89a3      	ldrh	r3, [r4, #12]
  404522:	1c42      	adds	r2, r0, #1
  404524:	bf0e      	itee	eq
  404526:	f423 5380 	biceq.w	r3, r3, #4096	; 0x1000
  40452a:	f443 5380 	orrne.w	r3, r3, #4096	; 0x1000
  40452e:	6520      	strne	r0, [r4, #80]	; 0x50
  404530:	81a3      	strh	r3, [r4, #12]
  404532:	bd10      	pop	{r4, pc}

00404534 <__sclose>:
  404534:	f9b1 100e 	ldrsh.w	r1, [r1, #14]
  404538:	f000 b966 	b.w	404808 <_close_r>
  40453c:	0000      	movs	r0, r0
	...

00404540 <strlen>:
  404540:	f890 f000 	pld	[r0]
  404544:	e96d 4502 	strd	r4, r5, [sp, #-8]!
  404548:	f020 0107 	bic.w	r1, r0, #7
  40454c:	f06f 0c00 	mvn.w	ip, #0
  404550:	f010 0407 	ands.w	r4, r0, #7
  404554:	f891 f020 	pld	[r1, #32]
  404558:	f040 8049 	bne.w	4045ee <strlen+0xae>
  40455c:	f04f 0400 	mov.w	r4, #0
  404560:	f06f 0007 	mvn.w	r0, #7
  404564:	e9d1 2300 	ldrd	r2, r3, [r1]
  404568:	f891 f040 	pld	[r1, #64]	; 0x40
  40456c:	f100 0008 	add.w	r0, r0, #8
  404570:	fa82 f24c 	uadd8	r2, r2, ip
  404574:	faa4 f28c 	sel	r2, r4, ip
  404578:	fa83 f34c 	uadd8	r3, r3, ip
  40457c:	faa2 f38c 	sel	r3, r2, ip
  404580:	bb4b      	cbnz	r3, 4045d6 <strlen+0x96>
  404582:	e9d1 2302 	ldrd	r2, r3, [r1, #8]
  404586:	fa82 f24c 	uadd8	r2, r2, ip
  40458a:	f100 0008 	add.w	r0, r0, #8
  40458e:	faa4 f28c 	sel	r2, r4, ip
  404592:	fa83 f34c 	uadd8	r3, r3, ip
  404596:	faa2 f38c 	sel	r3, r2, ip
  40459a:	b9e3      	cbnz	r3, 4045d6 <strlen+0x96>
  40459c:	e9d1 2304 	ldrd	r2, r3, [r1, #16]
  4045a0:	fa82 f24c 	uadd8	r2, r2, ip
  4045a4:	f100 0008 	add.w	r0, r0, #8
  4045a8:	faa4 f28c 	sel	r2, r4, ip
  4045ac:	fa83 f34c 	uadd8	r3, r3, ip
  4045b0:	faa2 f38c 	sel	r3, r2, ip
  4045b4:	b97b      	cbnz	r3, 4045d6 <strlen+0x96>
  4045b6:	e9d1 2306 	ldrd	r2, r3, [r1, #24]
  4045ba:	f101 0120 	add.w	r1, r1, #32
  4045be:	fa82 f24c 	uadd8	r2, r2, ip
  4045c2:	f100 0008 	add.w	r0, r0, #8
  4045c6:	faa4 f28c 	sel	r2, r4, ip
  4045ca:	fa83 f34c 	uadd8	r3, r3, ip
  4045ce:	faa2 f38c 	sel	r3, r2, ip
  4045d2:	2b00      	cmp	r3, #0
  4045d4:	d0c6      	beq.n	404564 <strlen+0x24>
  4045d6:	2a00      	cmp	r2, #0
  4045d8:	bf04      	itt	eq
  4045da:	3004      	addeq	r0, #4
  4045dc:	461a      	moveq	r2, r3
  4045de:	ba12      	rev	r2, r2
  4045e0:	fab2 f282 	clz	r2, r2
  4045e4:	e8fd 4502 	ldrd	r4, r5, [sp], #8
  4045e8:	eb00 00d2 	add.w	r0, r0, r2, lsr #3
  4045ec:	4770      	bx	lr
  4045ee:	e9d1 2300 	ldrd	r2, r3, [r1]
  4045f2:	f004 0503 	and.w	r5, r4, #3
  4045f6:	f1c4 0000 	rsb	r0, r4, #0
  4045fa:	ea4f 05c5 	mov.w	r5, r5, lsl #3
  4045fe:	f014 0f04 	tst.w	r4, #4
  404602:	f891 f040 	pld	[r1, #64]	; 0x40
  404606:	fa0c f505 	lsl.w	r5, ip, r5
  40460a:	ea62 0205 	orn	r2, r2, r5
  40460e:	bf1c      	itt	ne
  404610:	ea63 0305 	ornne	r3, r3, r5
  404614:	4662      	movne	r2, ip
  404616:	f04f 0400 	mov.w	r4, #0
  40461a:	e7a9      	b.n	404570 <strlen+0x30>

0040461c <__swbuf_r>:
  40461c:	b5f8      	push	{r3, r4, r5, r6, r7, lr}
  40461e:	460e      	mov	r6, r1
  404620:	4614      	mov	r4, r2
  404622:	4607      	mov	r7, r0
  404624:	b110      	cbz	r0, 40462c <__swbuf_r+0x10>
  404626:	6b83      	ldr	r3, [r0, #56]	; 0x38
  404628:	2b00      	cmp	r3, #0
  40462a:	d04a      	beq.n	4046c2 <__swbuf_r+0xa6>
  40462c:	f9b4 200c 	ldrsh.w	r2, [r4, #12]
  404630:	69a3      	ldr	r3, [r4, #24]
  404632:	60a3      	str	r3, [r4, #8]
  404634:	b291      	uxth	r1, r2
  404636:	0708      	lsls	r0, r1, #28
  404638:	d538      	bpl.n	4046ac <__swbuf_r+0x90>
  40463a:	6923      	ldr	r3, [r4, #16]
  40463c:	2b00      	cmp	r3, #0
  40463e:	d035      	beq.n	4046ac <__swbuf_r+0x90>
  404640:	0489      	lsls	r1, r1, #18
  404642:	b2f5      	uxtb	r5, r6
  404644:	d515      	bpl.n	404672 <__swbuf_r+0x56>
  404646:	6822      	ldr	r2, [r4, #0]
  404648:	6961      	ldr	r1, [r4, #20]
  40464a:	1ad3      	subs	r3, r2, r3
  40464c:	428b      	cmp	r3, r1
  40464e:	da1c      	bge.n	40468a <__swbuf_r+0x6e>
  404650:	3301      	adds	r3, #1
  404652:	68a1      	ldr	r1, [r4, #8]
  404654:	1c50      	adds	r0, r2, #1
  404656:	3901      	subs	r1, #1
  404658:	60a1      	str	r1, [r4, #8]
  40465a:	6020      	str	r0, [r4, #0]
  40465c:	7016      	strb	r6, [r2, #0]
  40465e:	6962      	ldr	r2, [r4, #20]
  404660:	429a      	cmp	r2, r3
  404662:	d01a      	beq.n	40469a <__swbuf_r+0x7e>
  404664:	89a3      	ldrh	r3, [r4, #12]
  404666:	07db      	lsls	r3, r3, #31
  404668:	d501      	bpl.n	40466e <__swbuf_r+0x52>
  40466a:	2d0a      	cmp	r5, #10
  40466c:	d015      	beq.n	40469a <__swbuf_r+0x7e>
  40466e:	4628      	mov	r0, r5
  404670:	bdf8      	pop	{r3, r4, r5, r6, r7, pc}
  404672:	6e61      	ldr	r1, [r4, #100]	; 0x64
  404674:	f442 5200 	orr.w	r2, r2, #8192	; 0x2000
  404678:	f421 5100 	bic.w	r1, r1, #8192	; 0x2000
  40467c:	81a2      	strh	r2, [r4, #12]
  40467e:	6822      	ldr	r2, [r4, #0]
  404680:	6661      	str	r1, [r4, #100]	; 0x64
  404682:	6961      	ldr	r1, [r4, #20]
  404684:	1ad3      	subs	r3, r2, r3
  404686:	428b      	cmp	r3, r1
  404688:	dbe2      	blt.n	404650 <__swbuf_r+0x34>
  40468a:	4621      	mov	r1, r4
  40468c:	4638      	mov	r0, r7
  40468e:	f7fe fd23 	bl	4030d8 <_fflush_r>
  404692:	b940      	cbnz	r0, 4046a6 <__swbuf_r+0x8a>
  404694:	6822      	ldr	r2, [r4, #0]
  404696:	2301      	movs	r3, #1
  404698:	e7db      	b.n	404652 <__swbuf_r+0x36>
  40469a:	4621      	mov	r1, r4
  40469c:	4638      	mov	r0, r7
  40469e:	f7fe fd1b 	bl	4030d8 <_fflush_r>
  4046a2:	2800      	cmp	r0, #0
  4046a4:	d0e3      	beq.n	40466e <__swbuf_r+0x52>
  4046a6:	f04f 30ff 	mov.w	r0, #4294967295
  4046aa:	bdf8      	pop	{r3, r4, r5, r6, r7, pc}
  4046ac:	4621      	mov	r1, r4
  4046ae:	4638      	mov	r0, r7
  4046b0:	f7fe fbfa 	bl	402ea8 <__swsetup_r>
  4046b4:	2800      	cmp	r0, #0
  4046b6:	d1f6      	bne.n	4046a6 <__swbuf_r+0x8a>
  4046b8:	f9b4 200c 	ldrsh.w	r2, [r4, #12]
  4046bc:	6923      	ldr	r3, [r4, #16]
  4046be:	b291      	uxth	r1, r2
  4046c0:	e7be      	b.n	404640 <__swbuf_r+0x24>
  4046c2:	f7fe fd9d 	bl	403200 <__sinit>
  4046c6:	e7b1      	b.n	40462c <__swbuf_r+0x10>

004046c8 <_wcrtomb_r>:
  4046c8:	e92d 41f0 	stmdb	sp!, {r4, r5, r6, r7, r8, lr}
  4046cc:	4605      	mov	r5, r0
  4046ce:	b086      	sub	sp, #24
  4046d0:	461e      	mov	r6, r3
  4046d2:	460c      	mov	r4, r1
  4046d4:	b1a1      	cbz	r1, 404700 <_wcrtomb_r+0x38>
  4046d6:	4b10      	ldr	r3, [pc, #64]	; (404718 <_wcrtomb_r+0x50>)
  4046d8:	4617      	mov	r7, r2
  4046da:	f8d3 8000 	ldr.w	r8, [r3]
  4046de:	f7ff f8ed 	bl	4038bc <__locale_charset>
  4046e2:	9600      	str	r6, [sp, #0]
  4046e4:	4603      	mov	r3, r0
  4046e6:	463a      	mov	r2, r7
  4046e8:	4621      	mov	r1, r4
  4046ea:	4628      	mov	r0, r5
  4046ec:	47c0      	blx	r8
  4046ee:	1c43      	adds	r3, r0, #1
  4046f0:	d103      	bne.n	4046fa <_wcrtomb_r+0x32>
  4046f2:	2200      	movs	r2, #0
  4046f4:	238a      	movs	r3, #138	; 0x8a
  4046f6:	6032      	str	r2, [r6, #0]
  4046f8:	602b      	str	r3, [r5, #0]
  4046fa:	b006      	add	sp, #24
  4046fc:	e8bd 81f0 	ldmia.w	sp!, {r4, r5, r6, r7, r8, pc}
  404700:	4b05      	ldr	r3, [pc, #20]	; (404718 <_wcrtomb_r+0x50>)
  404702:	681f      	ldr	r7, [r3, #0]
  404704:	f7ff f8da 	bl	4038bc <__locale_charset>
  404708:	9600      	str	r6, [sp, #0]
  40470a:	4603      	mov	r3, r0
  40470c:	4622      	mov	r2, r4
  40470e:	a903      	add	r1, sp, #12
  404710:	4628      	mov	r0, r5
  404712:	47b8      	blx	r7
  404714:	e7eb      	b.n	4046ee <_wcrtomb_r+0x26>
  404716:	bf00      	nop
  404718:	20400868 	.word	0x20400868

0040471c <__ascii_wctomb>:
  40471c:	b121      	cbz	r1, 404728 <__ascii_wctomb+0xc>
  40471e:	2aff      	cmp	r2, #255	; 0xff
  404720:	d804      	bhi.n	40472c <__ascii_wctomb+0x10>
  404722:	700a      	strb	r2, [r1, #0]
  404724:	2001      	movs	r0, #1
  404726:	4770      	bx	lr
  404728:	4608      	mov	r0, r1
  40472a:	4770      	bx	lr
  40472c:	238a      	movs	r3, #138	; 0x8a
  40472e:	6003      	str	r3, [r0, #0]
  404730:	f04f 30ff 	mov.w	r0, #4294967295
  404734:	4770      	bx	lr
  404736:	bf00      	nop

00404738 <_write_r>:
  404738:	b570      	push	{r4, r5, r6, lr}
  40473a:	460d      	mov	r5, r1
  40473c:	4c08      	ldr	r4, [pc, #32]	; (404760 <_write_r+0x28>)
  40473e:	4611      	mov	r1, r2
  404740:	4606      	mov	r6, r0
  404742:	461a      	mov	r2, r3
  404744:	4628      	mov	r0, r5
  404746:	2300      	movs	r3, #0
  404748:	6023      	str	r3, [r4, #0]
  40474a:	f7fb fe43 	bl	4003d4 <_write>
  40474e:	1c43      	adds	r3, r0, #1
  404750:	d000      	beq.n	404754 <_write_r+0x1c>
  404752:	bd70      	pop	{r4, r5, r6, pc}
  404754:	6823      	ldr	r3, [r4, #0]
  404756:	2b00      	cmp	r3, #0
  404758:	d0fb      	beq.n	404752 <_write_r+0x1a>
  40475a:	6033      	str	r3, [r6, #0]
  40475c:	bd70      	pop	{r4, r5, r6, pc}
  40475e:	bf00      	nop
  404760:	20400d10 	.word	0x20400d10

00404764 <__register_exitproc>:
  404764:	e92d 47f0 	stmdb	sp!, {r4, r5, r6, r7, r8, r9, sl, lr}
  404768:	4c25      	ldr	r4, [pc, #148]	; (404800 <__register_exitproc+0x9c>)
  40476a:	6825      	ldr	r5, [r4, #0]
  40476c:	f8d5 4148 	ldr.w	r4, [r5, #328]	; 0x148
  404770:	4606      	mov	r6, r0
  404772:	4688      	mov	r8, r1
  404774:	4692      	mov	sl, r2
  404776:	4699      	mov	r9, r3
  404778:	b3c4      	cbz	r4, 4047ec <__register_exitproc+0x88>
  40477a:	6860      	ldr	r0, [r4, #4]
  40477c:	281f      	cmp	r0, #31
  40477e:	dc17      	bgt.n	4047b0 <__register_exitproc+0x4c>
  404780:	1c43      	adds	r3, r0, #1
  404782:	b176      	cbz	r6, 4047a2 <__register_exitproc+0x3e>
  404784:	eb04 0580 	add.w	r5, r4, r0, lsl #2
  404788:	2201      	movs	r2, #1
  40478a:	f8c5 a088 	str.w	sl, [r5, #136]	; 0x88
  40478e:	f8d4 1188 	ldr.w	r1, [r4, #392]	; 0x188
  404792:	4082      	lsls	r2, r0
  404794:	4311      	orrs	r1, r2
  404796:	2e02      	cmp	r6, #2
  404798:	f8c4 1188 	str.w	r1, [r4, #392]	; 0x188
  40479c:	f8c5 9108 	str.w	r9, [r5, #264]	; 0x108
  4047a0:	d01e      	beq.n	4047e0 <__register_exitproc+0x7c>
  4047a2:	3002      	adds	r0, #2
  4047a4:	6063      	str	r3, [r4, #4]
  4047a6:	f844 8020 	str.w	r8, [r4, r0, lsl #2]
  4047aa:	2000      	movs	r0, #0
  4047ac:	e8bd 87f0 	ldmia.w	sp!, {r4, r5, r6, r7, r8, r9, sl, pc}
  4047b0:	4b14      	ldr	r3, [pc, #80]	; (404804 <__register_exitproc+0xa0>)
  4047b2:	b303      	cbz	r3, 4047f6 <__register_exitproc+0x92>
  4047b4:	f44f 70c8 	mov.w	r0, #400	; 0x190
  4047b8:	f7ff f8fe 	bl	4039b8 <malloc>
  4047bc:	4604      	mov	r4, r0
  4047be:	b1d0      	cbz	r0, 4047f6 <__register_exitproc+0x92>
  4047c0:	f8d5 3148 	ldr.w	r3, [r5, #328]	; 0x148
  4047c4:	2700      	movs	r7, #0
  4047c6:	e880 0088 	stmia.w	r0, {r3, r7}
  4047ca:	f8c5 4148 	str.w	r4, [r5, #328]	; 0x148
  4047ce:	4638      	mov	r0, r7
  4047d0:	2301      	movs	r3, #1
  4047d2:	f8c4 7188 	str.w	r7, [r4, #392]	; 0x188
  4047d6:	f8c4 718c 	str.w	r7, [r4, #396]	; 0x18c
  4047da:	2e00      	cmp	r6, #0
  4047dc:	d0e1      	beq.n	4047a2 <__register_exitproc+0x3e>
  4047de:	e7d1      	b.n	404784 <__register_exitproc+0x20>
  4047e0:	f8d4 118c 	ldr.w	r1, [r4, #396]	; 0x18c
  4047e4:	430a      	orrs	r2, r1
  4047e6:	f8c4 218c 	str.w	r2, [r4, #396]	; 0x18c
  4047ea:	e7da      	b.n	4047a2 <__register_exitproc+0x3e>
  4047ec:	f505 74a6 	add.w	r4, r5, #332	; 0x14c
  4047f0:	f8c5 4148 	str.w	r4, [r5, #328]	; 0x148
  4047f4:	e7c1      	b.n	40477a <__register_exitproc+0x16>
  4047f6:	f04f 30ff 	mov.w	r0, #4294967295
  4047fa:	e8bd 87f0 	ldmia.w	sp!, {r4, r5, r6, r7, r8, r9, sl, pc}
  4047fe:	bf00      	nop
  404800:	0040c5a0 	.word	0x0040c5a0
  404804:	004039b9 	.word	0x004039b9

00404808 <_close_r>:
  404808:	b538      	push	{r3, r4, r5, lr}
  40480a:	4c07      	ldr	r4, [pc, #28]	; (404828 <_close_r+0x20>)
  40480c:	2300      	movs	r3, #0
  40480e:	4605      	mov	r5, r0
  404810:	4608      	mov	r0, r1
  404812:	6023      	str	r3, [r4, #0]
  404814:	f7fc ffec 	bl	4017f0 <_close>
  404818:	1c43      	adds	r3, r0, #1
  40481a:	d000      	beq.n	40481e <_close_r+0x16>
  40481c:	bd38      	pop	{r3, r4, r5, pc}
  40481e:	6823      	ldr	r3, [r4, #0]
  404820:	2b00      	cmp	r3, #0
  404822:	d0fb      	beq.n	40481c <_close_r+0x14>
  404824:	602b      	str	r3, [r5, #0]
  404826:	bd38      	pop	{r3, r4, r5, pc}
  404828:	20400d10 	.word	0x20400d10

0040482c <_fclose_r>:
  40482c:	2900      	cmp	r1, #0
  40482e:	d03d      	beq.n	4048ac <_fclose_r+0x80>
  404830:	b570      	push	{r4, r5, r6, lr}
  404832:	4605      	mov	r5, r0
  404834:	460c      	mov	r4, r1
  404836:	b108      	cbz	r0, 40483c <_fclose_r+0x10>
  404838:	6b83      	ldr	r3, [r0, #56]	; 0x38
  40483a:	b37b      	cbz	r3, 40489c <_fclose_r+0x70>
  40483c:	f9b4 300c 	ldrsh.w	r3, [r4, #12]
  404840:	b90b      	cbnz	r3, 404846 <_fclose_r+0x1a>
  404842:	2000      	movs	r0, #0
  404844:	bd70      	pop	{r4, r5, r6, pc}
  404846:	4621      	mov	r1, r4
  404848:	4628      	mov	r0, r5
  40484a:	f7fe fba1 	bl	402f90 <__sflush_r>
  40484e:	6ae3      	ldr	r3, [r4, #44]	; 0x2c
  404850:	4606      	mov	r6, r0
  404852:	b133      	cbz	r3, 404862 <_fclose_r+0x36>
  404854:	69e1      	ldr	r1, [r4, #28]
  404856:	4628      	mov	r0, r5
  404858:	4798      	blx	r3
  40485a:	2800      	cmp	r0, #0
  40485c:	bfb8      	it	lt
  40485e:	f04f 36ff 	movlt.w	r6, #4294967295
  404862:	89a3      	ldrh	r3, [r4, #12]
  404864:	061b      	lsls	r3, r3, #24
  404866:	d41c      	bmi.n	4048a2 <_fclose_r+0x76>
  404868:	6b21      	ldr	r1, [r4, #48]	; 0x30
  40486a:	b141      	cbz	r1, 40487e <_fclose_r+0x52>
  40486c:	f104 0340 	add.w	r3, r4, #64	; 0x40
  404870:	4299      	cmp	r1, r3
  404872:	d002      	beq.n	40487a <_fclose_r+0x4e>
  404874:	4628      	mov	r0, r5
  404876:	f7fe fd8d 	bl	403394 <_free_r>
  40487a:	2300      	movs	r3, #0
  40487c:	6323      	str	r3, [r4, #48]	; 0x30
  40487e:	6c61      	ldr	r1, [r4, #68]	; 0x44
  404880:	b121      	cbz	r1, 40488c <_fclose_r+0x60>
  404882:	4628      	mov	r0, r5
  404884:	f7fe fd86 	bl	403394 <_free_r>
  404888:	2300      	movs	r3, #0
  40488a:	6463      	str	r3, [r4, #68]	; 0x44
  40488c:	f7fe fcbe 	bl	40320c <__sfp_lock_acquire>
  404890:	2300      	movs	r3, #0
  404892:	81a3      	strh	r3, [r4, #12]
  404894:	f7fe fcbc 	bl	403210 <__sfp_lock_release>
  404898:	4630      	mov	r0, r6
  40489a:	bd70      	pop	{r4, r5, r6, pc}
  40489c:	f7fe fcb0 	bl	403200 <__sinit>
  4048a0:	e7cc      	b.n	40483c <_fclose_r+0x10>
  4048a2:	6921      	ldr	r1, [r4, #16]
  4048a4:	4628      	mov	r0, r5
  4048a6:	f7fe fd75 	bl	403394 <_free_r>
  4048aa:	e7dd      	b.n	404868 <_fclose_r+0x3c>
  4048ac:	2000      	movs	r0, #0
  4048ae:	4770      	bx	lr

004048b0 <_fstat_r>:
  4048b0:	b538      	push	{r3, r4, r5, lr}
  4048b2:	460b      	mov	r3, r1
  4048b4:	4c07      	ldr	r4, [pc, #28]	; (4048d4 <_fstat_r+0x24>)
  4048b6:	4605      	mov	r5, r0
  4048b8:	4611      	mov	r1, r2
  4048ba:	4618      	mov	r0, r3
  4048bc:	2300      	movs	r3, #0
  4048be:	6023      	str	r3, [r4, #0]
  4048c0:	f7fc ff9a 	bl	4017f8 <_fstat>
  4048c4:	1c43      	adds	r3, r0, #1
  4048c6:	d000      	beq.n	4048ca <_fstat_r+0x1a>
  4048c8:	bd38      	pop	{r3, r4, r5, pc}
  4048ca:	6823      	ldr	r3, [r4, #0]
  4048cc:	2b00      	cmp	r3, #0
  4048ce:	d0fb      	beq.n	4048c8 <_fstat_r+0x18>
  4048d0:	602b      	str	r3, [r5, #0]
  4048d2:	bd38      	pop	{r3, r4, r5, pc}
  4048d4:	20400d10 	.word	0x20400d10

004048d8 <_isatty_r>:
  4048d8:	b538      	push	{r3, r4, r5, lr}
  4048da:	4c07      	ldr	r4, [pc, #28]	; (4048f8 <_isatty_r+0x20>)
  4048dc:	2300      	movs	r3, #0
  4048de:	4605      	mov	r5, r0
  4048e0:	4608      	mov	r0, r1
  4048e2:	6023      	str	r3, [r4, #0]
  4048e4:	f7fc ff8e 	bl	401804 <_isatty>
  4048e8:	1c43      	adds	r3, r0, #1
  4048ea:	d000      	beq.n	4048ee <_isatty_r+0x16>
  4048ec:	bd38      	pop	{r3, r4, r5, pc}
  4048ee:	6823      	ldr	r3, [r4, #0]
  4048f0:	2b00      	cmp	r3, #0
  4048f2:	d0fb      	beq.n	4048ec <_isatty_r+0x14>
  4048f4:	602b      	str	r3, [r5, #0]
  4048f6:	bd38      	pop	{r3, r4, r5, pc}
  4048f8:	20400d10 	.word	0x20400d10

004048fc <_lseek_r>:
  4048fc:	b570      	push	{r4, r5, r6, lr}
  4048fe:	460d      	mov	r5, r1
  404900:	4c08      	ldr	r4, [pc, #32]	; (404924 <_lseek_r+0x28>)
  404902:	4611      	mov	r1, r2
  404904:	4606      	mov	r6, r0
  404906:	461a      	mov	r2, r3
  404908:	4628      	mov	r0, r5
  40490a:	2300      	movs	r3, #0
  40490c:	6023      	str	r3, [r4, #0]
  40490e:	f7fc ff7b 	bl	401808 <_lseek>
  404912:	1c43      	adds	r3, r0, #1
  404914:	d000      	beq.n	404918 <_lseek_r+0x1c>
  404916:	bd70      	pop	{r4, r5, r6, pc}
  404918:	6823      	ldr	r3, [r4, #0]
  40491a:	2b00      	cmp	r3, #0
  40491c:	d0fb      	beq.n	404916 <_lseek_r+0x1a>
  40491e:	6033      	str	r3, [r6, #0]
  404920:	bd70      	pop	{r4, r5, r6, pc}
  404922:	bf00      	nop
  404924:	20400d10 	.word	0x20400d10

00404928 <_read_r>:
  404928:	b570      	push	{r4, r5, r6, lr}
  40492a:	460d      	mov	r5, r1
  40492c:	4c08      	ldr	r4, [pc, #32]	; (404950 <_read_r+0x28>)
  40492e:	4611      	mov	r1, r2
  404930:	4606      	mov	r6, r0
  404932:	461a      	mov	r2, r3
  404934:	4628      	mov	r0, r5
  404936:	2300      	movs	r3, #0
  404938:	6023      	str	r3, [r4, #0]
  40493a:	f7fb fd2d 	bl	400398 <_read>
  40493e:	1c43      	adds	r3, r0, #1
  404940:	d000      	beq.n	404944 <_read_r+0x1c>
  404942:	bd70      	pop	{r4, r5, r6, pc}
  404944:	6823      	ldr	r3, [r4, #0]
  404946:	2b00      	cmp	r3, #0
  404948:	d0fb      	beq.n	404942 <_read_r+0x1a>
  40494a:	6033      	str	r3, [r6, #0]
  40494c:	bd70      	pop	{r4, r5, r6, pc}
  40494e:	bf00      	nop
  404950:	20400d10 	.word	0x20400d10

00404954 <__aeabi_uldivmod>:
  404954:	b953      	cbnz	r3, 40496c <__aeabi_uldivmod+0x18>
  404956:	b94a      	cbnz	r2, 40496c <__aeabi_uldivmod+0x18>
  404958:	2900      	cmp	r1, #0
  40495a:	bf08      	it	eq
  40495c:	2800      	cmpeq	r0, #0
  40495e:	bf1c      	itt	ne
  404960:	f04f 31ff 	movne.w	r1, #4294967295
  404964:	f04f 30ff 	movne.w	r0, #4294967295
  404968:	f000 b97e 	b.w	404c68 <__aeabi_idiv0>
  40496c:	f1ad 0c08 	sub.w	ip, sp, #8
  404970:	e96d ce04 	strd	ip, lr, [sp, #-16]!
  404974:	f000 f806 	bl	404984 <__udivmoddi4>
  404978:	f8dd e004 	ldr.w	lr, [sp, #4]
  40497c:	e9dd 2302 	ldrd	r2, r3, [sp, #8]
  404980:	b004      	add	sp, #16
  404982:	4770      	bx	lr

00404984 <__udivmoddi4>:
  404984:	e92d 47f0 	stmdb	sp!, {r4, r5, r6, r7, r8, r9, sl, lr}
  404988:	468c      	mov	ip, r1
  40498a:	460e      	mov	r6, r1
  40498c:	4604      	mov	r4, r0
  40498e:	9d08      	ldr	r5, [sp, #32]
  404990:	2b00      	cmp	r3, #0
  404992:	d150      	bne.n	404a36 <__udivmoddi4+0xb2>
  404994:	428a      	cmp	r2, r1
  404996:	4617      	mov	r7, r2
  404998:	d96c      	bls.n	404a74 <__udivmoddi4+0xf0>
  40499a:	fab2 fe82 	clz	lr, r2
  40499e:	f1be 0f00 	cmp.w	lr, #0
  4049a2:	d00b      	beq.n	4049bc <__udivmoddi4+0x38>
  4049a4:	f1ce 0420 	rsb	r4, lr, #32
  4049a8:	fa20 f404 	lsr.w	r4, r0, r4
  4049ac:	fa01 f60e 	lsl.w	r6, r1, lr
  4049b0:	ea44 0c06 	orr.w	ip, r4, r6
  4049b4:	fa02 f70e 	lsl.w	r7, r2, lr
  4049b8:	fa00 f40e 	lsl.w	r4, r0, lr
  4049bc:	ea4f 4917 	mov.w	r9, r7, lsr #16
  4049c0:	0c22      	lsrs	r2, r4, #16
  4049c2:	fbbc f0f9 	udiv	r0, ip, r9
  4049c6:	fa1f f887 	uxth.w	r8, r7
  4049ca:	fb09 c610 	mls	r6, r9, r0, ip
  4049ce:	ea42 4606 	orr.w	r6, r2, r6, lsl #16
  4049d2:	fb00 f308 	mul.w	r3, r0, r8
  4049d6:	42b3      	cmp	r3, r6
  4049d8:	d909      	bls.n	4049ee <__udivmoddi4+0x6a>
  4049da:	19f6      	adds	r6, r6, r7
  4049dc:	f100 32ff 	add.w	r2, r0, #4294967295
  4049e0:	f080 8122 	bcs.w	404c28 <__udivmoddi4+0x2a4>
  4049e4:	42b3      	cmp	r3, r6
  4049e6:	f240 811f 	bls.w	404c28 <__udivmoddi4+0x2a4>
  4049ea:	3802      	subs	r0, #2
  4049ec:	443e      	add	r6, r7
  4049ee:	1af6      	subs	r6, r6, r3
  4049f0:	b2a2      	uxth	r2, r4
  4049f2:	fbb6 f3f9 	udiv	r3, r6, r9
  4049f6:	fb09 6613 	mls	r6, r9, r3, r6
  4049fa:	ea42 4406 	orr.w	r4, r2, r6, lsl #16
  4049fe:	fb03 f808 	mul.w	r8, r3, r8
  404a02:	45a0      	cmp	r8, r4
  404a04:	d909      	bls.n	404a1a <__udivmoddi4+0x96>
  404a06:	19e4      	adds	r4, r4, r7
  404a08:	f103 32ff 	add.w	r2, r3, #4294967295
  404a0c:	f080 810a 	bcs.w	404c24 <__udivmoddi4+0x2a0>
  404a10:	45a0      	cmp	r8, r4
  404a12:	f240 8107 	bls.w	404c24 <__udivmoddi4+0x2a0>
  404a16:	3b02      	subs	r3, #2
  404a18:	443c      	add	r4, r7
  404a1a:	ebc8 0404 	rsb	r4, r8, r4
  404a1e:	ea43 4000 	orr.w	r0, r3, r0, lsl #16
  404a22:	2100      	movs	r1, #0
  404a24:	2d00      	cmp	r5, #0
  404a26:	d062      	beq.n	404aee <__udivmoddi4+0x16a>
  404a28:	fa24 f40e 	lsr.w	r4, r4, lr
  404a2c:	2300      	movs	r3, #0
  404a2e:	602c      	str	r4, [r5, #0]
  404a30:	606b      	str	r3, [r5, #4]
  404a32:	e8bd 87f0 	ldmia.w	sp!, {r4, r5, r6, r7, r8, r9, sl, pc}
  404a36:	428b      	cmp	r3, r1
  404a38:	d907      	bls.n	404a4a <__udivmoddi4+0xc6>
  404a3a:	2d00      	cmp	r5, #0
  404a3c:	d055      	beq.n	404aea <__udivmoddi4+0x166>
  404a3e:	2100      	movs	r1, #0
  404a40:	e885 0041 	stmia.w	r5, {r0, r6}
  404a44:	4608      	mov	r0, r1
  404a46:	e8bd 87f0 	ldmia.w	sp!, {r4, r5, r6, r7, r8, r9, sl, pc}
  404a4a:	fab3 f183 	clz	r1, r3
  404a4e:	2900      	cmp	r1, #0
  404a50:	f040 8090 	bne.w	404b74 <__udivmoddi4+0x1f0>
  404a54:	42b3      	cmp	r3, r6
  404a56:	d302      	bcc.n	404a5e <__udivmoddi4+0xda>
  404a58:	4282      	cmp	r2, r0
  404a5a:	f200 80f8 	bhi.w	404c4e <__udivmoddi4+0x2ca>
  404a5e:	1a84      	subs	r4, r0, r2
  404a60:	eb66 0603 	sbc.w	r6, r6, r3
  404a64:	2001      	movs	r0, #1
  404a66:	46b4      	mov	ip, r6
  404a68:	2d00      	cmp	r5, #0
  404a6a:	d040      	beq.n	404aee <__udivmoddi4+0x16a>
  404a6c:	e885 1010 	stmia.w	r5, {r4, ip}
  404a70:	e8bd 87f0 	ldmia.w	sp!, {r4, r5, r6, r7, r8, r9, sl, pc}
  404a74:	b912      	cbnz	r2, 404a7c <__udivmoddi4+0xf8>
  404a76:	2701      	movs	r7, #1
  404a78:	fbb7 f7f2 	udiv	r7, r7, r2
  404a7c:	fab7 fe87 	clz	lr, r7
  404a80:	f1be 0f00 	cmp.w	lr, #0
  404a84:	d135      	bne.n	404af2 <__udivmoddi4+0x16e>
  404a86:	1bf3      	subs	r3, r6, r7
  404a88:	ea4f 4817 	mov.w	r8, r7, lsr #16
  404a8c:	fa1f fc87 	uxth.w	ip, r7
  404a90:	2101      	movs	r1, #1
  404a92:	fbb3 f0f8 	udiv	r0, r3, r8
  404a96:	0c22      	lsrs	r2, r4, #16
  404a98:	fb08 3610 	mls	r6, r8, r0, r3
  404a9c:	ea42 4606 	orr.w	r6, r2, r6, lsl #16
  404aa0:	fb0c f300 	mul.w	r3, ip, r0
  404aa4:	42b3      	cmp	r3, r6
  404aa6:	d907      	bls.n	404ab8 <__udivmoddi4+0x134>
  404aa8:	19f6      	adds	r6, r6, r7
  404aaa:	f100 32ff 	add.w	r2, r0, #4294967295
  404aae:	d202      	bcs.n	404ab6 <__udivmoddi4+0x132>
  404ab0:	42b3      	cmp	r3, r6
  404ab2:	f200 80ce 	bhi.w	404c52 <__udivmoddi4+0x2ce>
  404ab6:	4610      	mov	r0, r2
  404ab8:	1af6      	subs	r6, r6, r3
  404aba:	b2a2      	uxth	r2, r4
  404abc:	fbb6 f3f8 	udiv	r3, r6, r8
  404ac0:	fb08 6613 	mls	r6, r8, r3, r6
  404ac4:	ea42 4406 	orr.w	r4, r2, r6, lsl #16
  404ac8:	fb0c fc03 	mul.w	ip, ip, r3
  404acc:	45a4      	cmp	ip, r4
  404ace:	d907      	bls.n	404ae0 <__udivmoddi4+0x15c>
  404ad0:	19e4      	adds	r4, r4, r7
  404ad2:	f103 32ff 	add.w	r2, r3, #4294967295
  404ad6:	d202      	bcs.n	404ade <__udivmoddi4+0x15a>
  404ad8:	45a4      	cmp	ip, r4
  404ada:	f200 80b5 	bhi.w	404c48 <__udivmoddi4+0x2c4>
  404ade:	4613      	mov	r3, r2
  404ae0:	ebcc 0404 	rsb	r4, ip, r4
  404ae4:	ea43 4000 	orr.w	r0, r3, r0, lsl #16
  404ae8:	e79c      	b.n	404a24 <__udivmoddi4+0xa0>
  404aea:	4629      	mov	r1, r5
  404aec:	4628      	mov	r0, r5
  404aee:	e8bd 87f0 	ldmia.w	sp!, {r4, r5, r6, r7, r8, r9, sl, pc}
  404af2:	f1ce 0120 	rsb	r1, lr, #32
  404af6:	fa06 f30e 	lsl.w	r3, r6, lr
  404afa:	fa07 f70e 	lsl.w	r7, r7, lr
  404afe:	fa20 f901 	lsr.w	r9, r0, r1
  404b02:	ea4f 4817 	mov.w	r8, r7, lsr #16
  404b06:	40ce      	lsrs	r6, r1
  404b08:	ea49 0903 	orr.w	r9, r9, r3
  404b0c:	fbb6 faf8 	udiv	sl, r6, r8
  404b10:	ea4f 4419 	mov.w	r4, r9, lsr #16
  404b14:	fb08 661a 	mls	r6, r8, sl, r6
  404b18:	fa1f fc87 	uxth.w	ip, r7
  404b1c:	ea44 4306 	orr.w	r3, r4, r6, lsl #16
  404b20:	fb0a f20c 	mul.w	r2, sl, ip
  404b24:	429a      	cmp	r2, r3
  404b26:	fa00 f40e 	lsl.w	r4, r0, lr
  404b2a:	d90a      	bls.n	404b42 <__udivmoddi4+0x1be>
  404b2c:	19db      	adds	r3, r3, r7
  404b2e:	f10a 31ff 	add.w	r1, sl, #4294967295
  404b32:	f080 8087 	bcs.w	404c44 <__udivmoddi4+0x2c0>
  404b36:	429a      	cmp	r2, r3
  404b38:	f240 8084 	bls.w	404c44 <__udivmoddi4+0x2c0>
  404b3c:	f1aa 0a02 	sub.w	sl, sl, #2
  404b40:	443b      	add	r3, r7
  404b42:	1a9b      	subs	r3, r3, r2
  404b44:	fa1f f989 	uxth.w	r9, r9
  404b48:	fbb3 f1f8 	udiv	r1, r3, r8
  404b4c:	fb08 3311 	mls	r3, r8, r1, r3
  404b50:	ea49 4303 	orr.w	r3, r9, r3, lsl #16
  404b54:	fb01 f60c 	mul.w	r6, r1, ip
  404b58:	429e      	cmp	r6, r3
  404b5a:	d907      	bls.n	404b6c <__udivmoddi4+0x1e8>
  404b5c:	19db      	adds	r3, r3, r7
  404b5e:	f101 32ff 	add.w	r2, r1, #4294967295
  404b62:	d26b      	bcs.n	404c3c <__udivmoddi4+0x2b8>
  404b64:	429e      	cmp	r6, r3
  404b66:	d969      	bls.n	404c3c <__udivmoddi4+0x2b8>
  404b68:	3902      	subs	r1, #2
  404b6a:	443b      	add	r3, r7
  404b6c:	1b9b      	subs	r3, r3, r6
  404b6e:	ea41 410a 	orr.w	r1, r1, sl, lsl #16
  404b72:	e78e      	b.n	404a92 <__udivmoddi4+0x10e>
  404b74:	f1c1 0e20 	rsb	lr, r1, #32
  404b78:	fa22 f40e 	lsr.w	r4, r2, lr
  404b7c:	408b      	lsls	r3, r1
  404b7e:	4323      	orrs	r3, r4
  404b80:	fa20 f70e 	lsr.w	r7, r0, lr
  404b84:	fa06 f401 	lsl.w	r4, r6, r1
  404b88:	ea4f 4c13 	mov.w	ip, r3, lsr #16
  404b8c:	fa26 f60e 	lsr.w	r6, r6, lr
  404b90:	433c      	orrs	r4, r7
  404b92:	fbb6 f9fc 	udiv	r9, r6, ip
  404b96:	0c27      	lsrs	r7, r4, #16
  404b98:	fb0c 6619 	mls	r6, ip, r9, r6
  404b9c:	fa1f f883 	uxth.w	r8, r3
  404ba0:	ea47 4606 	orr.w	r6, r7, r6, lsl #16
  404ba4:	fb09 f708 	mul.w	r7, r9, r8
  404ba8:	42b7      	cmp	r7, r6
  404baa:	fa02 f201 	lsl.w	r2, r2, r1
  404bae:	fa00 fa01 	lsl.w	sl, r0, r1
  404bb2:	d908      	bls.n	404bc6 <__udivmoddi4+0x242>
  404bb4:	18f6      	adds	r6, r6, r3
  404bb6:	f109 30ff 	add.w	r0, r9, #4294967295
  404bba:	d241      	bcs.n	404c40 <__udivmoddi4+0x2bc>
  404bbc:	42b7      	cmp	r7, r6
  404bbe:	d93f      	bls.n	404c40 <__udivmoddi4+0x2bc>
  404bc0:	f1a9 0902 	sub.w	r9, r9, #2
  404bc4:	441e      	add	r6, r3
  404bc6:	1bf6      	subs	r6, r6, r7
  404bc8:	b2a0      	uxth	r0, r4
  404bca:	fbb6 f4fc 	udiv	r4, r6, ip
  404bce:	fb0c 6614 	mls	r6, ip, r4, r6
  404bd2:	ea40 4706 	orr.w	r7, r0, r6, lsl #16
  404bd6:	fb04 f808 	mul.w	r8, r4, r8
  404bda:	45b8      	cmp	r8, r7
  404bdc:	d907      	bls.n	404bee <__udivmoddi4+0x26a>
  404bde:	18ff      	adds	r7, r7, r3
  404be0:	f104 30ff 	add.w	r0, r4, #4294967295
  404be4:	d228      	bcs.n	404c38 <__udivmoddi4+0x2b4>
  404be6:	45b8      	cmp	r8, r7
  404be8:	d926      	bls.n	404c38 <__udivmoddi4+0x2b4>
  404bea:	3c02      	subs	r4, #2
  404bec:	441f      	add	r7, r3
  404bee:	ea44 4009 	orr.w	r0, r4, r9, lsl #16
  404bf2:	ebc8 0707 	rsb	r7, r8, r7
  404bf6:	fba0 8902 	umull	r8, r9, r0, r2
  404bfa:	454f      	cmp	r7, r9
  404bfc:	4644      	mov	r4, r8
  404bfe:	464e      	mov	r6, r9
  404c00:	d314      	bcc.n	404c2c <__udivmoddi4+0x2a8>
  404c02:	d029      	beq.n	404c58 <__udivmoddi4+0x2d4>
  404c04:	b365      	cbz	r5, 404c60 <__udivmoddi4+0x2dc>
  404c06:	ebba 0304 	subs.w	r3, sl, r4
  404c0a:	eb67 0706 	sbc.w	r7, r7, r6
  404c0e:	fa07 fe0e 	lsl.w	lr, r7, lr
  404c12:	40cb      	lsrs	r3, r1
  404c14:	40cf      	lsrs	r7, r1
  404c16:	ea4e 0303 	orr.w	r3, lr, r3
  404c1a:	e885 0088 	stmia.w	r5, {r3, r7}
  404c1e:	2100      	movs	r1, #0
  404c20:	e8bd 87f0 	ldmia.w	sp!, {r4, r5, r6, r7, r8, r9, sl, pc}
  404c24:	4613      	mov	r3, r2
  404c26:	e6f8      	b.n	404a1a <__udivmoddi4+0x96>
  404c28:	4610      	mov	r0, r2
  404c2a:	e6e0      	b.n	4049ee <__udivmoddi4+0x6a>
  404c2c:	ebb8 0402 	subs.w	r4, r8, r2
  404c30:	eb69 0603 	sbc.w	r6, r9, r3
  404c34:	3801      	subs	r0, #1
  404c36:	e7e5      	b.n	404c04 <__udivmoddi4+0x280>
  404c38:	4604      	mov	r4, r0
  404c3a:	e7d8      	b.n	404bee <__udivmoddi4+0x26a>
  404c3c:	4611      	mov	r1, r2
  404c3e:	e795      	b.n	404b6c <__udivmoddi4+0x1e8>
  404c40:	4681      	mov	r9, r0
  404c42:	e7c0      	b.n	404bc6 <__udivmoddi4+0x242>
  404c44:	468a      	mov	sl, r1
  404c46:	e77c      	b.n	404b42 <__udivmoddi4+0x1be>
  404c48:	3b02      	subs	r3, #2
  404c4a:	443c      	add	r4, r7
  404c4c:	e748      	b.n	404ae0 <__udivmoddi4+0x15c>
  404c4e:	4608      	mov	r0, r1
  404c50:	e70a      	b.n	404a68 <__udivmoddi4+0xe4>
  404c52:	3802      	subs	r0, #2
  404c54:	443e      	add	r6, r7
  404c56:	e72f      	b.n	404ab8 <__udivmoddi4+0x134>
  404c58:	45c2      	cmp	sl, r8
  404c5a:	d3e7      	bcc.n	404c2c <__udivmoddi4+0x2a8>
  404c5c:	463e      	mov	r6, r7
  404c5e:	e7d1      	b.n	404c04 <__udivmoddi4+0x280>
  404c60:	4629      	mov	r1, r5
  404c62:	e8bd 87f0 	ldmia.w	sp!, {r4, r5, r6, r7, r8, r9, sl, pc}
  404c66:	bf00      	nop

00404c68 <__aeabi_idiv0>:
  404c68:	4770      	bx	lr
  404c6a:	bf00      	nop

00404c6c <p_uc_charset10x14>:
	...
  404c88:	ccff ccff 0000 0000 0000 0000 0000 0000     ................
  404c98:	00f0 00f0 0000 0000 00f0 00f0 0000 0000     ................
  404ca8:	c00c c00c fcff fcff c00c c00c fcff fcff     ................
  404cb8:	c00c c00c 600c 701e 303f 3033 fcff fcff     .....`.p?030....
  404cc8:	3033 f033 e039 c018 0060 0cf0 3cf0 f060     303.9...`....<`.
  404cd8:	c003 000f 183c 3cf0 3cc0 1800 f03c f87f     ....<..<.<..<...
  404ce8:	1cc3 8cc7 cccf ecdc 7878 3030 fc00 cc00     ........xx00....
  404cf8:	0000 0000 0000 0044 00ec 00f8 0070 0000     ......D.....p...
	...
  404d10:	c00f f03f 7878 1860 0cc0 0cc0 0000 0000     ..?.xx`.........
  404d20:	0000 0000 0cc0 0cc0 1860 7878 f03f c00f     ........`.xx?...
  404d30:	0000 0000 600c e00e c007 8003 f83f f83f     .....`......?.?.
  404d40:	8003 c007 e00e 600c 0003 0003 0003 0003     .......`........
  404d50:	f03f f03f 0003 0003 0003 0003 4400 ec00     ?.?..........D..
  404d60:	f800 7000 0000 0000 0000 0000 0000 0000     ...p............
  404d70:	0003 0003 0003 0003 0003 0003 0003 0003     ................
  404d80:	0003 0003 1800 3c00 3c00 1800 0000 0000     .......<.<......
	...
  404d98:	0000 0c00 3c00 f000 c003 000f 003c 00f0     .....<......<...
  404da8:	00c0 0000 f03f f87f fce0 ccc1 8cc3 0cc7     ....?...........
  404db8:	0cce 1cfc f87f f03f 0000 0000 0c30 0c70     ......?.....0.p.
  404dc8:	fcff fcff 0c00 0c00 0000 0000 0c30 1c70     ............0.p.
  404dd8:	3ce0 7cc0 ecc0 ccc1 8cc3 0ce7 0c7e 0c3c     .<.|........~.<.
  404de8:	3030 3870 1ce0 0cc0 0cc0 0cc3 0cc3 1ce3     00p8............
  404df8:	f87f f03c c003 c007 c00e c01c c038 c070     ..<.........8.p.
  404e08:	fcff fcff c000 c000 30fc 38fc 1ccc 0ccc     .........0.8....
  404e18:	0ccc 0ccc 0ccc 1cce f8c7 f0c3 f03f f87f     ............?...
  404e28:	1ce3 0cc3 0cc3 0cc3 0cc3 9ce3 f871 f030     ............q.0.
  404e38:	00c0 00c0 00c0 00c0 fcc3 fcc7 00ce 00dc     ................
  404e48:	00f8 00f0 f03c f87f 9ce7 0cc3 0cc3 0cc3     ....<...........
  404e58:	0cc3 9ce7 f87f f03c 003c 007e 0ce7 0cc3     ......<.<.~.....
  404e68:	1cc3 38c3 70c3 e0e7 c07f 803f 0000 0000     ...8.p....?.....
  404e78:	0000 6018 f03c f03c 6018 0000 0000 0000     ...`<.<..`......
  404e88:	0000 0000 0000 4418 ec3c f83c 7018 0000     .......D<.<..p..
  404e98:	0000 0000 0000 0003 8007 c00f e01c 7038     ..............8p
  404ea8:	3870 1ce0 0cc0 0000 c00c c00c c00c c00c     p8..............
  404eb8:	c00c c00c c00c c00c c00c c00c 0000 0cc0     ................
  404ec8:	1ce0 3870 7038 e01c c00f 8007 0003 0000     ..p88p..........
  404ed8:	0030 0070 00e0 00c0 ecc1 ecc3 00c3 00e6     0.p.............
  404ee8:	007e 003c f030 f871 9ce3 0cc3 fcc3 fcc3     ~.<.0.q.........
  404ef8:	0cc0 1ce0 f87f f03f fc3f fc7f c0e0 c0c0     ......?.?.......
  404f08:	c0c0 c0c0 c0c0 c0e0 fc7f fc3f fcff fcff     ..........?.....
  404f18:	0cc3 0cc3 0cc3 0cc3 0cc3 9ce7 f87f f03c     ..............<.
  404f28:	f03f f87f 1ce0 0cc0 0cc0 0cc0 0cc0 1ce0     ?...............
  404f38:	3870 3030 fcff fcff 0cc0 0cc0 0cc0 0cc0     p800............
  404f48:	0cc0 1ce0 f87f f03f fcff fcff 0cc3 0cc3     ......?.........
  404f58:	0cc3 0cc3 0cc3 0cc3 0cc0 0cc0 fcff fcff     ................
  404f68:	00c3 00c3 00c3 00c3 00c3 00c3 00c0 00c0     ................
  404f78:	f03f f87f 1ce0 0cc0 0cc0 0cc3 0cc3 1ce3     ?...............
  404f88:	f873 f033 fcff fcff 0003 0003 0003 0003     s.3.............
  404f98:	0003 0003 fcff fcff 0000 0000 0cc0 0cc0     ................
  404fa8:	fcff fcff 0cc0 0cc0 0000 0000 3000 3800     .............0.8
  404fb8:	1cc0 0cc0 0cc0 1cc0 f8ff f0ff 00c0 00c0     ................
  404fc8:	fcff fcff 8007 8007 c00f e01c 7038 3870     ............8pp8
  404fd8:	1ce0 0cc0 fcff fcff 0c00 0c00 0c00 0c00     ................
  404fe8:	0c00 0c00 0c00 0c00 fcff fcff 0070 0038     ............p.8.
  404ff8:	001f 001f 0038 0070 fcff fcff fcff fcff     ....8.p.........
  405008:	001c 000e 0007 8003 c001 e000 fcff fcff     ................
  405018:	f03f f87f 1ce0 0cc0 0cc0 0cc0 0cc0 1ce0     ?...............
  405028:	f87f f03f fcff fcff 00c3 00c3 00c3 00c3     ..?.............
  405038:	00c3 00e7 007e 003c f03f f87f 1ce0 0cc0     ....~.<.?.......
  405048:	ccc0 ecc0 7cc0 38e0 fc7f ec3f fcff fcff     .....|.8..?.....
  405058:	00c3 80c3 80c3 c0c3 c0c3 70e7 3c7e 1c3c     ...........p~<<.
  405068:	183c 1c7e 0ce7 0cc3 0cc3 0cc3 0cc3 9cc3     <.~.............
  405078:	f8e1 f060 00c0 00c0 00c0 00c0 fcff fcff     ..`.............
  405088:	00c0 00c0 00c0 00c0 f0ff f8ff 1c00 0c00     ................
  405098:	0c00 0c00 0c00 1c00 f8ff f0ff c0ff e0ff     ................
  4050a8:	7000 3800 1c00 1c00 3800 7000 e0ff c0ff     .p.8.....8.p....
  4050b8:	f0ff f8ff 1c00 3c00 f800 f800 3c00 1c00     .......<.....<..
  4050c8:	f8ff f0ff 3cf0 7cf8 e01c c00f 8007 8007     .....<.|........
  4050d8:	c00f e01c 7cf8 3cf0 00fc 00fe 0007 8003     .....|.<........
  4050e8:	fc01 fc01 8003 0007 00fe 00fc 3cc0 7cc0     .............<.|
  4050f8:	ecc0 ccc1 8cc3 0cc7 0cce 0cdc 0cf8 0cf0     ................
  405108:	0000 0000 fcff fcff 0cc0 0cc0 0cc0 0000     ................
  405118:	0000 0000 0030 0030 000c 000c 0003 0003     ....0.0.........
  405128:	c000 c000 3000 3000 0000 0000 0cc0 0cc0     .....0.0........
  405138:	0cc0 fcff fcff 0000 0000 0000 000c 001c     ................
  405148:	0038 0070 00e0 00e0 0070 0038 001c 000c     8.p.....p.8.....
  405158:	0c00 0c00 0c00 0c00 0c00 0c00 0c00 0c00     ................
  405168:	0c00 0c00 0000 0000 00c0 00e0 0070 0038     ............p.8.
  405178:	0018 0000 0000 0000 3000 7806 fc0e cc0c     .........0.x....
  405188:	cc0c cc0c cc0c cc0e fc07 f803 fcff fcff     ................
  405198:	0c03 0c03 0c03 0c03 0c03 9c03 f801 f000     ................
  4051a8:	f003 f807 1c0e 0c0c 0c0c 0c0c 0c0c 1c0e     ................
  4051b8:	3807 3003 f000 f801 9c03 0c03 0c03 0c03     .8.0............
  4051c8:	0c03 0c03 fcff fcff f003 f807 dc0e cc0c     ................
  4051d8:	cc0c cc0c cc0c dc0e d807 9003 0000 0003     ................
  4051e8:	fc3f fc7f 00e3 00e3 0070 0030 0000 0000     ?.......p.0.....
  4051f8:	1803 9c07 cc0f cc0c cc0c cc0c cc0c dc0c     ................
  405208:	f80f f007 fcff fcff 0003 0003 0003 0003     ................
  405218:	8003 fc01 fc00 0000 0000 0000 0000 0000     ................
  405228:	fc1b fc1b 0000 0000 0000 0000 0000 3000     ...............0
  405238:	3800 1c00 0c00 0c00 1c00 f8cf f0cf 0000     .8..............
  405248:	0000 fcff fcff e000 e001 f003 3807 1c0e     .............8..
  405258:	0c0c 0000 0000 0000 0cc0 0cc0 fcff fcff     ................
  405268:	0c00 0c00 0000 0000 fc0f fc0f 000e 0007     ................
  405278:	c003 c003 0007 000e fc0f fc0f fc0f fc0f     ................
  405288:	0003 0007 000e 000c 000c 000e fc07 fc03     ................
  405298:	f003 f807 1c0e 0c0c 0c0c 0c0c 0c0c 1c0e     ................
  4052a8:	f807 f003 fc0f fc0f c00c c00c c00c c00c     ................
  4052b8:	c00c c00f 8007 0003 0003 8007 c00f c00c     ................
  4052c8:	c00c c00c c00c c00c fc0f fc0f fc0f fc0f     ................
  4052d8:	8003 0007 000e 000c 000c 000e 0007 0003     ................
  4052e8:	1803 9c07 cc0f cc0c cc0c cc0c cc0c fc0c     ................
  4052f8:	780e 3006 0000 000c 000c f0ff f8ff 1c0c     .x.0............
  405308:	1c0c 380c 300c 0000 f00f f80f 1c00 0c00     ...8.0..........
  405318:	0c00 0c00 0c00 1c00 f80f f00f c00f e00f     ................
  405328:	7000 3800 1c00 1c00 3800 7000 e00f c00f     .p.8.....8.p....
  405338:	f00f f80f 1c00 1c00 f800 f800 1c00 1c00     ................
  405348:	f80f f00f 0c0c 1c0e 3807 f003 e001 e001     .........8......
  405358:	f003 3807 1c0e 0c0c 000c 000e 0c07 9c03     ...8............
  405368:	f801 f001 8003 0007 000e 000c 0c0c 1c0c     ................
  405378:	3c0c 7c0c ec0c cc0d 8c0f 0c0f 0c0e 0c0c     .<.|............
  405388:	0000 0003 8007 f03f f87c 1ce0 0cc0 0cc0     ......?.|.......
  405398:	0cc0 0000 0c03 0c03 fc3f fc7f 0ce3 0cc3     ........?.......
  4053a8:	0cc0 0ce0 0c70 0c30 0000 0cc0 0cc0 0cc0     ....p.0.........
  4053b8:	1ce0 f87c f03f 8007 0003 0000 00c0 00c0     ..|.?...........
  4053c8:	00c0 00c0 00c0 00c0 00c0 00c0 00c0 00c0     ................
  4053d8:	fcff fcff fcff fcff fcff fcff fcff fcff     ................
  4053e8:	fcff fcff 2d2d 5320 4d41 3745 2030 434c     ....-- SAME70 LC
  4053f8:	2044 4544 4f4d 2d20 0d2d 2d0a 202d 4153     D DEMO --..-- SA
  405408:	454d 3037 582d 4c50 2044 2d2d 0a0d 2d2d     ME70-XPLD --..--
  405418:	4320 6d6f 6970 656c 3a64 4d20 7961 3120      Compiled: May 1
  405428:	2030 3032 3731 3120 3a34 3133 353a 2032     0 2017 14:31:52 
  405438:	2d2d 0a0d 0000 0000 4e49 4554 4c4c 4749     --......INTELLIG
  405448:	4e45 2054 5242 4145 4854 4c41 5a59 5245     ENT BREATHALYZER
  405458:	0000 0000                                   ....

0040545c <logoImage>:
  40545c:	d8ff e0ff 1000 464a 4649 0100 0001 0100     ......JFIF......
  40546c:	0100 0000 dbff 8400 0500 0403 0202 0202     ................
  40547c:	0202 0202 0202 0706 0802 0707 0707 0206     ................
  40548c:	0902 0602 0605 0606 0506 0705 100a 070b     ................
  40549c:	0e08 0509 0d05 0c15 110e 1311 1313 0b07     ................
  4054ac:	1816 1216 1018 1312 0112 0505 0705 0706     ................
  4054bc:	080f 0f08 151f 1512 1d1f 1c1f 1d1c 1e1f     ................
  4054cc:	1818 1c1f 1e1c 1a17 171c 1c1c 1c1d 1f17     ................
  4054dc:	171c 141c 171c 151c 1c1c 1c1c 1c14 141c     ................
  4054ec:	1414 1414 1414 1414 1414 c0ff 1100 0308     ................
  4054fc:	0684 0340 2201 0200 0111 1103 ff01 00c4     ..@.."..........
  40550c:	001c 0001 0202 0103 0000 0000 0000 0000     ................
  40551c:	0000 0700 0108 0402 0605 ff03 00c4 1061     ..............a.
  40552c:	0001 0201 0203 0e04 060d 060b 0703 0005     ................
  40553c:	0100 0302 0504 0706 1211 3121 0891 1413     ..........!1....
  40554c:	1716 4137 5351 7456 9493 36b4 5755 7161     ..7AQSVt...6UWaq
  40555c:	7372 b181 d1b3 d3d2 2215 5433 d492 3432     rs......."3T..24
  40556c:	4338 8375 a184 b5b2 18c2 4223 6252 24c1     8Cu.......#BRb.$
  40557c:	6335 4427 a464 e1c4 25f0 4526 6547 c4ff     5c'Dd....%&EGe..
  40558c:	1c00 0101 0200 0103 0101 0000 0000 0000     ................
  40559c:	0000 0000 0706 0401 0805 0203 c4ff 3e00     ...............>
  4055ac:	0111 0100 0302 0802 060c 0202 0103 0000     ................
  4055bc:	0000 0201 0403 1105 3106 2112 5135 7271     .........1.!5Qqr
  4055cc:	b191 1307 1614 5241 6153 a181 d1c1 3217     ......ARSa.....2
  4055dc:	3433 e1a2 2215 6224 2523 4243 daff 0c00     34..."$b#%CB....
  4055ec:	0103 0200 0311 0011 003f 40a6 0000 0000     ........?..@....
	...
  406410:	c701 00de 8f03 00bc 0000 7100 80f7 0000     ...........q....
  406420:	fb38 00c0 0000 0000 0000 0000 0000 0000     8...............
  406430:	0000 0000 7d1c 00e0 0000 0000 0000 603e     .....}........>`
  406440:	0000 633e 00e6 0000 0000 0000 0000 0000     ..>c............
	...
  406468:	0000 fb38 00c0 0700 00cc 0700 781f efe3     ..8..........x..
  406478:	0048 0000 0000 0000 0000 0000 0000 0000     H...............
	...
  406490:	0000 c07c 0000 0000 0000 0000 0000 0000     ..|.............
  4064a0:	cc07 c07c 0000 7d1c 00e0 0000 0000 0000     ..|....}........
	...
  4064c0:	1900 38a2 2857 bfa7 fd34 362c fab7 5f5b     ...8W(..4.,6..[_
  4064d0:	1f0d 4a48 e9c5 8bad 9b6c e851 1f9d 669f     ..HJ....l.Q....f
  4064e0:	9e39 a7b6 c430 32e1 d71b 1738 f6b0 75ec     9...0..2..8....u
  4064f0:	fc65 173d 8a6b ab22 3113 e74f edce 3ff3     e.=.k."..1O....?
  406500:	bb0c c10e 193b ffdd 9900 bfeb 853f d9fd     ....;.......?...
  406510:	b4ee 162f 76cb fd6b a31b 4abd b9cb f853     ../..vk....J..S.
  406520:	a0bd 68cc 5dbf dc34 229d bd67 6342 a7f6     ...h.]4.."g.Bc..
  406530:	b736 b98a 1745 48a7 ef99 9d45 7682 ba33     6...E..H..E..v3.
  406540:	f263 bb9e f8f3 fe5d f0ac 6a7b bed9 d883     c.....]...{j....
  406550:	8eee f3c8 2bdd d48e 9cb8 dc5d da44 2faa     .....+....].D../
  406560:	b3dc b18a fdd4 ba2a c4f7 b55b f04c d3b7     ......*...[.L...
  406570:	d51d 448f 147d bf71 7a66 2366 d8f5 6bf5     ...D}.q.fzf#...k
  406580:	ecad 3b8b 62c7 f631 dced 33b9 3c13 f071     ...;.b1....3.<q.
  406590:	b674 686b 2cf3 6756 cd6a b3eb cc34 c7f1     t.kh.,Vgj...4...
  4065a0:	55c2 05ac baa4 3b40 0fb0 b34f 933c da29     .U....@;..O.<.).
  4065b0:	d326 c6b4 cf90 e32e e56c 8a58 51b1 da5c     &.......l.X..Q\.
  4065c0:	6c9a 78e3 5914 5cb9 2a70 99ae e388 39a6     .l.x.Y.\p*.....9
  4065d0:	5362 60b7 8c8d 4fc4 00ff eba9 fec9 0bbf     bS.`...O........
  4065e0:	b2fb d81c 1e67 36df 317f 33e1 563f b6ba     ....g..6.1.3?V..
  4065f0:	ffca 6b00 5c33 0f5e 4513 2b16 629a 5f63     ...k3\^..E.+.bc_
  406600:	aa9c b9ed f1ce 7ed9 8b36 6b78 4c93 3a4d     .......~6.xk.LM:
  406610:	efe9 51d6 6067 8c9d 657b bcae 17fe 73f7     ...Qg`..{e.....s
  406620:	4eb0 3dc6 d7b2 7f5e fb0b 53b2 5f11 3339     .N.=..^....S._93
  406630:	6b2f 4f28 b99d b6c7 929f ed9f 4e67 9be4     /k(O........gN..
  406640:	da2c 7586 f4a3 23f6 c431 3665 caa8 a62a     ,..u...#1.e6..*.
  406650:	556f fc45 0a67 8aed 552e 9ac2 8829 aae5     oUE.g....U..)...
  406660:	8f7b c523 f3c5 6ea4 a888 769a a8f5 98ea     {.#....n...v....
  406670:	4cdf d3da dd7f b483 a38e d374 513c e6dc     .L........t.<Q..
  406680:	b95b da65 61af dc2d 75ae a699 7b26 b617     [.e..a-..u..&{..
  406690:	7a4d f8bb 370b 4e6e 4db5 3331 f33c 41a3     Mz...7nN.M13<..A
  4066a0:	999f eb86 00a2 0000 0000 0700 00cc 0000     ................
  4066b0:	6e03 12f7 d869 ccf6 7536 adb5 559e 35ab     .n..i...6u...U.5
  4066c0:	3b2e e153 1ef3 c7a9 ddda e566 2e8c a90f     .;S.......f.....
  4066d0:	b7e8 a86a d79d 552d 2d3c 6af7 a1ee f86f     ..j...-U<-.j..o.
  4066e0:	f4bd b3a7 ac3d f6e1 a233 d22a e815 ba4b     ....=...3.*...K.
  4066f0:	7a8a 327e 4cef 578c 9ee4 e82a 4fb7 a503     .z~2.L.W..*..O..
  406700:	aacd 3ab9 2e5f ebfe 9d93 8cd3 0dab 0ba6     ...:_...........
  406710:	ebf3 d11c e9c5 e1de 156d 8519 3d78 ff32     ........m...x=2.
  406720:	d400 39d6 8ba3 bfd3 2489 0976 cfd8 5ab6     ...9.....$v....Z
  406730:	7ff2 c3af 7a44 d8b9 6327 9f5c f594 9fe7     ....Dz..'c\.....
  406740:	c4c2 b3fa b7a0 07d1 bf87 dd76 c5ae a817     ..........v.....
  406750:	9a89 7f63 08e5 399e ccfe f29a 4ffc 6ce5     ..c....9.....O.l
  406760:	2aa3 62cd 48cf d6e9 37b0 3b38 6cfa d3d3     .*.b.H...78;.l..
  406770:	a628 dbbd b7f8 e1ee ab72 7efc 3e33 e2cb     (.......r..~3>..
  406780:	1127 d35c edae ddd3 adaa f1cc 4dfb c595     '.\..........M..
  406790:	8a33 69ae 6ee1 a6e3 7477 8c6a 04fb 636c     3..i.n..wtj...lc
  4067a0:	2ddb e775 bff0 9dbb 3682 ed31 ba9e f8f3     .-u......61.....
  4067b0:	dd5f 9892 f9e5 99c9 59fb fc71 ceed b43d     _........Yq...=.
  4067c0:	95fc 6daf 3cbb dbd0 d31b 639a d232 cd98     ...m.<.....c2...
  4067d0:	8845 7abf 3aee fa8a cb7d ca38 553a 4534     E..z.:..}.8.:U4E
  4067e0:	e95b 5ae0 63a6 7b8e d1bb ed36 00ff 1b9b     [..Z.c.{..6.....
  4067f0:	9eea dc68 1db1 3c15 335a 7943 6b4e 34f5     ..h....<Z3CyNk.4
  406800:	bc2b 4671 dff9 c611 b6b3 136f 1577 d397     +.qF......o.w...
  406810:	f472 54eb c7eb 5cf1 255b bf8c ca8c bde8     r..T...\[%......
  406820:	ae7e 5315 c733 96f1 3b80 2889 0000 6e03     ~..S3....;.(...n
  406830:	44ec eec4 fdfe efc9 1b67 d923 bf7e 86d9     .D......g.#.~...
  406840:	d693 de59 573f cd5b 5431 ea62 2dae b1dd     ..Y.?W[.1Tb..-..
  406850:	0367 8cbe cb45 1471 5645 982a b7e2 b31c     g...E.q.EV*.....
  406860:	1228 4437 fec6 ff28 b200 d061 69fb ecc2     (.7D..(...a..i..
  406870:	40d7 bd69 5e11 6ece f5e6 6861 d3c4 63d3     .@i..^.n..ah...c
  406880:	1819 aa08 bd2a ee72 b7f8 2736 fc83 dc3d     ....*.r...6'..=.
  406890:	c8b3 67e2 63d4 b1ea 604c 367f 7bbc 8ba3     ...g.c..L`.6.{..
  4068a0:	e749 e8f7 6d8e bc35 bcce 3135 fe96 787d     I....m5...51..}x
  4068b0:	e2f8 b438 7d9e 3a3d d43d 27ec 3b63 fef7     ..8..}=:=..'c;..
  4068c0:	d753 7f9e 110b c7ea 9d60 ee8d f9dd 5e53     S.......`.....S^
  4068d0:	7ccc 17be 67f7 9651 efed 9d09 1967 5366     .|...gQ.....g.fS
  4068e0:	2f1b 86bf d7e9 9430 ba70 2eba aaee e2ba     ./....0.p.......
  4068f0:	fb9d 9aba ee37 9ade 2c90 3b7e cb3d f2f4     ....7....,~;=...
  406900:	e68a 779d 9e6e 55ed 678e 6d99 5726 c634     ...wn..U.g.m&W4.
  406910:	e42a c2d3 f9dd 7767 a846 b0b3 c646 b23d     *.....gwF...F.=.
  406920:	5ed7 0b7f b9fb 23d8 1e63 6bd9 3faf fd85     .^.....#c..k.?..
  406930:	29d9 6f8e 999c b59f 2797 dcce dbe3 c94f     .).o.....'....O.
  406940:	f655 a2dd a6f4 33c6 2fbd 6997 4e3c 8a75     U......3./.i<Nu.
  406950:	62c3 e22c ae6b d76f 156f 2f76 7653 8869     .b,.k.o.o.v/Svi.
  406960:	a5a7 a6db 3722 bf47 8eca 79b9 6779 3599     ...."7G....yyg.5
  406970:	5674 eb6f 41a3 1355 ffbb 0d00 fa8f 42f9     tVo..AU........B
  406980:	eeb4 8aab 9969 e29e c8d4 dcaf 60c4 dc2d     ....i........`-.
  406990:	3ab9 31d5 3fc7 5d19 357b bb89 cb8a 5e2d     .:.1.?.]{5....-^
  4069a0:	3abd 31d5 3fc7 6919 90dd 671d 0070 0000     .:.1.?.i...gp...
	...
  4069c8:	0000 0300 00bb 77de e9ce eb94 2db3 6c93     .......w.....-.l
  4069d8:	69cb 2a3b 9ad2 3fd7 35cc ac75 13db bc19     .i;*...?.5u.....
  4069e8:	16d7 61ae 60ec a523 2fe3 a6d9 8a28 4dad     ...a.`#../..(..M
  4069f8:	f951 a9b6 df99 ca33 a782 f17c 47f2 3217     Q.....3...|..G.2
  406a08:	ecda 771b 3cfb ebec fc77 8fba cffc 8c16     ...w.<..w.......
  406a18:	5eed fe36 070f 2c17 c1d5 149e c347 4349     .^6....,....G.IC
  406a28:	dfb6 c430 f965 377d f530 6670 886a ddd7     ..0.e.}70.pfj...
  406a38:	5fa5 4967 27d8 1e63 6bd9 3faf fd85 ecdc     ._gI.'c..k.?....
  406a48:	b111 6c8f d7b5 c29f ecfe c594 e777 6526     ...l........w.&e
  406a58:	65ed f954 9cdb 697b 20f9 a93d abec fb66     .eT...{i. =...f.
  406a68:	d92f 797e 74ac 61f6 2fab b6e6 ca6a 98e2     /.~y.t.a./..j...
  406a78:	72bd 27c6 3407 bddc 154d 8a6f 532d 953c     .r.'.4..M.o.-S<.
  406a88:	754f ff06 0600 2626 7237 fc7b 5d6b 09d1     Ou....&&7r{.k]..
  406a98:	0bda ef55 fce2 83fc 68d6 2955 4d9e 00ff     ..U......hU).M..
  406aa8:	71fe 6d2c c695 c5df a6e0 eae5 53b8 c7ac     .q,m.........S..
  406ab8:	16ca c4c6 f1e3 fc18 6ebe 2ae2 aa9a 4ce1     .........n.*...L
  406ac8:	3c6b 43da 9f41 8499 2f91 9667 3e62 6717     k<.CA..../g.b>.g
  406ad8:	70a6 6d98 ac43 c634 8c43 b49b 31e1 9c18     .p.mC.4.C....1..
  406ae8:	d5a2 4c73 17c5 0de3 ed76 5534 4c34 88ef     ..sL....v.4U4L..
  406af8:	75ab cb53 eb12 6e77 3ddf 27de a077 66fb     .uS...wn.=.'w..f
  406b08:	4fe8 d32d b3de f36d 54bd 6ed3 8ea9 7c69     .O-...m..T.n..i|
  406b18:	15b1 364d aaaa c437 724f 76c0 d809 b6cf     ..M6..7.Or.v....
  406b28:	ef7a e1cf fa77 d8b1 6327 d91e af6b 853f     z...w...'c..k.?.
  406b38:	d9fd 8a29 766a 328f f5d7 e765 b6ea 37b3     ..).jv.2..e....7
  406b48:	f5d7 e4a7 278b 3b61 9919 f9df 5e53 f547     .....'a;....S^G.
  406b58:	68f8 d5a7 3ed1 f4db 9976 e6d8 d3a8 46f9     .h...>..v......F
  406b68:	c495 f8e6 0d8c 3cfc ab5c d5a7 136f 317e     .......<\...o.~1
  406b78:	3a3d 1be5 aaa9 298a 0e8e 74eb 3bf7 56ab     =:.....)...t.;.V
  406b88:	ddae 5e15 74ce 7b67 a3a8 aa9f a4af 331b     ...^.tg{.......3
  406b98:	639c 5871 b7e8 b97a d298 9278 8ead f3cf     .cqX..z...x.....
  406ba8:	760c 1665 17b1 aa26 9e74 3024 c902 805b     .ve...&.t.$0..[.
  406bb8:	0000 0000 0000 f771 3e8e 00f0 0000 f301     ......q..>......
  406bc8:	0000 7100 80f7 0000 0000 0000 ec0e 2600     ...q...........&
  406bd8:	90bd bf6c 9b67 d959 5de7 977a aa1f d970     ..l.g.Y..]z...p.
  406be8:	5487 ad63 b1ee c672 071f d4d4 b55b 4c54     .Tc...r.....[.TL
  406bf8:	cbc5 4f55 7d0b bbca 65af 093b dcd8 4ccc     ..UO.}...e;....L
  406c08:	9ae6 cff7 63e1 00ff 46a6 33fb ceda 631f     .....c...F.3...c
  406c18:	263a 21ad 8456 a8b9 6fa6 6ee3 c8f4 7ec5     :&.!V....o.n...~
  406c28:	8f49 94f7 a75b d283 55fa 9d5c 972f 757f     I...[....U\./..u
  406c38:	28ea 84e8 5db1 76db 64a7 a8d7 34df fec7     .(...].v.d...4..
  406c48:	1361 3bcb 56bf 7341 3b2b 3841 e79a 3f0f     a..;.VAs+;A8...?
  406c58:	afe9 1d17 be3b d72a c336 4ced 2be3 2c9c     ....;.*.6..L.+.,
  406c68:	00ff d7e3 78fd 8ee9 8f2f d01b 0876 cfd8     .....x../...v...
  406c78:	7ab6 cfef 7fe1 3b77 6c04 db67 773d f0e7     .z....w;.lg.=w..
  406c88:	bbbf dc24 220e 5c33 2cab e2cc 49d7 d68b     ..$.."3\.,...I..
  406c98:	75f0 77f0 cdf4 5dd1 d714 dfc1 bfc5 0b77     .u.w...]......w.
  406ca8:	f695 6a44 1cda 89ce 6ed2 09ca d55e 34e7     ..Dj.....n..^..4
  406cb8:	064f 4f6f 16c9 c24e 3376 c534 943f dcf5     O.oO..N.v34.?...
  406cc8:	5f7f 8a85 5dbd 6d1f 67bb 1b7a 9a63 4b77     ._...].m.gz.c.wK
  406cd8:	7ae6 1953 b1a8 ef17 c6dd 5cd1 b95f 1967     .zS........\_.g.
  406ce8:	a56f 4453 1355 4b4f 4cb5 efc4 ee9e 94f5     o.SDU.OK.L......
  406cf8:	5d43 3b15 46e7 5d68 acdf 9ce6 26dd 5f87     C].;.Fh].....&._
  406d08:	ce21 d8f1 c29c bbdd 26b7 9969 639d 2ee1     !........&i..c..
  406d18:	ccee 16ed 8b65 edcc bd59 6676 9999 3ed6     ....e...Y.vf...>
  406d28:	ae12 2d80 d015 0000 0700 781f 80f9 0000     ...-.......x....
  406d38:	bf01 ea1e f8b8 a534 8bed df6c 6d42 4787     ......4...l.Bm.G
  406d48:	99e7 abf6 eac6 3e4c d62e 2d22 1653 592e     ......L>.."-S..Y
  406d58:	e1c2 97fa 51a5 fa5e bba2 4f55 7d0b dd53     .....Q^...UO.}S.
  406d68:	3344 8fbb 638a 7293 74c9 6e2f 9a9d 5d6a     D3...c.r.t/n..j]
  406d78:	aedf ab4f 705a 93b6 7715 800b e5aa b49a     ..O.Zp...w......
  406d88:	639d e28f ed8c 3676 0bfe aa2c 8aed 35b8     .c....v6..,....5
  406d98:	1c6b 177f b023 c646 b23d 5ed7 0b7f b9fb     k...#.F.=..^....
  406da8:	23d8 1e63 6bd9 3faf fd85 29d9 cb8a 4cce     .#c..k.?...)...L
  406db8:	dacb 9eca b7f3 f638 f2d3 f943 c4f6 47f6     ......8...C....G
  406dc8:	6992 513d e09c 2d73 386b 18cb de6c 1ced     .i=Q..s-k8..l...
  406dd8:	b82b f06a 53fd cd6a d375 d315 2216 9d66     +.j..Sj.u...."f.
  406de8:	c7f4 c224 d7b9 ae1b 4c55 767e aae9 de3b     ..$.....UL~v..;.
  406df8:	fdf7 6397 7657 d7be f95b 873a fa53 d5a5     ...cWv..[.:.S...
  406e08:	b928 9bbe 23d7 2296 e66b 9dde 8eec 113f     (....#."k.....?.
  406e18:	b38c ab72 70f5 98b4 66d1 2e6c 8a67 2ccc     ..r..p...fl.g..,
  406e28:	ab5d 5c13 31d5 a731 e463 5e02 809d 0000     ]..\.11.c..^....
	...
  406e4c:	dfda 6de9 347c 2d7d 5b5b 2dfd 86af a48f     ...m|4}-[[.-....
  406e5c:	2796 ea72 5ee8 9bd5 fe35 d18d a5de dc65     .'r..^..5.....e.
  406e6c:	6dba da0b 66b3 d1bf 3bba acd4 95bb 980b     .m...f...;......
  406e7c:	ea7e 4ce7 bcf7 9ac9 f67e 5aef c47b d147     ~..L....~..Z{.G.
  406e8c:	da49 4ccb 6cf9 b57a b8d4 fa88 3b29 6959     I..L.lz.....);Yi
  406e9c:	2d9f 568f e8ba d7ec da29 fae9 af4b 1cb2     .-.V....)...K...
  406eac:	67b1 e9a7 d62a 7d1c 8fe3 babc 855e 8f03     .g..*..}....^...
  406ebc:	71bc 81f7 36ee db13 40f3 7cfc d5c7 adae     .q...6...@.|....
  406ecc:	a3c2 2bec e6b7 f881 8ff9 ddaa 855b b75f     ...+........[._.
  406edc:	bc3f aba3 95f5 e131 941f f52d be63 04a0     ?.....1...-.c...
  406eec:	5d25 b7aa 6744 8d6f f249 6f5a add4 9f23     %]..Dgo.I.Zo..#.
  406efc:	c9fe a21b b733 a4c6 2df9 ea35 9156 f2d4     ....3....-5.V...
  406f0c:	2f73 9f5c 16f6 b1ba f4dc 41ae 96c9 b43a     s/\........A..:.
  406f1c:	43f7 f93d f19d 473c 471c 1f27 eff7 8829     .C=...<G.G'...).
  406f2c:	abe5 057f 36ee 9427 ad69 b673 8f0c ea4f     .....6'.i.s...O.
  406f3c:	b2ac 6fde d794 3c6f b799 d754 dc66 46d7     ...o..o<..T.f..F
  406f4c:	e516 ce54 2afa e289 22aa 7b79 bc8d fa4d     ..T..*..."y{..M.
  406f5c:	f670 bbaa ea56 5e63 f6c6 1333 164e 77c5     p...V.c^..3.N..w
  406f6c:	8deb 9862 9e99 2e7e 8637 efe3 7d1c bce5     ..b...~.7....}..
  406f7c:	5bec 4fb0 9c73 ceb3 bfe2 ec10 b05b 733f     .[.Os.......[.?s
  406f8c:	b39c e2ce 11bf f312 03e3 d5ea 1fd9 1b74     ..............t.
  406f9c:	1bf1 f52d ec2a ba8f f1a1 8ef7 f23e 76de     ..-.*.......>..v
  406fac:	d82d b91f 59ce 71e7 885f 2d76 1fd8 ceb9     -....Y.q_.v-....
  406fbc:	e759 5f71 7988 81f1 6af5 8fec 1fbb d988     Y.q_.y...j......
  406fcc:	a96f 6457 d57d 8f0f 71bc 96f7 b1f3 c06e     o.Wd}....q....n.
  406fdc:	cefd cf72 8a3b 43fc 6eb1 fdc0 72ce 3bcf     ..r.;..C.n...r.;
  406fec:	fc8a cf43 0f8c 57ab 7d64 c4cf b76c abd4     ..C....Wd}..l...
  406ffc:	3eb2 87ea dec7 fb38 79cb b7d8 7e60 39e7     .>....8..y..`~.9
  40700c:	9d67 7ec5 d821 60b7 e79e 6739 c59d 217e     g..~!..`..9g..~!
  40701c:	c6e7 d507 b2ab e73e 36e2 ea5b d955 751f     ......>..6[.U..u
  40702c:	8d45 44f5 77c7 7f8b 8e7d e62e 4af8 103d     E..D.w..}....J=.
  40703c:	77ba ec45 56f3 bce9 8c16 2cc9 78e4 b85b     .wE..V.....,.x[.
  40704c:	2b5a 8aaa b96a 997e f5c4 ea45 5b38 aaeb     Z+..j.~...E.8[..
  40705c:	9267 639a 45e6 71bc 67ba 8d93 c12a a862     g..c.E.q.g..*.b.
  40706c:	58c6 f5a6 a411 ce55 659b eaf8 d831 316a     .X....U..e..1.j1
  40707c:	e216 2a62 e3e3 d4de fb38 65c3 00b8 0000     ..b*....8..e....
  40708c:	5afa 3dfd 8d9f fc6f bd4b bda7 6988 256f     .Z.=..o.K....io%
  40709c:	3dc9 855e b521 7bfa 1a3f f8df 7b97 7b4f     .=^.!..{?....{O{
  4070ac:	d210 4bde 7a92 08bd dd0e 95fe 99ae 2bfa     ...K.z.........+
  4070bc:	091f a35f a663 8e7e 0a70 51dd ae21 af8a     .._.c.~.p..Q!...
  4070cc:	7a61 ca17 5f73 a1a9 7b5d 158b 55d1 2fec     az..s_..]{...U./
  4070dc:	f942 6b4e 34f5 af2b 7171 976c d125 3dd3     B.Nk.4+.qql.%..=
  4070ec:	bff2 1b76 ad91 cff4 b07c 4802 0097 0000     ..v.....|..H....
  4070fc:	7607 bb03 ec00 c7f4 3db3 e52f 5719 50d7     .v.......=/..W.P
  40710c:	aabb a645 993d 7fe9 ca28 babe dd85 3b57     ..E.=...(.....W;
  40711c:	f977 74ed d14f 7853 fc4b 3af6 fa2a 2b00     w..tO.SxK..:*..+
  40712c:	5af5 7daf be15 f4c9 930f be63 50be 7da4     .Z.}......c..P.}
  40713c:	af89 b7a2 3ed9 f281 776c cad7 8f14 75b1     .....>..lw.....u
  40714c:	d7ec 5a26 fae8 d1cb 231b d6c8 277a 58be     ..&Z.....#..z'.X
  40715c:	db01 c048 80f9 3b6d 63a6 4d96 f9d3 bbdc     ..H...m;.c.M....
  40716c:	ee88 fb6e fe13 b4c2 cb46 ee75 ebca 75cf     ..n.....F.u....u
  40717c:	8f76 e7c2 ac39 b3e2 383a 5c75 6abd a5ae     v...9...:8u\.j..
  40718c:	dda2 a699 d49d 1155 5dcb ed5c cf0c b731     ......U..]\...1.
  40719c:	5897 f7f1 6662 d335 cb89 33ce 596b 1b56     .X..bf5....3kYV.
  4071ac:	2eca ccc4 116b bfc5 a78f 0144 dec7 fb38     ....k.....D...8.
  4071bc:	79cb b7d8 7e60 39e7 9d67 7ec5 d821 60b7     .y..`~.9g..~!..`
  4071cc:	e77e 6719 c59d 227e e737 07c6 abd5 3eb2     ~..g..~"7......>
  4071dc:	97e8 36e2 ea5b d955 751f e343 1cef e57d     ...6[.U..uC...}.
  4071ec:	ecbc b05b 733f b39c e2ce 10bf 5bec 3fb0     ..[.?s.......[.?
  4071fc:	9c73 ceb3 bfe2 f310 03e3 d5ea 1fd9 3f76     s.............v?
  40720c:	b211 52df c8ae aafb 1f1f e378 2def 62e7     ...R......x..-.b
  40721c:	81dd 9cfb 9ee5 1577 87f8 dd62 fb81 e59c     ......w...b.....
  40722c:	779e f815 9f87 1f18 ae56 fbc8 889f 6fd9     .w......V......o
  40723c:	57a9 7d64 0fd5 bc8f f771 f396 6eb1 fdc0     .Wd}....q....n..
  40724c:	32ce 3bcf fc8a b143 c06e cefd cf72 8a3b     .2.;..C.n...r.;.
  40725c:	46fc 6d63 33f0 703a ec6a bb8f e131 2e17     .Fcm.3:pj...1...
  40726c:	d399 5781 7d64 0ad5 067e 5c39 c29c 18dd     ...Wd}..~.9\....
  40727c:	cf6c b130 9e6a aa0d 626e 23e2 7597 aeb8     l.0.j...nb.#.u..
  40728c:	2162 eec7 31a6 c63a fda9 7035 56a3 6500     b!...1:...5p.V.e
  40729c:	00fa 0000 0000 0000 0000 0000 0000 0000     ................
  4072ac:	0000 0000 dd06 b5c5 2fd8 79f2 d7d9 d4c5     ........./.y....
  4072bc:	e67f b578 ee4a 2d73 c1ae 937f cece 2ebe     ..x.J.s-........
  4072cc:	ffa3 3300 a1c5 6ffb f4c9 a3f5 a4ba c207     ...3...o........
  4072dc:	2537 d7d3 ea8e e49e 5205 91a4 00ff 1f44     7%.......R....D.
  4072ec:	3d68 f257 0799 d0ac 1daa afc5 83e8 07ed     h=W.............
  4072fc:	feaa 2053 9af5 4315 b6b8 2736 e793 3dad     ..S ...C..6'...=
  40730c:	bbd0 1dfc 5cf2 a7f5 96ba eafb 7cab f9c6     .....\.......|..
  40731c:	2f8e 7387 be11 7e66 7e6f d9a4 f5d0 76a4     ./.s..f~o~.....v
  40732c:	b475 334d f1ab d3fa e14b dcf3 bb55 7dd9     u.M3....K...U..}
  40733c:	5534 7755 4cac aa59 d5dc 1d31 a82e c2ee     4UUw.LY...1.....
  40734c:	8d50 ec97 991a a98a ced9 1359 b8f2 c4af     P.........Y.....
  40735c:	f17d 55db c185 aa5f 74c5 cccc 6973 3fa7     }..U.._..t..si.?
  40736c:	6f3b db32 166c 8a5f 0dab 9a72 69a6 d3e6     ;o2.l._...r..i..
  40737c:	7e4e 4275 85ab ee4c 37aa 2e7d 41ef fecf     N~uB..L..7}..A..
  40738c:	34d3 7f1c baf1 d67b b96d 509b b2cb 2dad     .4....{.m..P...-
  40739c:	bdb5 9171 98e4 303a 4519 f79b b5a9 266e     ..q...:0.E....n&
  4073ac:	d4ab 6253 3722 5544 f956 9d9f d0c3 bb91     ..Sb"7DUV.......
  4073bc:	ba69 3f0e ddf8 eb3b dd36 aeda ec45 dc2c     i..?..;.6...E.,.
  4073cc:	74a7 bdc6 92b0 7a55 f89b bb49 ea4e d7a9     .t....Uz..I.N...
  4073dc:	35b6 305d 2514 de5b ab63 48f3 ddae 7e15     .5]0.%[.c..H...~
  4073ec:	74ce 9157 adc7 585f 7695 abe8 73f6 bca2     .tW..._X.v...s..
  4073fc:	3d8e fa66 b151 a5dc 121d ec99 2b0f d1d3     .=f.Q........+..
  40740c:	6028 7d0f af6e db66 74a7 eece fb2f f89d     (`.}n.f..t../...
  40741c:	85af 3df4 ce1e 1970 a856 96da c886 ccf3     ...=..p.V.......
  40742c:	3825 a6ec 2bfe a22b b9e5 ad9a 56d1 ab1a     %8...++......V..
  40743c:	15b1 3353 e94e f18d 59de d999 c176 dd2a     ..S3N....Y..v.*.
  40744c:	67bf 6439 cacf b7e2 63fd 9b87 f867 b27c     .g9d.....c..g.|.
  40745c:	68ba 4cbb cccc c56b dea7 ac11 6af3 b930     .h.L..k......j0.
  40746c:	ca35 df6d 66a6 8d6a b478 ccfa 1f2a 781f     5.m..fj.x...*..x
  40747c:	efe3 e72d dd62 fb81 e59c 779e f815 6287     ..-.b......w...b
  40748c:	81dd 9cfb 9ee5 1577 8ef8 9f47 1f18 ae56     ......w...G...V.
  40749c:	fbc8 5fb8 d988 a96f 6457 d57d 8f0f 71bc     ..._..o.Wd}....q
  4074ac:	96f7 b1f3 c06e cefd cf72 8a3b 43fc 6eb1     ....n...r.;..C.n
  4074bc:	fdc0 72ce 3bcf fc8a cf43 0f8c 57ab 7d64     ...r.;..C....Wd}
  4074cc:	c4cf b76c abd4 3eb2 87ea dec7 fb38 79cb     ..l....>....8..y
  4074dc:	b7d8 7e60 39e7 9d67 7ec5 d821 60b7 e77e     ..`~.9g..~!..`~.
  4074ec:	6739 c59d 217e c6e7 d507 b2ab e73e 36e2     9g..~!......>..6
  4074fc:	ea5b d955 751f e544 f79e ccd2 71c5 cd14     [.U..uD......q..
  40750c:	3173 bf13 7d77 e76e db65 ab05 768e 9673     s1..w}n.e....vs.
  40751c:	f54f afb8 45c4 111d 575a db67 ca39 15b4     O....E..ZWg.9...
  40752c:	17fd f0a6 0df9 f5db 08ea 34b9 77d7 c211     ...........4.w..
  40753c:	6eb5 138b 4f4c aa4c 6e77 d5e1 dfc9 e06e     .n..LOL.wn....n.
  40754c:	ab36 8e0b 53c4 dd62 1333 fa3c bb69 775e     6....Sb.3.<.i.^w
  40755c:	2b47 5cdb 6516 a78a 6a0d a29a d76a 9a7e     G+.\.e...j..j.~.
  40756c:	4471 3acf ee17 c781 49de 1093 6f00 f71b     qD.:.....I...o..
  40757c:	c74c 172f bdc3 3e8e 3d5e 00ff f7de 133b     L./....>^=....;.
  40758c:	f4c9 b8d6 f6da a741 56f5 6f59 ca38 a32b     ......A..VYo8.+.
  40759c:	9a3e d5ad d935 37b7 e12d 57ae cc44 54d1     >...5..7-..WD..T
  4075ac:	144f 4fc4 c22a 2f76 34d8 4fcc 9c63 7cb3     O..O*.v/.4.Oc..|
  4075bc:	fe6f 1577 88f8 69fe 58b4 b66c 5aec 4cbb     o.w....i.Xl..Z.L
  4075cc:	e9cc 16af ff9e 7f00 16b9 b6ce 09b3 5f94     ..............._
  4075dc:	178b aaa9 6366 2d5e f434 ccf3 172a 781f     ....fc^-4...*..x
  4075ec:	9ee3 cb2d d879 60b7 e77e 6739 c59d 217e     ..-.y..`~.9g..~!
  4075fc:	b7d8 9e60 39e7 9d67 7ec5 9923 c6e7 d507     ..`..9g..~#.....
  40760c:	b2ab ee3e e23f 5b36 55ea 1fd9 4475 a7e3     ..>.?.6[.U..uD..
  40761c:	f97e a898 dffc 99cd 9e89 815f f6ea 96b5     ~........._.....
  40762c:	9a64 6c4f d33a e94f 0dec b3bc b327 065e     d.Ol:.O.....'.^.
  40763c:	db2d 6aa6 6ebb 759b ad61 3155 5515 3333     -..j.n.ua.U1.U33
  40764c:	33c7 733c 74dd 1539 369c a963 feb4 8d5f     .3<s.t9..6c..._.
  40765c:	17b7 77b0 e52f d5d4 f04f d977 e5aa 5431     ...w/...O.w...1T
  40766c:	7b71 29d3 ab65 ddf4 17b3 74a3 4fc4 6a6c     q{.)e......t.Olj
  40767c:	d99c 53c5 0f7b 224e e298 8998 e9f7 af31     ...S{.N"......1.
  40768c:	836b dec7 fb38 79cb b7d8 7160 d8c5 2ce3     k...8..y..`q...,
  40769c:	b8f3 c4af 163b 0fec e7dc f32c afb8 45c4     ....;.....,....E
  4076ac:	6d27 31f0 703a ec6a ba8f 3e0d b211 9de8     'm.1:pj....>....
  4076bc:	1538 4776 50dd fbf8 1fc7 6f79 163b 0fec     8.vG.P....yo;...
  4076cc:	e7dc f32c afb8 3bc4 ec16 dc0f 2ce7 b8f3     ..,....;.....,..
  4076dc:	c4af cf63 0f8c 57ab 7d64 fcd8 cb46 4a7d     ..c....Wd}..F.}J
  4076ec:	23bb a8ee e87d 85a3 9bf4 75a7 bb33 fb8b     .#..}......u3...
  4076fc:	adf7 6ce4 60bb ef94 b3dd b29c e527 5f71     ...l.`......'.q_
  40770c:	ac88 46db 65c0 5b5a 7a6a 23e7 f0c8 e094     ...F.eZ[jz.#....
  40771c:	ab32 ac18 8bd2 e276 b96a 3845 6e5a 53cc     2.....v.j.E8Zn.S
  40772c:	4d4c e65b 4777 d77d 73ca 3efc 5d67 5a54     LM[.wG}..s.>g]TZ
  40773c:	62a6 3562 d3e3 2eef 47ee 18b5 e65c 56e5     .bb5.....G..\..V
  40774c:	53ec 3431 bcc6 7d7a 5e26 0768 2571 0100     .S14..z}&^h.q%..
  40775c:	adbd 3efd c6c7 f4b7 6db4 f46b 7ef6 bf35     ...>.....mk..~5.
  40776c:	89a5 c4dc 5eee 3d0d 43ec 794b 492e f4ea     .....^.=.CKy.I..
  40777c:	ce39 9e0e 21f6 bca5 2497 7af5 e51c 8803     9....!...$.z....
  40778c:	5afd 65ba ece5 eb57 d357 1922 a9e8 17f6     .Z.e..W.W.".....
  40779c:	bca1 35a7 9afa 3213 e819 f6a9 a117 a7bc     ...5...2........
  4077ac:	fa35 1d9a 997d 4be5 1e7f 77e9 3bb6 6c96     5...}..K...w.;.l
  4077bc:	7bfc 5da5 5d40 420f 0000 6077 80f9 227d     .{.]@].B..w`..}"
  4077cc:	982b 68aa 9899 db8d e4d8 ff9e d200 7a99     +..h...........z
  4077dc:	741d cfae 8bb6 6b95 faeb 4dd3 f3e1 b6eb     .t.....k...M....
  4077ec:	d32b dbf4 ab9a 87bb dae0 45b9 aaf9 a523     +..........E..#.
  4077fc:	1bd5 f0f7 e529 25ef d978 c176 e369 9c8d     ....)..%x.v.i...
  40780c:	91e5 6efd f12b 9c11 d57e 7061 8a38 f7b0     ...n+...~.ap8...
  40781c:	9929 e698 4dd3 f3da d9a1 daa6 b2e0 55dc     )....M.........U
  40782c:	6b58 d5b4 4e33 b49b 8ed3 7922 0bd5 bc8f     Xk..3N...."y....
  40783c:	f771 f396 6eb1 fdc0 72ce 3bcf fc8a b143     q....n...r.;..C.
  40784c:	c06e cefd cf72 8a3b 46fc 9f97 1f18 ae56     n...r.;..F....V.
  40785c:	fbc8 dfb9 d988 a96f 6457 d57d 8f0f 71bc     ......o.Wd}....q
  40786c:	96f7 b1f3 c06e cefd cf72 8a3b 43fc 6eb1     ....n...r.;..C.n
  40787c:	fdc0 72ce 3bcf fc8a cf43 0f8c 57ab 7d64     ...r.;..C....Wd}
  40788c:	fcd9 cb46 4a7d 23bb a8ee ba91 ef37 9889     ..F.}J.#....7...
  40789c:	fdfe 23eb b9d0 b61b a967 a7f8 e37c 9e6b     ...#....g...|.k.
  4078ac:	1cf7 ede1 5f3d fd62 f182 ec7f 2ce7 98f3     ....=_b......,..
  4078bc:	c4af da77 207b 1bd2 c03d 3262 1bbd d892     ..w.{ ..=.b2....
  4078cc:	b0c8 2a17 d5e1 3545 7e57 c499 6270 fb9d     ...*..E5W~..pb..
  4078dc:	aaeb 9267 3e22 2367 da3c 2e7c 8361 169b     ..g.">g#<.|.a...
  4078ec:	98e9 9899 a7df e2a3 ede0 d926 f360 054c     ..........&.`.L.
  4078fc:	6b58 d554 3313 f41b 8ad3 657a 80d9 ab81     XkT..3....ze....
  40790c:	5937 7bab eb5f 21af fed4 71a9 ae49 967e     7Y.{_..!...qI.~.
  40791c:	c3f7 d35f b32b 7bab eb5f 21af ded4 71a9     .._.+..{_..!...q
  40792c:	ae49 967e c3f7 d35f 2f2b 7f61 e742 774c     I.~..._.+/a.B.Lw
  40793c:	0f2e df06 bdb6 1dd3 9fcf 4376 22bb b276     ..........vC."v.
  40794c:	00c0 0000 0000 0000 0000 0000 0000 0000     ................
  40795c:	0000 0000 0000 6d00 f46f beb6 3e1a ad96     .......mo....>..
  40796c:	fead d796 47c3 4bd2 b913 7475 6a2f 9acd     .....G.K..ut/j..
  40797c:	00ff e846 52ef eeb2 365d ed85 b359 e85f     ..F..R..]6..Y._.
  40798c:	1ddd 56ea ca5d cc85 753f a673 de7b cd64     ...V]...?us.{.d.
  40799c:	7b3f ad77 e73d 9173 f415 614b 3c33 67e7     ?{w.=.s...Ka3<.g
  4079ac:	773a 950d 71e0 8559 c6f8 cd44 5334 2656     :w...qY...D.4SV&
  4079bc:	97ae f7d4 8e63 9323 618e 0f2a 5bde 9c8d     ....c.#..a*..[..
  4079cc:	2616 f19b f01a 0f7d 53a6 7f98 c68e 8951     .&....}..S....Q.
  4079dc:	758a fae0 8b14 16f2 f1b2 3d5f 37f3 e97e     .u........_=.7~.
  4079ec:	0bf9 7859 9eaf 9bf9 75bf 4477 cfc7 fdba     ..Yx.....uwD....
  4079fc:	7694 00ff ff49 e200 7e5d 3bc2 a57f fc22     .v..I...]~.;..".
  407a0c:	ac85 57bc 7ccf dfcd 7eba d642 2b5e bee7     ...W.|...~B.^+..
  407a1c:	ef66 5ddd f3d0 bfee 1d65 d1bf 97f8 b05f     f..]....e....._.
  407a2c:	df8e 55e9 2bb6 ea94 bf3c da6d 1f0b c88f     ...U.+..<.m.....
  407a3c:	8cb3 1a16 999b 0a87 edaa b15c 2666 d770     ..........\.f&p.
  407a4c:	3762 34d5 72f1 4fad 7c17 9c11 37ef d29c     b7.4.r.O.|...7..
  407a5c:	5df4 789a 463a f59b ccf4 50fd a2fd 67cf     .].x:F.....P...g
  407a6c:	bf3a e94d 83a3 69a4 baa6 66fa dc7d 0ee0     :.M....i...f}...
  407a7c:	3a2a ddaa 9d11 35be c927 af69 b452 b98e     *:.....5'.i.R...
  407a8c:	b778 e46f bd48 9d11 35be c927 af69 b452     x.o.H....5'.i.R.
  407a9c:	2c8f 00ff c319 6bfc e23f eb85 7294 ae7d     .,.....k?....r}.
  407aac:	77ac 293d f290 8e5d 3da5 ecd0 213f 1e6b     .w=)..]..=..?!k.
  407abc:	cf0c f95a eef6 e62f f06e 84be d081 00ff     ..Z.../.n.......
  407acc:	6a95 b73c 5a6e 1b77 e499 b679 0b07 b516     .j<.nZw...y.....
  407adc:	fa16 b5ab 0f73 856b 4b38 1bb1 9aea 7277     ....s.k.8K....wr
  407aec:	e3ac 5d3c 13e4 b619 6235 d72c 6d66 6bc4     ..<]....5b,.fm.k
  407afc:	1b13 fef9 d30a db30 f1fa 7b58 7998 11b3     ......0...X{.y..
  407b0c:	89c2 758d e2e7 61e6 bbf3 057f 9a84 c529     ...u...a......).
  407b1c:	f0e2 59b8 fb9d 55b8 9d45 1cf1 b7bb 88be     ...Y...UE.......
  407b2c:	a217 abb6 b396 9a0d 2bf0 8fae d4cc 933c     .........+....<.
  407b3c:	7f34 67c7 7297 9433 ff65 e400 7471 e6e1     4..g.r3.e...qt..
  407b4c:	0eae f1ba ddef 2813 457e c695 8d69 0ba7     .......(~E..i...
  407b5c:	7035 d775 4d8f 4477 3ccf 2773 ad3e fdc9     5pu..MwD.<s'>...
  407b6c:	cbb5 e57c 5627 fee4 e5da 72be 1a95 b8e9     ..|.'V.....r....
  407b7c:	0f9f fd88 3aa9 276e e2c3 e539 f332 9f0e     .....:n'..9.2...
  407b8c:	f26d d6fe e10f 1ea5 f8df 00ff cb6b b9d5     m...........k...
  407b9c:	b63f 6fb9 a49c dcea db9f b75c 52ce 5da3     ?..o......\..R.]
  407bac:	1337 f1e1 f21c dc74 874f 73c4 e6c9 3e1d     7.....t.O..s...>
  407bbc:	e5db 9ffd 9486 7f7b fde3 3daf 46ac 895f     ......{....=.F_.
  407bcc:	a5af 71e1 3cd8 ce4d dd39 744d b9de efc0     ...q.<M.9.Mt....
  407bdc:	87ee e0d7 9e56 3a86 dcee eeda 9b3e 2b97     ....V..:....>..+
  407bec:	3aae 358b 99e5 37ae edf0 b22c 9d25 7165     .:.5...7..,.%.eq
  407bfc:	6296 4c3c c255 89e2 4dd7 e83e d126 b164     .b<LU....M>.&.d.
  407c0c:	e293 9efc e12b 4471 a6eb fe9b 8032 267a     ....+.qD....2.z&
  407c1c:	ecf2 38f3 fad6 f64a 9455 39e6 a895 d1c1     ...8..J.U..9....
  407c2c:	3613 d7ed a689 ea2b f39b 7dbb de31 4498     .6....+....}1..D
  407c3c:	9151 1a6b bab8 cfd8 f869 dd6c 17fb 776c     Q.k.....i.l...lw
  407c4c:	fd32 abb0 8707 0fa3 f516 fae0 fe75 5c92     2...........u..\
  407c5c:	6faf c02b 6861 45c3 9ea8 690c bfae 8ad2     .o+.ah.E...i....
  407c6c:	b5df c089 2ee2 31e1 ae76 f161 cd14 5551     .......1v.a...QU
  407c7c:	1333 ec6e ee5c 51c5 703c 7cf9 57ef a8b5     3.n.\..Q<p.|.W..
  407c8c:	8da6 6db6 222e 7723 e756 f75e 4de7 a5da     ...m."#wV.^..M..
  407c9c:	66e5 4437 7977 6556 9e8b dd36 3937 27e2     .f7DwyVe..6.79.'
  407cac:	70b5 aee1 ebf8 dc34 4dd3 2762 1ab6 fa80     .p....4..Mb'....
  407cbc:	c0be fa00 fd5a 9f3d 6f8d 4bfc a7bd 88bd     ....Z.=..o.K....
  407ccc:	6f69 c925 5e3d 2185 fab5 3f7b df1a 97f8     io%.=^.!..{?....
  407cdc:	4f7b 107b ded2 924b bd7a 0e08 fedd ae95     {O{...K.z.......
  407cec:	fa99 1f2b 5f09 63a3 7ea6 708e dd0a 2151     ..+.._.c.~.p..Q!
  407cfc:	8aae 61af 177a 73ca a95f 5da1 8b7b d115     ...az..s_..]{...
  407d0c:	ec55 422f 4ef9 f56b 2b34 71af 6c71 2597     U./B.Nk.4+.qql.%
  407d1c:	d3d1 f23d 76bf 911b f4ad 7ccf 02b0 9748     ..=..v.....|..H.
  407d2c:	0000 0700 0376 00bb f4ec b3c7 2f3d 19e5     ....v.......=/..
  407d3c:	d757 bb50 45aa 3da6 e999 287f beca 85ba     W.P..E.=...(....
  407d4c:	57dd 773b edf9 4f74 53d1 4b78 f6fc 2a3a     .W;w..tO.SxK..:*
  407d5c:	00fa f52b af5a 157d c9be 0ff4 6393 bebe     ..+.Z.}......c..
  407d6c:	a450 897d a2af d9b7 813e 6cf2 d777 14ca     P.}.....>..lw...
  407d7c:	b18f ec75 26d7 e85a cbfa 1bd1 c823 7ad6     ..u..&Z.....#..z
  407d8c:	be27 0158 48db 47db 5c1d 12b1 60e4 79f0     '.X..H.G.\...`.y
  407d9c:	779e bb7e 5619 1507 bf8f 3311 4531 6235     .w~..V.....31E5b
  407dac:	8b2b e27b 6626 df29 b33c 7e1c 8ffb c9cb     +.{.&f).<..~....
  407dbc:	fe1b bfc4 b1d0 9dc1 6aa7 d18d dff9 b393     .........j......
  407dcc:	d90f dcea 530b c530 2679 bb1a 6bda 8dc1     .....S0.y&...k..
  407ddc:	6874 7866 c0d9 2be1 69c4 06af d135 4e19     thfx...+.i..5..N
  407dec:	ac45 77a2 b175 4c9f ff71 3300 9377 56f6     E..wu..Lq..3w..V
  407dfc:	a157 0ddb e598 1c5b 0baf 619a 5831 4f2c     W.....[....a1X,O
  407e0c:	6656 c1f3 9aae d7b0 5c7a c3da 9dee f0d3     Vf......z\......
  407e1c:	474a 8e15 b571 6615 7f58 3611 3cf8 3a71     JG..q..fX..6.<q:
  407e2c:	aaeb cf9c ceb6 dfac e409 6ad3 e329 d789     ...........j)...
  407e3c:	775d 197c 6eee ea71 65c6 5534 1555 99e6     ]w|..nq..e4UU...
  407e4c:	3575 f8c6 9b98 d194 5554 b11c ba2f 6b97     u5......TU../..k
  407e5c:	98bb 368a af97 2f22 a7de 00ff a81b 7137     ...6.."/......7q
  407e6c:	53cc eac0 8d8b 874c 8c24 aada 6be2 f0e0     .S....L.$....k..
  407e7c:	f474 f56b 8e86 eccc 67e4 d775 dc4c f0e0     t.k......gu.L...
  407e8c:	3d62 eb1a c6af 2b17 72ab 6d7f df72 4939     b=.....+.r.mr.9I
  407e9c:	b9d5 b63f 6fb9 a59c ba46 2776 8bf5 00ff     ..?..o..F.v'....
  407eac:	27b5 c44e b1fe f67f 24a5 0ef3 6d9f fef2     .'N......$...m..
  407ebc:	ffd2 c300 3d3a f1bf d7fe ab97 7f72 726d     ....:=......r.mr
  407ecc:	39df d549 3fb9 b9b6 9c67 46a5 76ba f527     .9I..?..g..F.v'.
  407edc:	ff8b b500 4e27 efc4 fc8f ff45 da00 cc93     ....'N....E.....
  407eec:	7d3a cbb7 3ffb e80c fff6 c700 5efb 77ab     :}...?.......^.w
  407efc:	622c 8b28 7bb8 afd6 9dda 74fc 5dcc beb7     ,b(..{.....t.]..
  407f0c:	f83d de6f fd47 d50f bb5c 6db0 722d 53ed     =.o.G...\..m-r.S
  407f1c:	7d5d 3f33 e5e3 0f9e 5755 fd11 9edb 05fd     ]}3?....UW......
  407f2c:	d8c6 4cf2 764d d7b5 3383 f41a b44a 30cc     ...LMv...3..J..0
  407f3c:	45be ae8c 4ec4 0abc 35a6 d2e7 b354 c933     .E...N...5..T.3.
  407f4c:	8535 ce59 556b 6b1a ae3d bb99 dd8d cdba     5.Y.kU.k=.......
  407f5c:	8dc9 32dd 79af c4c3 3a65 2fa3 dec2 63c6     ...2.y..e:./...c
  407f6c:	fef4 856f d3c2 85bb 565d 59ae 11b3 bb33     ..o.....]V.Y..3.
  407f7c:	a98e d18d 30c7 ffbb 3300 6dc7 6aae 60a3     .....0...3.m.j.`
  407f8c:	45db 88aa ab89 65a5 fcbe 1c7f 9db0 b6e0     .E.....e........
  407f9c:	abca 68d7 e2b3 d6f4 3762 f1f3 2c73 bbdc     ...h....b7..s,..
  407fac:	05c2 8b78 f0f6 66f3 8523 1a31 cfeb ccc5     ..x....f#.1.....
  407fbc:	03a8 c733 cf54 c2c2 b37e 00c0 0000 0000     ..3.T...~.......
	...
  407fd8:	0100 73b7 6d99 0b76 9efc 7576 75f1 f91f     ...s.mv...vu.u..
  407fe8:	2d9e bb52 cb9c b06b e45f b3f3 8baf ffa8     .-R...k._.......
  407ff8:	cc00 68f1 db7e 7df2 683d a9ee f001 c98d     ...h~..}=h......
  408008:	f574 bae3 b9a7 5401 27a9 db84 1fce 9a1b     t......T.'......
  408018:	376c 6053 fcb2 232e 8a19 e6aa ba45 229a     l7S`...#....E.."
  408028:	de6f d89d 269a 5377 7c1c d59b f27b b11e     o....&wS.|..{...
  408038:	34df 97ce 67cf f993 bb9b 7eb7 eeca 5e09     .4...g.....~...^
  408048:	b44b 96d3 e661 51cc d6c2 df75 37a7 36d9     K...a..Q..u..7.6
  408058:	fdd9 abb0 c226 1ece 452d cc5a bace bee9     ....&...-EZ.....
  408068:	3922 c8bd a18b 0793 e49a 4bfa 595b 72cd     "9.........K[Y.r
  408078:	66fc 765f 1971 d35c 2817 0dab 4c33 ae5a     .f_vq.\..(..3LZ.
  408088:	7427 ca55 4197 ccc4 d3b1 c58d 8855 4dd3     'tU..A......U..M
  408098:	1f7d 110d dfec ff32 2300 ab8c c115 85d3     }.....2..#......
  4080a8:	dfe8 d1e8 f653 94bd 8cea da7e fe75 052f     ....S.....~.u./.
  4080b8:	f3a7 5e9c ac16 f945 aaa6 5c2d 66bb dd69     ...^..E...-\.fi.
  4080c8:	711c 1c31 b36e 6444 b3da b40f 0f6d 137f     .q1.n.Dd....m...
  4080d8:	33a7 36cb c628 3364 4d35 b49b 1651 11e3     .3.6(.d35M..Q...
  4080e8:	ef44 c1df 5ce2 2831 b6b7 5155 8b87 2a1e     D....\1(..UQ...*
  4080f8:	a338 754d 69f7 99cc f0da 5d81 2cbc fc61     8.Mu.i.....].,a.
  408108:	714c a653 fbba d7b4 0270 3b0f c4d5 b2ce     LqS.....p..;....
  408118:	b72b 5f45 9db3 e415 eb71 d637 5d25 2aba     +.E_....q.7.%].*
  408128:	9cfd afe8 8f23 be59 ec94 2977 4447 bba6     ....#.Y...w)GD..
  408138:	ca03 f4f4 194a fb8d 8efb d6ca aa4d 3871     ....J.......M.q8
  408148:	587b 1a8b 3c77 87bd 2daa 33cd 6e16 b7dc     {X..w<...-.3.n..
  408158:	6a36 f48d 33cd ee14 9898 e398 2d70 eb4e     6j...3......p-N.
  408168:	ebf6 8998 f48d 2b7d a1a7 7637 d92b 16a7     ......}+..7v+...
  408178:	fce8 a39b 4abd c0ca 73cf ca89 53ed 535c     .....J...s...S\S
  408188:	d6c2 df74 d0a2 5cda 72fe 344b 8add 5a38     ..t....\.rK4..8Z
  408198:	9bce fbf4 1eab 32cb 4b7d db82 ce16 58b1     .......2}K.....X
  4081a8:	87cc c33a 69e1 64c6 33f3 9b55 ad96 3d45     ..:..i.d.3U...E=
  4081b8:	9d36 33f3 ee34 535b 2bb8 f33c 9c39 e5d6     6..34.[S.+<.9...
  4081c8:	cd35 1d3c 4e23 3d75 7bb4 3943 dad5 4d2e     5.<.#Nu=.{C9...M
  4081d8:	1e1c 690c 5fbf 4bb3 70b7 5ab8 af69 8a15     ...i._.K.p.Zi...
  4081e8:	86b1 78a2 6aa2 2caa c2d3 71ef 7dbe 935b     ...x.j.,...q.}[.
  4081f8:	6bfb f996 11ca 455f 550d d9da 99a6 759b     .k...._E.U.....u
  408208:	6ed5 b67a 71dc 6c7e 7af0 cd45 bdf1 ea5b     .nz..q~l.zE...[.
  408218:	88b9 8988 f78b 4fb7 53fd ae2e b24f 98b1     .......O.S..O...
  408228:	63e1 3711 3a38 f1cc ae69 8cef 993b c40e     .c.78:..i...;...
  408238:	9bd3 a360 3713 3a78 f1cc ae69 7eef bcb0     ..`..7x:..i..~..
  408248:	5b9d fb93 966b caf9 ad4e fdc9 cbb5 e57c     .[..k...N.....|.
  408258:	352a b1d3 ac3f fd5f 3aa9 2776 8bf5 00ff     *5..?._..:v'....
  408268:	2eb5 98a7 fb74 976f ecf6 1afe ed51 00ff     ....t.o.....Q...
  408278:	f68f bdbc 935b 6dfb f996 19ca 15a3 5f96     ....[..m......._
  408288:	4db9 199b 068e d9f5 badf ba22 5c6e 829f     .M........".n\..
  408298:	5198 9bbe 8889 31fe bb7f 00ff bd14 c3ae     .Q.....1........
  4082a8:	5e6e 6fab 065a 978b d76e 331d e530 aa99     n^.oZ...n..30...
  4082b8:	fd9d 764b 1c5f c556 6251 77c5 6e7c 18bc     ..Kv_.V.Qb.w|n..
  4082c8:	dd99 1acd b5f3 9eb1 280f e1c2 bdeb b5e3     .........(......
  4082d8:	c4e0 9cce fa1d bc46 6aeb ba86 7028 b639     ......F..j..(p9.
  4082e8:	9375 e2ec ab8c c62d 35e6 77d3 7053 14b8     u.....-..5.wSp..
  4082f8:	8955 a698 c368 df6e dfc1 92bb 2853 6588     U...h.n.....S(.e
  408308:	e998 62c0 bfa9 baa6 c56b 98f0 3241 cb7c     ...b....k...A2|.
  408318:	66fc 8c36 5354 e0c2 c5eb 7cbb 294c e417     .f6.TS.....|L)..
  408328:	632d ec13 3e5f ea9f fd6e 17d7 6317 951d     -c.._>..n....c..
  408338:	6ee2 7360 262c 0927 a789 be83 e29a f770     .n`s,&'.......p.
  408348:	26a2 c637 67fa 918f 3b7a f393 af2a 4c44     .&7..g..z;..*.DL
  408358:	dbef a6e6 ffa3 4b00 7b4d 7ddc 6947 6465     .......KM{.}Gied
  408368:	4b7b a539 b3f9 7034 8d74 eb77 f7cd bb5b     {K9...4pt.w...[.
  408378:	b637 6715 a938 36b1 3af8 ce44 ebba 88e9     7..g8..6.:D.....
  408388:	f7e6 80a3 b412 23e1 3af4 f876 9fd3 a925     .......#.:v...%.
  408398:	4abd d5ea 2777 55e6 875e df4e 731a b5e4     .J..w'.U^.N..s..
  4083a8:	a937 5a5d e4ae cafc 6daf 7fbf 564f e53b     7.]Z.....m..OV;.
  4083b8:	784a e545 7a3a dfb1 0053 aa21 55fd d9b6     JxE.:z..S.!..U..
  4083c8:	ea94 c77c 1a6e 19e3 c880 8c73 0e6e f0aa     ..|.n.....s.n...
  4083d8:	1a3c b5a8 f572 9899 dac3 dd89 5354 c7c7     <...r.......TS..
  4083e8:	f312 779a d525 35b6 9a56 88bf b9d3 8cdd     ...w%..5V.......
  4083f8:	183d ae8c aa6a dd6c 88a2 a6a3 33d3 66be     =...j.l......3.f
  408408:	259e 70cc 0e75 b4fe 5635 5eee cfa4 fa39     .%.pu...5V.^..9.
  408418:	b49e 0bef 15b6 6653 3f8c 8e8b 8a28 d775     ......Sf.?..(.u.
  408428:	a6dd 96bb 0b5e 6b6f c5a6 27bc 8d8a 4ed1     ....^.ok...'...N
  408438:	fbba d7b4 1f4d ad7e fdc9 cbb5 e57c 5627     ....M.~.....|.'V
  408448:	fee4 e5da 72be 1c95 77bb 1713 47af 5f54     .....r...w...GT_
  408458:	b9e5 9ddd addc 767a f527 ff8b b500 cf2d     ......zv'.....-.
  408468:	2931 3f9e f21d ddfe f009 446b f8f1 00ff     1).?......kD....
  408478:	fde3 2faf e456 dafe bee5 9372 72ab 6d7f     .../V.....r..r.m
  408488:	df72 4a39 748d 4fec 17eb 00ff 4e6a 899d     r.9J.t.O....jN..
  408498:	62fd 00ff 4bed 611e edd3 5fbe 1fdb 7486     .b...K.a..._...t
  4084a8:	7f7b fde3 2faf e456 dafe bee5 8572 da41     {..../V.....r.A.
  4084b8:	56c5 6def 699f 6d17 a25c b9f5 67c6 a63b     .V.m.i.m\....g;.
  4084c8:	8727 d34c aad3 98e4 9e79 899d 62a6 bd69     '.L.....y....bi.
  4084d8:	9f7a 779e 9934 b9aa 57e1 ea3b f7e3 dce5     z..w4....W;.....
  4084e8:	f6c8 327a 959b 1557 b5f0 378d f569 8f94     ..z2..W....7i...
  4084f8:	3667 9c56 ed92 2277 0be7 1a85 d36e 2deb     g6V...w"....n..-
  408508:	4940 e012 1b00 fd5a 9f3d 6f8d 6ae9 d7da     @I....Z.=..o.j..
  408518:	ece9 6bfc 4b7f b913 dc89 1abc d87b 9686     ...k.K......{...
  408528:	5cf2 d593 73e8 1d9c ec3d 4b43 2e79 ea49     .\...s..=.CKy.I.
  408538:	39f4 07ca fa11 74b5 cbcb afd8 afd6 44a6     .9.....t.......D
  408548:	d133 ec53 432f 4e79 f56b 2634 3364 53d1     3.S./CyNk.4&d3.S
  408558:	2fec 7943 6b4e 34f5 fb3a ca33 fe96 d23d     ./CyNk.4:.3...=.
  408568:	6cef 2c77 f8d9 4af7 80ba 1eba 0084 2707     .lw,...J.......'
  408578:	630b 9919 6d62 7260 2efc 1723 ab8c ba87     .c..bm`r..#.....
  408588:	628a de6f 8898 a79a 3175 3cc7 3351 39f3     .bo.....u1.<Q3.9
  408598:	907f 87b5 ff1f b600 e833 a6fe 51ed 17fe     ........3....Q..
  4085a8:	e8ad 9d7c 10dd 1a9a 6e37 0e8e f8aa f27f     ..|.....7n......
  4085b8:	52cc a2d7 eeb9 4ed2 7e55 452d 2d1c 5d63     .R.....NU~-E.-c]
  4085c8:	7afa 3e66 4e88 edd2 5975 262e 119b 856f     .zf>.N..uY.&..o.
  4085d8:	6bac baae 667a a739 0d99 2f74 b360 977c     .k..zf9...t/`.|.
  4085e8:	da27 393d 5bae cb8d aaab 99e6 f0e0 abe8     '.=9.[..........
  4085f8:	330d 5b4c efc4 c2dd dfdd ca84 d30a c733     .3L[..........3.
  408608:	3f4e 5515 34fd 4ed7 842f a042 33ce f22f     N?.U.4.N/.B..3/.
  408618:	da78 53f1 074f a785 fd16 10d1 d7f8 cb8a     x..SO...........
  408628:	5c2c cdaa c7fc 6603 6eec 13df 365d 47ee     ,\.....f.n..]6.G
  408638:	4cc3 d5b1 3fb9 d9b6 9c6f 54a1 e576 f572     .L...?..o..Tv.r.
  408648:	7a3b d4d7 bb5b 8876 e5e1 93fc 5334 eac2     ;z..[.v.....4S..
  408658:	525b 5df1 1337 fc31 ff62 7300 29fe b04b     [R.]7.1.b..s.)K.
  408668:	15bb fb45 5d14 baf1 a270 7727 6b3c 9dce     ..E..]..p.'w<k..
  408678:	bce0 511e c38a 7bd1 69c7 88c2 389d b53b     ...Q...{.i...8;.
  408688:	798d 8fd7 72ab 6d7f df72 4939 b9d5 b63f     .y...r.mr.9I..?.
  408698:	6fb9 a59c ba46 2776 8bf5 00ff 27b5 c44e     .o..F.v'.....'N.
  4086a8:	b1fe f67f f7a5 0ef3 6d9f fef2 3fdb 9486     .........m...?..
  4086b8:	7f7b fde3 2faf e456 dafe bee5 8772 d5d2     {..../V.....r...
  4086c8:	2edc 9a2a c2ab ace2 6862 298e 6a9a d48b     ..*.....bh.).j..
  4086d8:	bbf0 4adc 172f 1331 3313 f67e dde8 00ff     ...J/.1..3~.....
  4086e8:	c214 74c8 552f cd5d 6a9a b969 555d 56cf     ...t/U]..ji.]U.V
  4086f8:	8edc ce3f 0c9e b758 bdc5 cecb 5636 ec32     ..?...X.....6V2.
  408708:	e22c e722 490b 2d8e df34 97f1 3e1b 9ad8     ,."..I.-4....>..
  408718:	9c72 e214 ef62 490b 2d8e df34 d6ef d852     r...b..I.-4...R.
  408728:	6a08 75be b79a feb5 f2ba 4d1d 97ea 9a14     .j.u.......M....
  408738:	e9e7 7c6f fd35 bb32 b73a feb5 f2ba 4d1d     ..o|5.2.:......M
  408748:	97ea 9a14 e9e7 7c6f fd35 b232 17f6 2ef4     ......o|5.2.....
  408758:	c774 e072 6bf0 6bfb 31dd f9dc 64f7 b23b     t.r..k.k.1...d;.
  408768:	6b27 002c 0000 0000 0000 0000 0000 0000     'k,.............
	...
  408780:	0600 ffd6 4b00 e16b e9a3 da6a e9df 7c6d     .....Kk...j...m|
  408790:	7d34 b124 973b 4257 acf6 afd9 6ef4 f58e     4}$.;.WB.....n..
  4087a0:	2e2b d3e5 5e68 9bd5 fe35 d18d a5de dc65     +...h^..5.....e.
  4087b0:	5ca8 ee7f 74ae 7bcf 99cc efa7 f56e bca7     .\...t.{....n...
  4087c0:	1dfa b026 1ad5 6553 4e39 3a0f d7d5 b671     ..&...Se9N.:..q.
  4087d0:	1770 742e 66ba 1ddd 7355 f0a7 bd26 1dd3     p..t.f..Us..&...
  4087e0:	2ace dd65 3ea2 3d8a 8cdd cff4 fe1f 46fb     .*e..>.=.......F
  4087f0:	8def f7d4 195b 123e 33de 451b 9b9b 7da6     ....[.>..3.E...}
  408800:	bc0d 0383 1f6f b78f bb87 6af9 3d9e ee37     ....o......j.=7.
  408810:	bd76 f69a ed17 7d96 f3e8 9df6 f69a ed17     v......}........
  408820:	7b96 f3e8 aaf6 b1b8 cc7c bfcb dbed 651f     .{......|......e
  408830:	f8b1 947d 00ff b7db 5afa cd8e 0b7b cbf6     ..}......Z..{...
  408840:	f43d fb79 cd4e 0b7b cbf6 f43d fb79 5c55     =.y.N.{...=.y.U\
  408850:	cc3c bfcb dbed 631f fbf0 ff29 b700 f46f     <......c..)...o.
  408860:	1ab7 6a73 275b dad7 2c97 9ad2 1b77 dd9c     ..sj['...,..w...
  408870:	efcd cacd 8a68 cdac 1c8b a238 e36b 7fab     ....h.....8.k...
  408880:	1517 f632 93ea d9b0 36aa b3f7 f3ed 773c     ..2......6....<w
  408890:	2f33 bd55 2df6 15b2 d9b4 8c5d 11b7 bb4d     3/U..-....]...M.
  4088a0:	e93a af31 4c1f bcc2 fcda 0d97 6294 b5a8     :.1..L.......b..
  4088b0:	d787 a749 3e5e 3d3e 3d66 08c0 20da ddaa     ..I.^>>=f=... ..
  4088c0:	9d11 35be c927 af69 b452 2c8f 00ff c319     ...5'.i.R..,....
  4088d0:	6bfc e23f 8784 19d1 e3db 7c52 9a96 2bf5     .k?.......R|...+
  4088e0:	f248 f1cf 3f9c b3c6 28fe 995e 2747 eada     H....?...(^.G'..
  4088f0:	73c7 99d2 2517 ead9 7447 602f 360a cdbf     .s...%..Gt/`.6..
  408900:	372f fc5c 22f2 bbcd 5d68 b66f 662c bd8c     /7\.."..h]o.,f..
  408910:	2ca4 6e60 c3db 9b51 cec5 7299 149c cbf4     .,`n..Q....r....
  408920:	5b95 779a b970 837f 4c29 e56e ebf8 1b98     .[.wp...)Ln.....
  408930:	7ef1 9ade bbc6 f1fd 7fa3 cc2b e5ae 9ab8     .~........+.....
  408940:	1671 e174 bb46 71f7 8ac6 d8bd 6d47 a8bf     q.t.F..q....Gm..
  408950:	3ee4 6b93 3bed ed08 f5bb 871c 6dd2 abfd     .>.k.;.......m..
  408960:	2442 7a3e f9e3 eca9 ba9f f857 9a87 5373     B$>z......W...sS
  408970:	3fd9 5e75 23ec efb6 72d4 491f f6b7 849d     .?u^.#...r.I....
  408980:	db76 8efa e943 fe36 a1d5 3d0f 0e73 7b6a     v...C.6....=s.j{
  408990:	ee27 217e 9ce6 f6d4 dd4f ec0c 675b 441b     '.~!....O...[g.D
  4089a0:	3ed9 c5bf 2d6a 6351 b52c ce96 1d1b 266e     .>..j-Qc,.....n&
  4089b0:	b49b 2e63 4575 db75 8e98 3f0d ae16 cf34     ..c.uEu....?..4.
  4089c0:	00ff 81d9 ccc1 2bb3 85b9 1bdf 4d77 d374     .......+....wMt.
  4089d0:	1889 f3cd f97b ffad 1f00 4d7b 8874 f7e2     ....{.....{Mt...
  4089e0:	3900 bdb1 8dca 75ea beb5 bbdd f24a e3dc     .9.....u....J...
  4089f0:	6aeb 5879 bd7a f6ad daec 9657 3fe7 535b     .jyXz.....W..?[S
  408a00:	42ca c1fd da7e 888e 7aee 2e7b adfd acbe     .B..~....z{.....
  408a10:	4377 3600 805b fa00 fd5a 9f3d 6f8d 4bfc     wC.6[...Z.=..o.K
  408a20:	a7bd 88bd 6f69 c925 5e3d 2185 fab5 3f7b     ....io%.=^.!..{?
  408a30:	df1a 97f8 4f7b 107b ded2 924b bd7a 0e08     ....{O{...K.z...
  408a40:	fedd ae95 fa99 1f2b 5f09 63a3 7ea6 708e     ......+.._.c.~.p
  408a50:	dd0a 2151 8aae 61af 177a 73ca a95f 5da1     ..Q!...az..s_..]
  408a60:	8b7b d115 ec55 422f 4ef9 f56b 2b34 71af     {...U./B.Nk.4+.q
  408a70:	6c71 2597 d3d1 f23d 76bf 911b f4ad 7ccf     ql.%..=..v.....|
  408a80:	02b0 9748 0000 0700 0376 00bb f4ec b3c7     ..H.....v.......
  408a90:	2f3d 19e5 d757 bb50 45aa 3da6 e999 287f     =/..W.P..E.=...(
  408aa0:	beca 85ba 57dd 773b edf9 4f74 53d1 4b78     .....W;w..tO.SxK
  408ab0:	f6fc 2a3a 00fa f52b af5a 157d c9be 0ff4     ..:*..+.Z.}.....
  408ac0:	6393 bebe a450 897d a2af d9b7 813e 6cf2     .c..P.}.....>..l
  408ad0:	d777 14ca b18f ec75 26d7 e85a cbfa 1bd1     w.....u..&Z.....
  408ae0:	c823 7ad6 be27 3b58 1db0 76d8 36d2 7fc9     #..z'.X;...v.6..
  408af0:	67a1 76b6 fea9 cc8f 773d 8804 ff12 4200     .g.v....=w.....B
  408b00:	6ccf 53ed 1ffd 7a98 09ee cfc9 3ab9 44ef     .l.S...z.....:.D
  408b10:	5bb8 c94d fa37 b1b2 28e0 9cf7 2b45 bdd7     .[M.7....(..E+..
  408b20:	75b3 96df 1fea b859 8aba af57 667b bfeb     .u....Y...W.{f..
  408b30:	d42d b33e 3f71 4fd8 bbd4 1fd1 a155 d7e0     -.>.q?.O....U...
  408b40:	6ff5 4774 d1d5 b180 d8d6 6077 b03b 610b     .otG......w`;..a
  408b50:	f9d0 0bda fc49 ff7c d600 486b d91d fd47     ....I.|...kH..G.
  408b60:	9d0f b4a0 c79f fdcf b466 dd81 1b95 f29d     ........f.......
  408b70:	ee85 f7b4 ddbc 5cb4 7fab 57ad 8f7c b61b     .......\...W|...
  408b80:	d0ce 479b 2cf9 d7b7 ef30 f164 6cbb 09ed     ...G.,..0.d..l..
  408b90:	7fb4 cb92 737d f90e 5fe5 b5be 8ed6 7cf8     ....}s..._.....|
  408ba0:	4e72 b151 a7d6 15be 790a e767 9961 9fe5     rNQ......yg.a...
  408bb0:	859d f4ec 00b8 7100 80f7 0000 80f9 0000     .......q........
	...
  408bc8:	0000 0600 cedd b565 2fd8 79f2 d7d9 d4c5     ......e../.y....
  408bd8:	e67f b578 ee4a 2d73 c1ae 937f cece 2ebe     ..x.J.s-........
  408be8:	ffa3 3300 a1c5 6ffb f4c9 a3f5 a4ba c207     ...3...o........
  408bf8:	2537 d7d3 ea8e e49e 5205 80a4 0000 0000     7%.......R......
  408c08:	0500 e876 f6ab a273 8ebc 663d c4fa b7ab     ..v...s...=f....
  408c18:	5f45 9db3 e415 eb71 d237 8e9d 28e5 94e8     E_....q.7....(..
  408c28:	60db 5e79 899e 5443 9a7e c3df d247 baba     .`y^..CT~...G...
  408c38:	b513 cd66 a33f 7774 59a9 aa52 4d3f e16f     ..f.?.tw.YR.?Mo.
  408c48:	e9a3 5d5d da09 66b3 d19f 3bba acd4 bba4     ..]]...f...;....
  408c58:	fb75 7d6b 443f c2b7 ec4f 75ed 8ebe 05e4     u.k}?D..O..u....
  408c68:	a762 1f11 2745 2d6b e533 eab1 55d7 56b2     b...E'k-3....U.V
  408c78:	a24f b593 9996 d8f2 6bf5 d9aa 872b 7964     O........k..+.dy
  408c88:	9f32 7a8f d8fb 475e a6a3 d87b 2501 194c     2..z..^G..{..%L.
  408c98:	00ff e797 7d7b f685 d9fc 00ff 66ca ab5e     ....{}.......f^.
  408ca8:	e279 e53f def9 61df bf7d 7f36 99f2 aa97     y.?....a}.6.....
  408cb8:	68de 7fe6 bbb3 abd5 5cba e3dc ef93 6a75     .h.......\....uj
  408cc8:	95ee 01b8 bc43 77cc 5b95 2fa2 ceb7 e2a3     ....C..w.[./....
  408cd8:	6bfe 7a4d a595 efa9 b72a 5f44 9d6f f247     .kMz....*.D_o.G.
  408ce8:	6f5a add4 5b26 fb13 bafa dfb3 ff09 8300     Zo..&[..........
  408cf8:	53ae abab f03d 008e 8b5a 23b1 3af4 f876     .S..=...Z..#.:v.
  408d08:	9fd3 a925 4abd d5ea 2777 55e6 875e df4e     ..%..J..w'.U^.N.
  408d18:	731a b5e4 a937 5a5d e4ae cafc 6daf 7fbf     .s..7.]Z.....m..
  408d28:	564f e53b 784a e545 7a3a dfb1 0053 aa21     OV;.JxE.:z..S.!.
  408d38:	e2fd 1635 76d4 a051 2eb5 a565 0e35 3737     ..5..vQ...e.5.77
  408d48:	9cb5 e661 35dd 36c5 fd66 1c9e 15d1 55f1     ..a..5.6f......U
  408d58:	8fbf a88a b974 d8c6 29f6 6999 fbfc c22c     ....t....).i..,.
  408d68:	19e6 e2ec d8ae e8cc 7da7 a689 9f8e cd72     .........}....r.
  408d78:	d354 77be 71f1 21cc ba9d ed71 5ff3 a6fc     T..w.q.!..q.._..
  408d88:	ea5d 5eb6 7c27 63f0 378a 3c2d c906 6ee0     ]..^'|.c.7-<...n
  408d98:	b758 757a 62d6 7f27 4da7 9779 574e 19b1     X.zu.b'..My.NW..
  408da8:	dc6d ab35 c2f3 4ce1 3b53 7ce3 4fc4 1733     m.5....LS;.|.O3.
  408db8:	2a26 76bb e4a8 af99 7b9b 4c50 10d6 0000     &*.v.....{PL....
  408dc8:	0000 0000 d7da ece9 6bfc 4b7f d656 4fbf     .........k.KV..O
  408dd8:	e367 fa5b 9d58 4ecc e0e5 ded3 34c4 92b7     g.[.X..N.....4..
  408de8:	9ee4 43af e09c efe9 1a62 c95b 4f72 a157     ...C....b.[.rOW.
  408df8:	50ce 8f38 abd5 5ea6 c55e b57e 327d 9e21     .P8....^^.~.}2!.
  408e08:	9f8a 7a61 ca1b 5f73 a1a9 2133 8a9e 619f     ..az..s_..3!...a
  408e18:	1b7a 73ca a95f d7a1 9ed9 b754 eef1 7b97     z..s_.....T....{
  408e28:	b963 cf66 bac7 d455 d005 20f4 2400 870e     c.f...U.... .$..
  408e38:	e5bf a10b 2ebe ffab 2c00 2dc5 a782 3df4     .........,.-...=
  408e48:	00ff 5d28 f10d 6775 66f9 6c29 6e15 7edc     ..(]..ug.f)l.n.~
  408e58:	8efa 77ac a5d4 23bc 95f2 481d a8ef 0b01     ...w...#...H....
  408e68:	b057 fba8 ed74 b4f9 940f 7dcb cb56 4fc4     W...t......}V..O
  408e78:	db23 d3ed e6b7 3ed0 2d53 5bf5 112f 8b3c     #......>S-.[/.<.
  408e88:	2be3 9dfd adae d03d cef4 c94f 7af6 f7b4     .+....=...O..z..
  408e98:	0043 9d37 6326 59ec 853e d6be 9b5a 67cb     C.7.&c.Y>...Z..g
  408ea8:	add5 642b f372 9f2c df42 2d6b e54d eab3     ..+dr.,.B.k-M...
  408eb8:	91d6 ae9d cae4 63ba 0fbd aedb af47 3ba6     .......c....G..;
  408ec8:	e0d2 7d0a 3a42 5bcd ffda 5d00 0e79 f5a6     ...}B:.[...]y...
  408ed8:	8a4b 734d b7f4 1abe 99fe 9d5d da5b 00ff     K.Ms......].[...
  408ee8:	795d a60e 4bf5 4d8a f473 beb7 fe1a 5999     ]y...K.Ms......Y
  408ef8:	0b7b 17fa 633a 70b9 3578 b5fd 98ee 7cee     {...:c.px5.....|
  408f08:	b2fb d91d b513 0096 0000 0000 0000 0000     ................
	...
  408f24:	0300 7f6b b5a5 d1f0 b5f4 6f6d b6f4 1abe     ..k.......mo....
  408f34:	923e 9d58 abcb 7ba1 6c56 fad7 4737 957a     >.X....{Vl..7Gz.
  408f44:	7297 b4e9 6a2f 9acd 00ff e846 52ef eeb2     .r../j....F..R..
  408f54:	2e54 fb61 9dab de33 26f3 fb69 bddb ef69     T.a...3..&i...i.
  408f64:	1f11 2745 2d6b e533 eab1 52d7 23e2 a4e8     ..E'k-3....R.#..
  408f74:	65ed 7ca6 3db6 eb5a b3a3 a75c a76b 2ee9     .e.|.=Z...\.k...
  408f84:	c8be c572 9f9e aba4 0b58 e8a5 0050 8d7b     ..r.....X...P.{.
  408f94:	7685 d0fc 1f3f f531 ab5b a870 09fb f9ed     .v..?.1.[.p.....
  408fa4:	7ea0 633e d7ea e156 ed57 efcf ea28 65fd     .~>c..V.W...(..e
  408fb4:	784c e547 7d0b ef58 01a8 5709 ad6a 19d1     LxG..}X....Wj...
  408fc4:	e3db 7c52 9a96 2bf5 f248 f1cf 3f9c b3c6     ..R|...+H....?..
  408fd4:	28fe 7d48 7d11 35be c927 af69 b452 2c8f     .(H}.}.5'.i.R..,
  408fe4:	00ff c319 6bfc e23f e985 7294 ae7d 77ac     .....k?....r}..w
  408ff4:	293d 7291 9e5d 77a4 f642 a300 896b 4be1     =).r]..wB...k..K
  409004:	d7cd 7822 7c52 f308 fb6b cd42 1f36 d288     .."xR|..k.B.6...
  409014:	32f6 83dc ce2f 17a3 654e f454 aeca aa59     .2../...NeT...Y.
  409024:	b52a 1155 bcf9 ff1e 0d00 a021 8a4e e1e8     *.U.......!.N...
  409034:	1b66 e535 06fe f7a1 00ff b2e2 6cee 16de     f.5..........l..
  409044:	2bd6 a230 e8dd 99d6 8bd7 29e1 c91e ace0     .+0........)....
  409054:	3363 764b d36f a6c2 d675 223a 1c66 f67f     c3Kvo...u.:"f...
  409064:	d581 201e 3ee4 f776 7fda 16b4 f1a8 2107     ... .>v........!
  409074:	b7f3 d4be c12b c1af ccd7 6b70 75f0 cfac     ....+.....pk.u..
  409084:	f236 65bf b31d 5cf7 693e de64 3bc6 ee67     6..e...\>id..;g.
  409094:	bf9a 0bda 7854 9083 dbf9 69df d0fe a35a     ....Tx.....i..Z.
  4090a4:	1cc4 ce87 fbde af50 bf06 5907 afc1 d6c1     ......P....Y....
  4090b4:	b779 fb95 ed28 b99f 96e6 ec4d b663 e97e     y...(.....M.c.~.
  4090c4:	fda7 75a0 8847 0739 bd9d 9ff6 03ed 3caa     ...uG.9........<
  4090d4:	c841 ed7c b5ef 700b f06b 9c75 fc1a 671d     A.|....pk.u....g
  4090e4:	799b b25f d98e 9efb 6469 c6de 673b 9aee     .y_.....id..;g..
  4090f4:	dabf 540b 8378 f990 dfdb 1f6b 05ed 7caa     ...Tx.....k....|
  409104:	c842 ed7c b5ef cc0a 4f55 d314 3c31 7ccc     B.|.....UO..1<.|
  409114:	f9cc 96b7 287b fdf9 8dd9 c992 8cbd cf76     ....{(........v.
  409124:	dadd 8cea fede d5ba 83ba 6256 f6b0 97b0     ..........Vb....
  409134:	57f1 b7b1 8a66 d777 2e6a ae5d 9a6a 9969     .W..f.w.j.].j.i.
  409144:	98e3 75e3 737c 3c31 cc90 c671 8fe8 ffce     ...u|s1<..q.....
  409154:	b100 63ba c4bb 51ed 3445 1453 bad3 1b12     ...c...QE4S.....
  409164:	5374 3145 314d 47a4 3414 6206 9e2a 664a     tSE1M1.G.4.b*.Jf
  409174:	bd7f e997 9e81 cf0d 5f07 c131 e0b9 e6eb     ........._1.....
  409184:	3535 6b6f f6f4 357e f1bf f62e f69e a521     55ok..~5......!.
  409194:	97bc f524 147a d58a f435 1ffb 5f99 adf0     ..$.z...5...._..
  4091a4:	3ff7 5dea 3ddd 43ec 794b 492e f4ea 3b20     .?.].=.CKy.I.. ;
  4091b4:	fa77 ba56 e867 7cac 7e25 8e8d fa99 c039     w.V.g..|%~....9.
  4091c4:	752b 8644 2aba 85bd 5fe8 cd29 a67e 7585     +uD..*..._).~..u
  4091d4:	2cee 4557 554c 8c56 d1d0 334d f554 6b46     .,WELUV...M3T.Fk
  4091e4:	ffef 3300 bb42 6b70 00ff ae92 c365 5cb2     ...3B.pk....e..\
  4091f4:	4797 f74c fcca 6ed8 b746 3dd3 d4f2 8367     .GL....nF..=..g.
  409204:	c173 ccd7 6e70 3a78 92f9 525d 58fd 0000     s...pnx:..]R.X..
  409214:	2266 b7aa 69f0 afaa 06ef ec0e c133 e0b9     f"...i......3...
  409224:	e6eb 8367 7c73 bb7f 98af d5d4 e9d8 668f     ..g.s|.........f
  409234:	5f7a 32ca aeaf 77a1 8f54 534c 5e5f 5e7a     z_.2...wT.LS_^z^
  409244:	1578 ea6e ab8c dcb9 d4e9 e22e dbb9 cfaf     x.n.............
  409254:	a26b 8a7e c29b e75f d1b1 d057 5f01 d5aa     k.~..._...W.._..
  409264:	e87b f6ad a04f 9b7c f51d 85f2 ec23 9d4d     {...O.|.....#.M.
  409274:	9115 5a55 419f 6970 afaa 36fc df3b 7efe     ..UZ.Api...6;..~
  409284:	a450 5f53 95fc 3bf7 ab8b b966 d732 d647     P.S_...;..f.2.G.
  409294:	875e 1ed9 b347 3dd1 d4f2 c3ee 1b3c 0e9e     ^...G..=....<...
  4092a4:	63be 5c83 cd71 4415 1b7c dca1 24d5 94d5     .c.\q..D|....$..
  4092b4:	d0bf dbb3 543b 00ff e647 bb1e 4482 7f09     ....;T..G....D..
  4092c4:	67a1 76b6 fea9 cc8f 777d e404 bce7 779d     .g.v....}w.....w
  4092d4:	5ca2 a63d abe4 59fd f058 7e14 f392 9286     .\=....YX..~....
  4092e4:	5e29 edbd ae9b b7fc fa50 c5cd 52d4 7bcd     )^......P....R.{
  4092f4:	734d cdb4 3177 5345 5b1d 3ba8 5f9c 6ec6     Ms..w1ES.[.;._.n
  409304:	db27 fa0b 7a97 ea23 3cb4 fe1a eead fa88     '....z#..<......
  409314:	21ba 0d9e 07cf 315f b9c1 ebe0 59e6 ad1a     .!...._1.....Y..
  409324:	58bd b03b 06cf 83e7 99af 0d9e f1cd eefe     .X;.............
  409334:	63be 5553 e8ae ed7c a405 3efe eb7f a435     .cSU..|....>..5.
  409344:	ec0e 07bc e443 3b4d d203 3191 3c31 fb3c     ....C.M;...11<<.
  409354:	9fde 35e3 ffbd 7600 6e54 ca77 ba17 ded3     ...5...vTnw.....
  409364:	76f3 72d1 fead 5db5 3cf2 db6e 423b 1f6d     .v.r...].<n.;Bm.
  409374:	b2e4 5cdf bdc3 c693 b3ed 2eb4 bed1 2d4b     ...\..........K-
  409384:	ccf5 f13b 4495 75f9 b4ae c377 92e5 ff44     ..;..D.u..w...D.
  409394:	9100 d6b1 bea7 0a15 6779 61e7 e599 9d9f     ........yg.a....
  4093a4:	ea85 b0f4 3900 3b18 6374 0c33 0e1e a6ba     .....9.;tc3.....
  4093b4:	2b9a 0daf f84e 16fe aaea 9d88 ebdc d81b     .+..N...........
  4093c4:	6617 325e eeea 76e7 47c4 55f8 2ad7 39dd     .f^2...v.G.U.*.9
  4093d4:	53e6 e9de 1fb8 d2f1 a8bc d75e 5866 14ac     .S........^.fX..
  4093e4:	f1db 4d15 eb3a c9af 6d5e 71de cb8c cca6     ...M:...^m.q....
  4093f4:	ab61 789a eb5a d1f0 f611 d904 8c8f b3da     a..xZ...........
  409404:	00ff fb97 6087 984d cdf8 7fab 7ff9 97b8     .....`M.........
  409414:	2b04 5cce dacf cbcf afec ef7c 3dce fcb4     .+.\......|..=..
  409424:	cabe b6a7 159d 6c90 3953 19d3 9d76 73cc     .......lS9..v..s
  409434:	c73c 880f 89b5 a9ae c0bd 91e9 9b76 4cb3     <...........v..L
  409444:	3c45 8e18 23e4 9de8 55fc 4271 e86a 89ac     E<...#...UqBj...
  409454:	4f9d aaa0 75ee 3b36 a79f 15ca f68e dee8     .O...u6;........
  409464:	32b5 453c 46cc dd02 93db 53ad 731c 95f1     .2<E.F.....S.s..
  409474:	b3d3 ab78 bcb8 d5b2 d3eb 53ad ac13 65fc     ..x........S...e
  409484:	0ea0 b8ab 0000 0000 0000 0000 0000 0000     ................
  409494:	b9db b6cc 05bb 4ffe 3a3b baf8 fc8f 16cf     .......O;:......
  4094a4:	5da9 65ce d8b5 f22f d979 c5d7 7fd4 78e6     .].e../.y......x
  4094b4:	3fb4 f96d 9e3e 77b4 8054 46f8 bae4 f17a     .?m.>..wT..F..z.
  4094c4:	53dd 80dc 54aa 0190 b3a4 a3a4 b0cd 0b6d     .S...T........m.
  4094d4:	d835 2376 d84b 74cb 5ffe 469e 9c2e 67ca     5.v#K..t._.F...g
  4094e4:	55a6 8a5d aaa9 54d5 ea46 3c78 f8bb cc73     .U]....TF.x<..s.
  4094f4:	14f0 40f4 696a c2dd 79d0 3f0d 5ed6 5ffb     ...@ji...y.?.^._
  409504:	8a7e fdfd b35d 8859 00ff 5083 00ff ca8e     ~...].Y....P....
  409514:	8a0e 986a d18d c5c7 2df6 873c c023 3262     ..j......-<.#.b2
  409524:	77fb db6e a9d6 59d7 e7e3 7a9f d9e8 9b9d     .wn....Y...z....
  409534:	71cb 5d79 d7ab 44ad 3ad5 3ceb f37c eb1c     .qy]...D.:.<|...
  409544:	a3ab 7b33 f3da e941 619d c388 c159 c5de     ..3{..A..a..Y...
  409554:	e15a 14cd aeef 4fcc aa0e 5377 c733 c13f     Z......O..wS3.?.
  409564:	ef76 b229 e018 43ec f466 b0f7 7dd4 6f6d     v.)....Cf....}mo
  409574:	dc59 1857 54fb c4db a2dc d19d 1133 a9da     Y.W..T......3...
  409584:	3bb3 da34 5dc6 44b7 1169 e954 13d1 002c     .;4..].Di.T...,.
  409594:	73d3 76c5 abe8 73f6 bca2 3d8e fa66 abc4     .s.v...s...=f...
  4095a4:	45b7 b35f 159d 71e4 57eb 9dd2 e58e e828     .E_....q.W....(.
  4095b4:	db94 7960 9e5e 4389 7e54 df9a 47c3 bad2     ..`y^..CT~...G..
  4095c4:	13ba 66b5 3fcd 74a3 a977 5259 37aa ebf4     ...f.?.tw.YR.7..
  4095d4:	537c 47cb bad2 13ba 66b5 3fcd 74a3 a977     |S.G.....f.?.tw.
  4095e4:	4959 e7b6 d6f6 7efa 7789 9884 00ff 6b87     YI.....~.w.....k
  4095f4:	f4ad 2077 052b a237 e823 eda4 a665 b67c     ..w +.7.#...e.|.
  409604:	5a3d b6ea c94a 51f4 55c5 cf6c c54c 3531     =Z..J..Q.Ul.L.15
  409614:	564f bfc7 c53f abae d36c fc5f f395 0d2e     OV..?...l._.....
  409624:	e491 7eca eb3d 61eb 1e79 998e 6aef c133     ...~=..ay....j3.
  409634:	e0b9 e6eb 3738 1d3c c97c a936 a78e bffc     ....87<.|.6.....
  409644:	db3b 2fec e6b7 fecf 3253 5bf5 15cf b9c1     ;../....S2.[....
  409654:	9fba afcc dcbb 6d7b d385 6d5c 67ef 34f3     ......{m..\m.g.4
  409664:	1155 33d3 e62e fee8 792b 99a3 cefe 56ef     U..3....+y.....V
  409674:	a57b cecd ff27 5f00 ab7b 7457 b8ad 1d0a     {...'.._{.Wt....
  409684:	6fe6 de49 6e55 be88 3adf e48f dfb4 5aa9     .oI.Un...:.....Z
  409694:	9e5a abf2 4574 f9f6 7fd4 a625 4afd 65d2     Z...tE....%..J.e
  4096a4:	31b1 00ff ae3e f7ac c0c2 75f0 fe13 ae4e     .1..>......u..N.
  4096b4:	f7ac 38c2 6a01 b42e d08f dbe9 4ee3 967c     ...8.j.......N|.
  4096c4:	f5a6 ab2b dc55 999f 7a55 3b1d 697c 92cf     ..+.U...Uz.;|i..
  4096d4:	ded4 75a5 bb6a f393 bd2a fdb6 3dfd ef58     ...uj...*....=X.
  4096e4:	2995 17e1 e994 c7ea 4c7d 8600 f8ab 7d54     .)......}L....T}
  4096f4:	76ba dafc ca07 be65 65ab 27e2 ed91 e9f6     .v....e..e.'....
  409704:	f3db 1f68 9629 adfa 8897 499e 195f ec67     ..h.)......I_.g.
  409714:	75ed ee69 a687 7e72 b34f a7d5 18ba bc01     .ui...r~O.......
  409724:	00e9 0000 0000 1133 5c55 d354 cf54 c139     ......3.U\T.T.9.
  409734:	e0b9 e6eb 1b06 fd5a 9f3d 6f8d 63e9 7383     ......Z.=..o.c.s
  409744:	d7c1 decc 37d5 7d3a f79f ff75 0a00 73df     .....7:}..u....s
  409754:	62df 8967 9e89 de25 ded3 34c4 92b7 9ee4     .bg...%....4....
  409764:	43af e09c efe9 3a62 c95b 4f72 a157 50ce     .C....b:[.rOW..P
  409774:	8f38 abd5 5ea6 c55e b57e 327d 9e21 9f8a     8....^^.~.}2!...
  409784:	7a61 ca1b 5f73 a1a9 2133 8aae aa88 19ad     az..s_..3!......
  409794:	a2a1 669a eaa9 d79c fedf 8766 665f 5279     ...f......f._fyR
  4097a4:	c7df 5dba 8eed 9be5 1e3f 57e9 9e41 cf0d     ...]....?..WA...
  4097b4:	5f07 c131 e0b9 e6eb 1a5d 09bd 03ab 1b3c     ._1.....].....<.
  4097c4:	0e9e 66be 2001 3d74 00ff 5d28 f10d 6775     ...f. t=..(]..ug
  4097d4:	66f9 6c29 3f15 efa1 42f9 6fe8 aa8b 00ff     .f)l.?...B.o....
  4097e4:	31cb 604b 76ab 3fe2 51e7 8ed5 94fa 84bf     .1K`.v.?.Q......
  4097f4:	9f68 34f2 2375 a0be 2d04 7a5e 1f55 9d6e     h..4u#...-^zU.n.
  409804:	36bf f281 6f99 d9aa 8978 7be4 ba8d 5c53     .6...o..x..{..S\
  409814:	efed 1368 5514 d331 de32 f8e6 2bfe e265     ..h..U1.2....+e.
  409824:	9b66 bf9b 5f81 f832 3fcb 6b67 4fab 3d74     f...._2..?gk.Ot=
  409834:	9333 fecf cfbe 9e56 68e8 c133 e0b9 e6eb     3.....V..h3.....
  409844:	3738 1d3c cd7c 5ded 482d e6e5 3e59 be85     87<.|..]-H..Y>..
  409854:	5ad6 cb9b d567 2bad 066f ffbd c000 b9af     .Z..g..+o.......
  409864:	59dc 852e aac8 999d 68ea 26aa ea99 f7d9     .Y.......h.&....
  409874:	f8a7 a4b5 6b67 32b9 98ae 43ef ebb6 eb91     ....gk.2...C....
  409884:	8ee9 b8f4 9f02 ae50 56b3 bff6 5ed7 a943     ......P..V...^C.
  409894:	52bd 93e2 fd5c ef2d bf86 57a6 5667 bff6     .R..\.-....WgV..
  4098a4:	5ed7 a943 52bd 93e2 fd5c ef2d bf86 56a6     .^C..R..\.-....V
  4098b4:	c25e 85fe 98ce 5cee 0d1e 6d7f a67b 9f3b     ^......\...m{.;.
  4098c4:	ec3e f381 6b27 002c 0000 0000 0000 0000     >...'k,.........
	...
  4098e0:	0600 ffd6 4b00 e16b e9a3 da6a 2b8e e696     .....Kk...j..+..
  4098f0:	3779 f4d1 4a8c e8ea d55e 359b ffe2 f800     y7...J..^..5....
  409900:	1ddd 56ea cb5d 68ca ff8c 4200 d9d8 ce96     ...V]..h...B....
  409910:	f7f0 a6f5 b193 8c7e 49bf 55d3 6235 f6b0     ......~..I.U5b..
  409920:	1471 a3df 6a07 a89a 89ae 7dab 4435 c6c4     q....j.....}5D..
  409930:	efe9 8e3b b4b8 8f07 375a f0d2 79df e346     ..;.....Z7...yF.
  409940:	97b0 c4aa 98dc 77a6 a3cf f3de 6576 c482     .......w....ve..
  409950:	8cd5 31bb fe44 f469 3b4f 44b3 147d bb7b     ...1D.i.O;.D}.{.
  409960:	e919 ff9d ae00 abc7 495d 711d ff6c 9300     ........]I.ql...
  409970:	adaf e91b 6f78 8abc 25fa 5d73 9e2b f36c     ....xo...%s]+.l.
  409980:	e14c 7d32 9147 f866 c698 a670 379b e6ad     L.2}G.f...p..7..
  409990:	fa37 535f 8ddd 53f5 5345 4e31 e5f9 ddf7     7._S...SES1N....
  4099a0:	9d0d 5ec3 32a3 35b7 3b53 bdf9 ebd2 a66c     ...^.2.5S;....l.
  4099b0:	fd12 bd19 aa9a 62a2 e635 699e 7057 1217     .......b5..iWp..
  4099c0:	00fc b907 5fd8 cd6f 3c01 9f9f fa98 d5ad     ....._o..<......
  4099d0:	54b7 8b4d 3262 affc 5a6e 3013 b1cc 5cb8     .TM.b2..nZ.0...\
  4099e0:	03bb cc4d 0a7f 95bb 8453 44c2 1ace 47ec     ..M.....S..D...G
  4099f0:	ba0a 44b7 be77 a775 8beb f167 aecb 64b4     ...Dw.u...g....d
  409a00:	6b7f 7dc3 6be5 b6b6 5c2e d1c5 4434 facf     .k.}.k...\..4D..
  409a10:	7bf3 4fe5 42f8 5ec3 8fbd 34b7 3353 befe     .{.O.B.^...4S3..
  409a20:	f788 edd4 5707 16d7 f180 47eb 5e7a ef1b     .....W.....Gz^..
  409a30:	701d 0fe8 b41e a577 bee1 19f2 77e4 49fd     .p....w......w.I
  409a40:	94ec c803 3e31 7bce 5a25 22fa 7cfb 396a     ....1>.{%Z.".|j9
  409a50:	00ff d3d2 a77e 1c69 cdc4 4535 f154 1c55     ....~.i...5ET.U.
  409a60:	771e dbbf 2bf6 cd2e e5f6 f1a8 5e99 8261     .w...+.......^a.
  409a70:	b0cc 6b33 c44e 6a57 71ba 5998 9cae a825     ..3kN.Wj.q.Y..%.
  409a80:	22aa 37ba eec4 9898 91f9 00ff 7e76 db65     .".7........v~e.
  409a90:	4494 06c6 4fd4 1dab 45cf 7464 39cd 886d     .D...O...Edt.9m.
  409aa0:	569f a13b e3ea 7b68 896b db8d d54a 7fb5     .V;...h{k...J...
  409ab0:	735f 7bed 879d 0d6b eba5 b21d 39e4 a526     _s.{..k......9&.
  409ac0:	dad6 3a87 aaca 9fb7 da4c 76b9 46bc 6b16     ...:....L..v.F.k
  409ad0:	0ba3 aa72 6866 dd99 a63b 9f98 0e99 7272     ..r.fh..;.....rr
  409ae0:	7271 0d24 6281 acf2 6d97 7bfa 9b1b 38e6     qr$..b...m.{...8
  409af0:	ab2c 1607 0cb5 cb74 d3b5 c282 cac5 97b0     ,.....t.........
  409b00:	2262 af6b 4674 98f9 9d8f 9aaf ece0 1d79     b"k.tF........y.
  409b10:	0dde af11 7706 7344 7335 bfbc fe0f f43e     .....wDs5s....>.
  409b20:	6ed1 e035 9ace 6b44 77ba 2d71 ad73 72ce     .n5...Dk.wq-s..r
  409b30:	1b2d abac d7c2 74aa 4dce d79f 2e6a 13c5     -......t.M..j...
  409b40:	dc7a e662 d52d 66ba df29 bfc9 0c83 c575     z.b.-..f).....u.
  409b50:	f8b3 d7e5 3b7a f0d2 79df b88e 7fb6 9a3c     ....z;...y....<.
  409b60:	46eb f6cf 37bc 53de 58d4 5ac5 85ab 3345     .F...7.S.X.Z..E3
  409b70:	ee13 42d5 c35a 6ce3 c3d5 4db7 3c51 13f1     ...BZ..l...MQ<..
  409b80:	170e db58 f71f d236 621e d8df 8d75 ffb1     ..X...6..b..u...
  409b90:	7300 217d 2de6 8efd 5c77 3f5b e7f1 7a47     .s}!.-..w\[?..Gz
  409ba0:	1b66 1def 6c71 00ff 9dc7 e91d 6f98 d8bc     f...ql.......o..
  409bb0:	b9f1 3d97 367f 8fdf 3dce ff6a 9300 d683     ...=.6...=j.....
  409bc0:	c736 cdfd 87f4 b798 1df6 6c63 dc7f 48df     6.........cl...H
  409bd0:	8b79 637f d79d cf16 79fc ded1 8699 c7fb     y..c.....y......
  409be0:	5b5c f13f 47e7 667a ef1b 371e e732 e6af     \[?..Gzf...72...
  409bf0:	fc78 d6e3 f9af 3d38 6c63 dc7f 48df 8b79     x.....8=cl...Hy.
  409c00:	617f 36d6 fdc7 b4cd 9887 f6b7 dd39 6c71     .a.6........9.ql
  409c10:	00ff 9dc7 e91d 6f98 75bc b3c5 00ff b41e     .......o.u......
  409c20:	a677 be61 e3f1 2e73 fe7a 8f67 3dce ff6a     w.a...s.z.g..=j.
  409c30:	9200 f4bd e448 5bfa 6b47 275d d285 0ed9     ....H..[Gk]'....
  409c40:	9059 eee1 3861 d355 8a66 9670 bf2a 17d5     Y...a8U.f.p.*...
  409c50:	e1a9 1155 56cb 69ea 998f 4414 5345 39ba     ..U..V.i...DES.9
  409c60:	d279 44ef 61d6 6a90 6d0d 2ea4 59e4 55ce     y..D.a.j.m...Y.U
  409c70:	d19c 0f4e 5575 bb58 6546 2e62 4d75 e0e9     ..N.uUX.Feb.uM..
  409c80:	55d5 4c15 5b45 38a6 f4bd be45 9d29 f6f1     .U.LE[.8..E.)...
  409c90:	dc4a e6c8 c0b9 9b5b eb9a a7a7 a57f 6c7a     J.....[.......zl
  409ca0:	57dd ca2a 4ded 78dd 715a bfeb d4d2 5507     .W*..M.xZq.....U
  409cb0:	6ddb 1431 1fcf 322f e857 c96e b6b4 d6b1     .m1.../2W.n.....
  409cc0:	b3ba aa0b 1c72 3eb3 dbc3 70c2 a6a8 14f5     ....r..>...p....
  409cd0:	ece2 7f53 2caa c2d3 27a6 ad92 55d5 3a1f     ..S..,...'...U.:
  409ce0:	df28 4e15 fbf9 2e65 32f4 19e6 9f06 dad6     (..N..e..2......
  409cf0:	eebe 9c7b 59e5 1535 f760 5553 b4fb b665     ..{..Y5.`.SU..e.
  409d00:	e726 d954 0d9e 5735 4454 bad5 8b27 72de     &.T...5WTD..'..r
  409d10:	c9b3 30ae 2617 bade e8e9 e8df 3671 ab92     ...0.&......q6..
  409d20:	e594 6677 bcd6 382d dfb4 4ee8 631d 7f6c     ..wf..-8...N.cl.
  409d30:	dfdc 7948 7f8b d661 c736 cdfd 87b4 b798     ..Hy..a.6.......
  409d40:	39f6 71dd ff6c c700 1dad 98e9 bc6f c575     .9.ql.......o.u.
  409d50:	ffb3 1e00 7774 61a6 f2be f1a3 97b9 7f3d     ....tw.a......=.
  409d60:	1735 f3e3 5a8f e4bf d3e0 b6a1 6e41 5478     5....Z......AnxT
  409d70:	e3ec 5148 bd57 dd62 f433 fb3b 5954 58c3     ..HQW.b.3.;.TY.X
  409d80:	86b3 dbc3 cea2 8a1e d36d 314d b6f9 cde2     ........m.M1....
  409d90:	1131 444c 3877 d7a1 c375 3ca0 d179 97fe     1.LDw8..u..<y...
  409da0:	fb86 5cc7 035a adc7 e91b 6978 00ff e353     ...\Z.....xi..S.
  409db0:	9c7a ef6d e1d4 4e4f f8b2 a35f c431 e369     z.m...ON.._.1.i.
  409dc0:	aa62 e7b4 5dd6 ea98 e2fa 1ed0 683d 4bef     b....]......=h.K
  409dd0:	7dc3 aee3 012d d6e3 f48e 37bc 7cde 8e7c     .}..-......7.||.
  409de0:	00ff 3da9 d692 0cf2 b34f c99e b37d 9f7c     ...=....O...}.|.
  409df0:	ea4b 18fb 2e7c c8a8 cc72 0ff7 6b6e 299a     K...|...r...nk.)
  409e00:	44bb ed62 c9c5 d38d 1231 faea d8c6 fef6     .Db.....1.......
  409e10:	9b2d 0869 a2fe d8df f5e7 b3c5 1eef 74b4     -.i............t
  409e20:	00ff c36b e67d e23a f7d9 7a8f 3f36 e1b5     ..k.}.:....z6?..
  409e30:	f3be dc66 16e6 e0a9 c2d1 f788 dc6a 39b3     ..f.........j..9
  409e40:	9a9d 3678 71f8 d11c 38ac 635d 7f6c dfdc     ..x6.q...8]cl...
  409e50:	7948 7f8b 1d63 6c63 bb7f 6db3 bb21 2de4     Hy..c.cl...m!..-
  409e60:	8efd 5c7f 3f5b e7f1 7a47 1b66 31ef 16d7     ...\[?..Gzf..1..
  409e70:	e3cf 758e 8ed6 f288 37cc 7dde bb69 6b99     ...u.....7.}i..k
  409e80:	751c dffc 2f6a fce6 ff28 6a00 00ff 9692     .u..j/..(..j....
  409e90:	54e6 67d1 cc37 5aad 28a6 4db7 6ccc 4744     .T.g7..Z.(.M.lDG
  409ea0:	4514 5c11 44c4 dd38 77ce 332b 6b9a f3cd     .E.\.D8..w+3.k..
  409eb0:	e83a 2baa 6ea2 6663 3826 9ae9 b966 30dd     :..+.ncf&8..f..0
  409ec0:	f7e2 d739 bf6d 0fcb 5a45 90fc 78da 26a6     ..9.m...EZ...x.&
  409ed0:	7c27 1b7c 7793 4e43 a341 7e35 b451 fa0b     '||..wCNA.5~Q...
  409ee0:	4da7 fa64 e582 9abb 2872 d69b c5e9 36cd     .Md.....r(.....6
  409ef0:	a3ea 3511 1b45 37f9 69f0 42e6 f83b 3151     ...5E..7.i.B;.Q1
  409f00:	fd4e e9dc a1d7 3483 79d3 4d16 5bb4 e659     N......4.y.M.[Y.
  409f10:	c9a1 6b72 5cb5 93d3 5e4c 6bbd 9a2d a6a9     ..rk.\..L^.k-...
  409f20:	478c 680a d5e1 f71b 8e6f fb4e b48b 5c95     .G.h....o.N....\
  409f30:	2ea7 6dae af6b ed16 e3fb 1d99 eada 53af     ...mk..........S
  409f40:	5c95 139b 2e3c db2d c7f7 5732 1beb fe63     .\..<.-...2W..c.
  409f50:	dae6 cc43 fb5b b10e 3fb6 6fee 3ca4 bfc5     ..C.[....?.o.<..
  409f60:	ceb1 8beb fe67 683d 4cef 7dc3 aee3 9f2d     ....g.=h.L.}..-.
  409f70:	f3f8 bda3 0d33 95f7 8d57 b9cc f9eb 5fa9     ....3...W......_
  409f80:	9c1f d57a 00ff 0e27 8ad6 2ed9 fd0e 4eac     ..z...'........N
  409f90:	671b 4f7a 880f aaa6 8a2a c5a2 dc14 b18b     .gzO....*.......
  409fa0:	3131 3d31 d3cd ef10 67dd 5a5c c703 1d9d     111=.....g\Z....
  409fb0:	78e9 bc6f c575 3ca0 d17a 97be 9f86 3ef5     .xo.u..<z......>
  409fc0:	ad37 2fe3 a47e 3d55 cb3a fd5e c3bc a711     7../~.U=:.^.....
  409fd0:	8a8d d3aa 599f 6376 ebab 408b f578 bda3     .....Yvc...@x...
  409fe0:	0d2f 8ef7 b4b8 8f07 3b5a f0d2 79df f2f1     /.......Z;...y..
  409ff0:	fe3b f6a4 5f4b 31c8 ce3e 257b 71b6 6890     ;...K_.1>.{%.q.h
  40a000:	63ad 0f7b 547f 8ce9 3f9b 6ebd a99a 6fa6     .c{..T...?.n...o
  40a010:	8c5b 715d 6766 c57c 3c33 6e9c 5807 1edb     [.]qfg|.3<.n.X..
  40a020:	37f7 3bd2 42be d8df 75e7 b3c5 e6fe d1ba     .7.;.B...u......
  40a030:	97fe fb86 75cc b3c5 1fef 6f34 e1a5 fda7     .....u....4o....
  40a040:	ab4d 6675 e916 d3e0 88c2 6af7 b7dd 6956     M.uf.......j..Vi
  40a050:	986e 8ea6 441c 237a e084 8df5 ffb1 7300     n....Dz#.......s
  40a060:	217d 2de6 8efd 54bb ade8 e192 3674 c4b2     }!.-...T....t6..
  40a070:	f6e1 a479 f8f0 788b 433d 3555 6253 17dd     ..y....x=CU5Sb..
  40a080:	c4a9 8651 55b9 5335 c931 4c54 fc44 41cf     ..Q..U5S1.TLD..A
  40a090:	16d7 fccf d17a 97de fb86 b3ce ea55 070d     ....z.......U...
  40a0a0:	4277 5b6b b556 92b6 76bb 1eac 8aa3 9c62     wBk[V....v....b.
  40a0b0:	1e56 eaed 55af b986 d314 3145 f956 66aa     V....U....E1V..f
  40a0c0:	8963 85b5 98bb eaf8 5378 f85e 6ee7 ef60     c.......xS^..n`.
  40a0d0:	de66 4751 aa0a d6f4 6e3d 3975 83af 2e17     f.QG....=nu9....
  40a0e0:	1b53 44f7 fbd5 dd3b 478e ea9d 117d bd8d     S..D..;..G..}...
  40a0f0:	6999 f74c c831 b5b1 5dd1 5715 ba66 18b0     .iL.1....].Wf...
  40a100:	c289 54cd 34d5 544d d3f2 a2c2 dd89 00ff     ...T.4MT........
  40a110:	ae4b bab9 dc6e fee0 6f74 9baf 497b bfdd     K...n...to..{I..
  40a120:	7293 9ae7 ae69 3538 b046 25f4 5354 3c5d     .r..i.85F..%TS]<
  40a130:	a31a 9e58 ab77 89ec cdb6 19dc 56da 89ac     ..X.w........V..
  40a140:	7bf9 3f93 c24a 13ec d435 cb7a df64 3596     .{.?J...5.z.d..5
  40a150:	7156 ce8e 4ef3 cdaa e929 6a97 569c a927     Vq...N..)..j.V'.
  40a160:	b7a9 6962 f58d 2277 ab6a 549d b778 f244     ..bi..w"j..Tx.D.
  40a170:	fb72 6bfc d025 9cef 3ce9 639b 82b3 75ce     r..k%....<.c...u
  40a180:	9e46 71ca 8c91 a7cd 7a81 9cfd 15bb 66d2     F..q.....z.....f
  40a190:	88d5 b88a d515 c113 9ee2 793f da13 15bc     ..........?y....
  40a1a0:	c0b8 e27f 1ab7 1beb 8fa3 83e4 b66d 6a5f     ............m._j
  40a1b0:	c932 16f1 5de3 7463 be46 689e 6e4b 1187     2....]ctF..hKn..
  40a1c0:	36a3 9853 7162 cc18 cf76 aeb4 172f 6f72     .6S.bq..v.../.ro
  40a1d0:	5555 5855 72b7 e2ec aa2a aa66 99aa aae5     UUUX.r..*.f.....
  40a1e0:	6666 777e ae2b 9f2d f5f8 3da3 0d2f ea1f     ff~w+.-....=/...
  40a1f0:	ae67 012d cee3 f48e 37bc 56de 6dd6 2ce3     g.-......7.V.m.,
  40a200:	dbf1 a38a 58a3 7654 662d 7918 b599 5315     .....XTv-f.y...S
  40a210:	36af dcb1 f5e0 b18d 00ff 7d73 e621 fd2d     .6........s}!.-.
  40a220:	5887 1fdb 37f7 1ed2 df62 e7d8 c575 ffb3     .X...7..b...u...
  40a230:	1e00 7774 61a6 f1be 16d7 fccf d179 99de     ..tw.a......y...
  40a240:	fb86 b7cf cc8d ebb9 b6f9 7e3c eb71 fc57     ..........<~q.W.
  40a250:	1e9c b6b1 ee3f a46f c53c b0bf 1beb f163     ....?.o.<.....c.
  40a260:	00ff bef5 f390 fe16 3bc7 2dae f89f a3f3     .........;.-....
  40a270:	33bd f70d b88e 7fb6 cee3 f48e 37cc 3cde     .3...........7.<
  40a280:	656e 5fcf f1cc c7f9 5fad 72f2 dcb2 4d06     ne._....._.r...M
  40a290:	f2a6 59eb 4146 e095 8cb2 99b2 34bb b7db     ...YFA.......4..
  40a2a0:	534f a261 a6ba a966 638a 33bf ee3c ac4b     OSa...f..c.3<.K.
  40a2b0:	8beb fe67 e83d 4bef 7dc3 27e6 ec51 98fa     ..g.=..K.}.'Q...
  40a2c0:	56df d1bc 1eb1 8657 fda7 794d 62c3 af6b     .V....W...My.bk.
  40a2d0:	5585 3333 2dd1 c249 ee62 e15c 4557 3353     .U33.-I.b.\.WES3
  40a2e0:	95ee cc57 8336 8bb6 be39 6665 d1ce 5db5     ..W.6...9.ef...]
  40a2f0:	74bb c6dc 4444 b95f 314d 574c 1131 6e1c     .t..DD_.M1LW1..n
  40a300:	33bf dbd6 d454 6e99 2827 75cf a6e6 b2cc     .3..T..n'(.u....
  40a310:	91ab 5c4c 5db5 efea 2a61 2aa6 a28a a22a     ..L\.]..a*.*..*.
  40a320:	a778 9a8e e667 f974 769d 66ef 95d9 55db     x...g.t..v.f...U
  40a330:	5445 dccd c464 1cc7 334d ad72 0ed3 f82e     ET..d...M3r.....
  40a340:	e69e 5de9 b0f6 7898 26a6 8d28 217a cbe8     ...]...x.&(.z!..
  40a350:	0c18 3435 54d3 885b f798 5943 99e3 849f     ..54.T[...CY....
  40a360:	d306 9e79 e43e 1cb3 bb7c 91b7 54c7 6f44     ..y.>...|....TDo
  40a370:	7799 7ed9 da91 a17e b0cb aed9 a047 8675     .w.~..~.....G.u.
  40a380:	956b 15d7 174d e16d 1871 05cc c454 33cd     k...M.m.q...T..3
  40a390:	5d34 99a2 b88a 63e2 bc8b d7fc 9a72 ea38     4].....c....r.8.
  40a3a0:	3a9d 8a5f d1ee 356e 62ae df23 eac4 9df2     .:_...n5.b#.....
  40a3b0:	9ed1 3b65 2aa2 00ff 827b cafa 9157 b24f     ..e;.*..{...W.O.
  40a3c0:	11ed 2bb6 be19 7659 cdee d535 519b 0773     ...+..Yv..5..Qs.
  40a3d0:	3333 c583 3870 5c31 df6f 0e3c c125 5b57     33..p81\o.<.%.W[
  40a3e0:	7671 e68a 02d7 7762 f8ee 8f2a f708 dcad     qv....bw..*.....
  40a3f0:	1c9b 8909 dbfc f9b8 f281 e2c5 ec72 0ba3     ............r...
  40a400:	3b5e c734 b2e0 14cc 2270 b96b 3855 2c2c     ^;4.....p"k.U8,,
  40a410:	534d 22ba ab6a 4674 9df9 07ce 5a5c 3802     MS."j.tF....\Z.8
  40a420:	5da7 c868 2b9f 47c3 ed1f f420 ee61 8ddc     .]h..+.G.. .a...
  40a430:	a669 e067 adad 6fe1 8d5d a668 a267 8710     i.g....o].h.g...
  40a440:	6645 bafe 0c34 dd6f 4d1d e78f f2e9 2385     Ef..4.o..M.....#
  40a450:	c9bb 31bd 4e74 19e6 7d26 74a9 e444 ce99     ...1tN..&}.tD...
  40a460:	9d55 a35a 8d0f 55e1 e566 fb18 dc74 d3e9     U.Z....Uf...t...
  40a470:	4d31 4553 bb53 618a f70e 17a6 ce2e 34d1     1MSES..a.......4
  40a480:	b665 a8a2 7df4 e865 942d aba2 4579 6a9a     e....}e.-...yE.j
  40a490:	278d ef49 a096 493b 0008 0000 0000 0000     .'I...;I........
  40a4a0:	0000 0000 6e03 75e7 b66d fc0d b69e 1f75     .....n.um.....u.
  40a4b0:	eaf4 f32f 5a3c cfa4 c614 98e8 a795 8ed8     ../.<Z..........
  40a4c0:	a375 cdf2 6883 0e2c aa67 def4 8e5d 35a2     u....h,.g...]..5
  40a4d0:	5504 cc45 8c45 2a1e e79a c531 1c55 752b     .UE.E..*..1.U.+u
  40a4e0:	1355 e91b 99aa d1f9 b32d 5db7 0dcc 4431     U.......-..]..1D
  40a4f0:	fe6b ddd1 0d52 06e1 cbd5 6db9 d134 ff1a     k...R......m4...
  40a500:	b400 e86e 23a9 af8e 2dae e301 8ed6 bcf4     ..n..#...-......
  40a510:	de37 e23a 1ed0 e83d 4bef 7dc3 5fe5 77e4     7.:...=..K.}._.w
  40a520:	49fd 95ec e433 af18 3d67 f392 6cdb b3cc     .I..3...g=...l..
  40a530:	29dd adb1 9d47 bc69 1dd3 e693 55b4 4593     .)..G.i......U.E
  40a540:	2d37 38d5 546c 5653 8822 75ab c771 531c     7-.8lTSV"..uq..S
  40a550:	f331 87ab 4d64 c7b5 6417 599d 9f1c ddcf     1...dM...d.Y....
  40a560:	f4df 6da7 67bc 435a d837 a676 e5c0 af3a     ...m.gZC7.v...:.
  40a570:	e64d ea58 64ae a87b 88b5 8eb3 ccc5 2646     M.X..d{.......F&
  40a580:	fb8d a2a8 99a9 11dd ab32 f9f3 fedf 596f     ........2.....oY
  40a590:	237b a283 5370 ade3 bcc6 df29 e81e 5be7     {#..pS....)....[
  40a5a0:	09fb db97 ba9c 7d7c d7b8 3b85 8fe3 3c75     ......|}...;..u<
  40a5b0:	edf0 fdb3 ac43 cdb5 4a58 66b5 cda2 fa73     ....C...XJ.f..s.
  40a5c0:	45ed a2c8 5c6f 1faf d334 e956 28aa 72e1     .E..o\..4.V..(.r
  40a5d0:	e06f 33c7 dfaa 5355 cb13 e9bb ef6b b372     o..3..US....k.r.
  40a5e0:	3a1f 4563 d114 064f d298 ea13 d12d 9e6e     .:cE..O.....-.n.
  40a5f0:	110d 73a4 d143 35e0 d5be 0cf2 0bbf 6494     ...sC..5.......d
  40a600:	fbfa e553 5df9 dda8 ba45 572f 0b67 ae4d     ..S..]..E./Wg.M.
  40a610:	d45d 1cd1 cb51 f72e eb47 afbd fae6 00ff     ]...Q...G.......
  40a620:	6548 fdf8 6aa1 568c ee02 222f baa2 bd2a     He...j.V../"..*.
  40a630:	bb76 6135 c4aa 4d51 cc54 e46f 9998 47e7     v.5a..QMT.o....G
  40a640:	dcf3 e589 77e3 265a 8ced d11e 4e34 152b     .....wZ&....4N+.
  40a650:	ce7a 0d1f 334e 9a21 aaaa d562 b388 264e     z...N3!...b...N&
  40a660:	d5dc 5555 144f 1153 c613 c4d3 ec60 ba4d     ..UUO.S.....`.M.
  40a670:	81a7 e91a 883e 6268 18b0 ad6a 5757 8d8b     ....>.hb..j.WW..
  40a680:	9f74 2e44 eaa0 e2fa fcd9 c6f1 d1bb 97de     t.D.............
  40a690:	fb86 5cc7 035a adc7 e91d 6f78 a4bc 0727     ...\Z.....xo..'.
  40a6a0:	5f7f 3dc9 f392 5895 4e0c ffb3 8e00 257b     ._.=...X.N....{%
  40a6b0:	2bda 45b7 b357 179d f83b 8bba 00ff beaa     .+.EW...;.......
  40a6c0:	ba9d d9e2 f2fc ad6b 3f19 f0da 79df f400     ......k..?...y..
  40a6d0:	e34d 3cf2 5bf7 0be9 26b9 9571 16e7 c1e9     M..<.[...&q.....
  40a6e0:	aaee dc6c 31a3 17b5 a63a eef4 68aa 62aa     ..l..1..:....h.b
  40a6f0:	dd2a c531 a4ef 25db bb87 316f ae89 8e99     *.1....%..o1....
  40a700:	f429 1b26 850d 6bbd a636 e9aa 8d98 7c27     ).&....k6.....'|
  40a710:	3822 baaa a66a f3bd 5c4d 4bef d783 5f7b     "8..j...M\.K..{_
  40a720:	70ca 3c58 2cb7 16da c2a9 2de0 6251 748b     .pX<.,.....-Qb.t
  40a730:	7a53 18e5 707a 5394 d114 1445 e2ef 22a6     Sz..zp.S..E...."
  40a740:	3722 cf7b be33 8927 dc88 aeb4 b75a 3472     "7{.3.'.....Z.r4
  40a750:	98ae 9e9e d335 c57a d1bb caa5 7a62 5463     ....5.z.....bzcT
  40a760:	b39d 6f5d 9db5 b543 05ad 6794 f71a 6652     ..]o..C....g..Rf
  40a770:	6519 56ec 4d55 75cb b95e 165e 34ac a6dc     .e.VUM.u^.^..4..
  40a780:	a62a 66ba e278 6861 e354 d765 79f0 d86e     *..fx.ahT.e..yn.
  40a790:	7b76 cc8e 3671 7830 312a 3c99 5dd5 4675     v{..q60x*1.<.]uF
  40a7a0:	0b1b a84d 4cbb d7cc 5c5d 4f51 2bbf d767     ..M..L..]\QO.+g.
  40a7b0:	cf16 bafb 46ef f6c7 34bc 7ef1 b8d2 2cdb     .....F...4.~...,
  40a7c0:	971e f8ed 389a f4b4 bf47 a9dc ff76 0100     .....8..G...v...
  40a7d0:	26a6 93d7 e2db ffd3 cc00 fd7b becf 946f     .&........{...o.
  40a7e0:	ade9 855f 82b3 f9d4 5b1e e19e 9e28 1415     .._......[..(...
  40a7f0:	a2dd 5631 fc62 31d3 88c2 499e 33dd ab0e     ..1Vb..1...I.3..
  40a800:	6dac 6f8f 6fed 23a4 8bfa 637f d79f cf16     .m.o.o.#...c....
  40a810:	7bbc d3d1 affd f70d b88e 7db6 dee3 8f8d     .{.........}....
  40a820:	78ed bc6f 5b8b 7d9c 78aa 7034 3da2 a1da     .xo..[.}.x4p.=..
  40a830:	6776 b333 064f 0edf 9a23 8735 ac07 8f6d     vg3.O...#.5...m.
  40a840:	9bfb 0fe9 6f31 3aec d8c6 00ff beb9 f390     ....1o.:........
  40a850:	fe16 3bc7 2dae f89f a3f5 33bd f70d b88e     ...;.-.....3....
  40a860:	7fb6 cee3 f48e 37cc 7dde 6e3c cf65 cd5f     .......7.}<ne._.
  40a870:	f1f4 c7f9 5fad 70f2 c67a ffd8 b900 91be     ....._.pz.......
  40a880:	16f3 7df7 460e a55f 6d36 b3a7 2e0c 916d     ...}.F_.6m....m.
  40a890:	8de8 9437 56e6 a9e6 e5a2 54bb c4d8 5c53     ..7..V.....T..S\
  40a8a0:	31d3 4d33 c751 c21f f998 5edf b6b8 1c7f     .13MQ......^....
  40a8b0:	ebba 7a47 1a66 d43f c575 ffb3 1e00 6ff4     ..Gzf.?.u......o
  40a8c0:	e1a5 f3be 5c15 6bcc 268d d36a c5e2 3357     .....\.k.&j...W3
  40a8d0:	a96a 6a9a e69a ac27 11ed 442f 7d7e b4ac     j..j..'.../D~}..
  40a8e0:	4f26 b1a0 431a e650 05b9 b7db 0435 9b5c     &O...CP.....5.\.
  40a8f0:	d535 9a83 a2a8 1c8b ab18 cb83 87bb 3a57     5.............W:
  40a900:	eb47 678b 3cfe d8e8 d7fe 9f86 21f5 89ae     G..g.<.......!..
  40a910:	cffc 674f 36d9 acce 59e4 4bf6 579d cd4d     ..Og.6...Y.K.WM.
  40a920:	3545 9bc5 b3d6 a90a 68a2 f0c3 ae66 5305     E5.......h..f..S
  40a930:	7ebb e5e9 3aef 393b af83 95fc 1bbf 1747     .~...:;9......G.
  40a940:	f81e dde2 ae2e e0c9 4e2e 6b6d dbc6 00ff     .........Nmk....
  40a950:	3d5e 8e75 d32d 8cce 21fb aaed 853f 9db4     ^=u.-....!..?...
  40a960:	315d f7f2 7e22 4797 669c fe99 ccad e7ee     ]1.."~.G.f......
  40a970:	8b3a c734 5967 519d 8567 ed72 8953 cdc5     :.4.gY.Qg.r.S...
  40a980:	d334 d314 5715 1c57 88ee f988 0d9c 1bf3     4....WW.........
  40a990:	36b7 a789 28fe 9589 6fb5 6a0f ebdc 3145     .6...(...o.j..E1
  40a9a0:	ee13 178d ac9d 8b2d c253 44b7 fb44 21a2     ......-.S..DD..!
  40a9b0:	0fa0 61b3 7424 763a d3f9 bf73 7474 4bad     ...a$t:v..s.tt.K
  40a9c0:	77ea a356 55e8 811d b262 9b9c 1a6e 1b73     .wV..U..b...n.s.
  40a9d0:	669b 2c58 09b3 b516 7014 d7ee 074e 150b     .fX,.....p..N...
  40a9e0:	84d5 14bb d7c4 e85e f38d 1f31 cd3a a24e     ......^...1.:.N.
  40a9f0:	fcd9 4e71 d1ba 3e91 8657 f58f 1d2b b1b3     ..qN...>W...+...
  40aa00:	e676 993a 99a2 f59f 478f 54be 84df 350c     v.:......G.T...5
  40aa10:	d9eb 3395 3345 eb3f a31b 2edf 75d0 717d     ...3E3?......u}q
  40aa20:	0f68 b41e a577 bee1 d7f1 8016 ebf1 7a47     h...w.........Gz
  40aa30:	1b5e 22ef 471e d47f c99e 3c41 1383 e7ec     ^..".G....A<....
  40aa40:	55b2 6e73 5b9c d77b 7ff5 65ea abbe e169     .Usn.[{....e..i.
  40aa50:	d3de 586d 0e8c b767 752d cb8d 98f1 c75c     ..mX..g.-u....\.
  40aa60:	5503 7c79 5dd3 a9ba 61c5 886a 5ac3 c1df     .Uy|.]...aj..Z..
  40aa70:	9dae 3cf1 3171 3cf3 2e5f 00ff 7899 b1e5     ...<q1.<_....x..
  40aa80:	8331 13b7 c7ea 3d74 941f 3153 b380 ea13     1.....t=..S1....
  40aa90:	ddd3 770c 6e40 003a 0000 0000 7a96 b21b     ...w@n:......z..
  40aaa0:	2d7d 35ac acae eac2 8b9c cf2c f4b0 2661     }-.5......,...a&
  40aab0:	29aa 45bd ab38 df14 8bea f034 89a9 abe4     .).E8.....4.....
  40aac0:	5575 ce47 ba9d d8c6 00ff 6673 42fa a83f     uUG.......sf.B?.
  40aad0:	1fb7 41f6 0cfd 8699 9047 7deb 735f cd3c     ...A....G..}_s<.
  40aae0:	acf2 d59e 3958 6a8a 72bd b68c ddcc 9bea     ....X9.j.r......
  40aaf0:	c133 aaa6 88ea b79a f144 c97b aefb 9f2d     3.......D.{...-.
  40ab00:	264f d1bb fdd3 0daf 95f7 d48e c6dc 8f53     O&............S.
  40ab10:	b398 6935 6ea4 4fd7 9d92 3bdb 8599 9c39     ..5i.n.O...;..9.
  40ab20:	89c5 29aa 37d2 a76b c1c9 1beb fe63 fae6     ...).7k.....c...
  40ab30:	cc43 fb5b b10e 41b6 1313 371b 31d2 213f     C.[....A...7.1?!
  40ab40:	276e 337f d79d cf16 79fc ded1 8699 c7fb     n'.3.....y......
  40ab50:	5b5c f13f 47e7 667a ef1b 9e23 3237 afe7     \[?..Gzf..#.72..
  40ab60:	89e6 ec78 d6e3 f9af 1b3b 5974 59c3 86b3     ..x.....;.tY.Y..
  40ab70:	dbc3 d6a6 9a1e 536d 314d 1b1c 6671 8898     ......mSM1..qf..
  40ab80:	22a6 9b3b 21a2 acb3 8beb fe67 683d 4bef     .";..!....g.=h.K
  40ab90:	7dc3 3ae6 d9e2 00ff 5a8f d23b dff0 a979     .}.:.....Z;...y.
  40aba0:	b8e4 528f 257b 38a1 541c b7ef 923d 7eed     ...R{%.8.T..=..~
  40abb0:	470e 3803 f4c9 afbe 86b1 6ac3 878c cf2b     .G.8.......j..+.
  40abc0:	f6b0 b9e6 2fa6 1851 71ab 6372 cc74 f244     ...../Q..qrct.D.
  40abd0:	3e71 715d ff6c c700 1dad e511 6978 00ff     q>]ql.......xi..
  40abe0:	1d53 ec71 c7fb 19cd 78e9 bc6f 51fd 1563     S.q......xo..Qc.
  40abf0:	ae6e 1415 4fcc 25ba b5fb c685 aa5a b72a     n....O.%....Z.*.
  40ac00:	5145 e931 9788 ac0b 8f6d 9bfb 0fe9 6f31     EQ1.....m.....1o
  40ac10:	3aec d8c6 00ff beb9 f390 fe16 3bc7 2dae     .:...........;.-
  40ac20:	f89f a3f5 2fbd f70d b88e 7fb6 cee3 f48e     ...../..........
  40ac30:	37cc 6cde dcf8 9ecb 9bbf c773 1ee7 7fb5     .7.l......s.....
  40ac40:	c1c9 1beb dd63 9bcd 08e9 fee5 df62 3227     ....c.......b.'2
  40ac50:	669d 5154 cd87 2bf3 a816 768b b9a9 888b     .fTQ...+...v....
  40ac60:	e78e 2b02 8d98 a5cb 8f3a b167 7ebf d1bc     ...+....:.g..~..
  40ac70:	97be 8e86 da2f ec52 69d2 9cb9 57e6 d72d     ..../.R..i...W-.
  40ac80:	2d17 cccd c464 00ff 34c3 75cd c271 b171     .-..d....4.uq.q.
  40ac90:	e2b5 9b6a 3ebe d167 5fbf 3a7f d8c7 980b     ..j..>g.._.:....
  40aca0:	e6ca 94f7 53cd 4ebb be16 dafd cab7 3c33     .....S.N......3<
  40acb0:	4aef b666 cd33 993d 7263 de7c 4edf 5de0     .Jf.3.=.cr|..N.]
  40acc0:	54b5 71e1 f094 9aa8 e02a 4fd7 6f1c aaa6     .T.q....*..O.o..
  40acd0:	e7a3 dd77 3691 c9d5 491b d1d5 2f1f 6772     ..w..6...I.../rg
  40ace0:	e5fb 79e5 7c27 194f bfbf 2913 cc9d ab3d     ...y'|O....)..=.
  40acf0:	ad93 c474 becf 5835 7037 2fb6 0a4f 11e5     ..t...5X7p./O...
  40ad00:	ef33 9588 e894 cf70 96b5 c9bb eef5 5723     3.....p.......#W
  40ad10:	1cea 50d7 b55d 4f73 b9c5 5dbb b958 8aa6     ...P].sO...]X...
  40ad20:	bfe8 7035 5c78 f89b f314 a425 d00f 99c1     ..5px\....%.....
  40ad30:	ece9 2687 2dda f79c c93f 5a72 b9ea 66a7     ...&.-..?.rZ...f
  40ad40:	bd88 d67a 355d 1451 3862 4f53 a80e bbdf     ..z.]5Q.b8SO....
  40ad50:	727c d377 5c2f 3f5b e7f1 fa46 1a5e d43f     |rw./\[?..F.^.?.
  40ad60:	36a9 078f f95f 9e2b 8e2a 2d2e c5d1 14ba     .6.._.+.*..-....
  40ad70:	d65e 2e60 6dc6 c577 ff5b 5e00 342d 2d8e     ^.`..mw.[..^-4.-
  40ad80:	ccd1 e6f8 531a da66 3087 66c5 e6d9 d388     .....Sf..0.f....
  40ad90:	b679 7265 9a68 5cee 4db5 45fc 4555 a23b     y.erh..\.M.EUE;.
  40ada0:	aa6a e778 31f8 3f0e db58 f71e d237 621e     j.x..1.?X...7..b
  40adb0:	efde cda1 8beb fe67 683d 4bdf 7dc3 aee3     ......g.=h.K.}..
  40adc0:	9f2d 26cf d1ba 99de 9f86 39f5 dcf4 68cc     -..&.......9...h
  40add0:	228d d36a e5e2 7353 a636 a698 ae99 3a22     ."j...Ss6.....":
  40ade0:	17ce db58 f71f d237 621e d8df 8d75 ffb1     ..X...7..b..u...
  40adf0:	7300 217d 2de6 8efd 5c77 3f5b e7f1 7a47     .s}!.-..w\[?..Gz
  40ae00:	1b66 1def 6c71 00ff 9dc7 e91d 6f98 cfbc     f...ql.......o..
  40ae10:	cc8d ebb9 b3f9 f3e3 5a8f e4bf 75e0 b18d     .........Z...u..
  40ae20:	73ef 217d d43f 8f5b 3bfb a35c d329 435a     .s}!?.[..;\.).ZC
  40ae30:	7b0b a605 3c32 22b7 57c2 2a3c b3e9 6144     .{..2<.".W<*..Da
  40ae40:	cd6c a6f8 8523 1c31 bab3 1f22 b81e 7db6     l...#.1..."....}
  40ae50:	d9bf 8dde bcf4 de37 e23a f7d9 7a8f 3f3a     ......7.:....z:?
  40ae60:	e1b5 f3be 72e7 f771 e069 c2d7 f798 f9ea     .....rq.i.......
  40ae70:	9cde f5ce 1b3c 399c 698e 5dd6 ea98 e2fa     ....<..9.i.]....
  40ae80:	1ed0 683d 4bef 7dc3 aee3 012d d6e3 f48e     ..=h.K.}..-.....
  40ae90:	37bc 6bde 1d79 00ff 7b52 a725 18e4 679f     .7.ky...R{%....g
  40aea0:	923d aece 7fed b8ae 00ff 1df7 ea4d 5497     =...........M..T
  40aeb0:	e79a afe9 fd46 75fc 2bfd aa8d fdf3 7f09     ....F..u.+......
  40aec0:	eb41 366b ae75 bf92 ac76 a41e 628a 4e9c     A.k6u...v....b.N
  40aed0:	ed1e aeea 86d5 14b9 44d3 5b45 a9e6 8e99     .........DE[....
  40aee0:	3925 8eaf dee5 f00f 6a66 58e6 15db e56a     %9......fj.X..j.
  40aef0:	17bb b822 8ed3 cf16 ab83 2d37 ef61 7145     ..".......7-a.Eq
  40af00:	c731 e31b d7dc cf74 77f0 f7cf bb41 2696     1.....t..w..A..&
  40af10:	dc38 a7fc d428 bffa 5e17 a55f 0cb2 50e7     8...(....^_....P
  40af20:	a9e3 aaa2 a3ea 6a0f 69e6 8c8a 552c cd14     .......j.i..,U..
  40af30:	4573 99b8 778a 44d7 e46f e8fc bbef b05e     sE...w.Do.....^.
  40af40:	c9f6 7d1c 358c 5fe5 b1d8 cf74 13f8 af3a     ...}.5._..t...:.
  40af50:	a2db aa74 89a8 3558 2de2 9d5b aa2a 7d22     ..t...X5.-[.*."}
  40af60:	f3f2 7e5c c7f9 bdef 5827 669b 2ff7 7ed7     ..\~....'X.f./.~
  40af70:	8a85 87fb 9b58 f767 d72f 857e fc8a e737     ....X.g./.~...7.
  40af80:	acca d1fa 0fdb 969f fd61 ed78 9b87 f7e3     ........a.x.....
  40af90:	3fce e97d c43a 3fdb 7eb9 f4bb 572c 9de1     .?}.:..?.~..,W..
  40afa0:	6d62 dc9f 5dbf 16fa f02b 2acf ebb1 6c47     bm...]..+..*..Gl
  40afb0:	591e f587 b6e3 6f1e df8f fd38 a4f7 13eb     .Y.....o..8.....
  40afc0:	fe6c fae5 d0ef 5fb1 7586 b689 727f 77fd     l......_.u...r.w
  40afd0:	58e8 c3af aa3c adc7 b01d 6679 d71f d88e     .X..<.....yf....
  40afe0:	be79 7c3f f7e3 93de 4dac fbb3 eb97 42bf     y.?|.....M.....B
  40aff0:	7ec5 d619 d926 cbfd dff5 62a1 0cbf abf2     .~..&......b....
  40b000:	b41e c176 98e5 5e7f 613b f8e6 f3fd df8f     ..v....^;a......
  40b010:	4e7a 36b1 eecf ae5f 0bfd f815 5867 669b     zN.6.._.....gX.f
  40b020:	30f7 7ed7 8a85 87fb 5995 a3f5 0fb6 c32c     .0.~.....Y....,.
  40b030:	f1fa 0fdb 3c39 9b5c b1b7 ddc7 7f97 6998     ....9<\........i
  40b040:	a71d ece9 13bb e79a 079a 6558 5d59 a6b8     ..........XeY]..
  40b050:	bb6b 0b73 c188 69e0 66a6 8929 e5ae c474     k.s....i.f)...t.
  40b060:	c753 1c31 f77d 3c43 4c55 f84e d297 948b     S.1.}.C<ULN.....
  40b070:	1ad7 3ad3 3ef4 5dd4 e4a2 446b c7c4 8dbb     ...:.>.]..kD....
  40b080:	0fa8 f6d3 0000 0000 0000 0000 0000 0000     ................
  40b090:	0d00 bba2 c6d4 6eea 88dc 66f8 e920 fc97     .......n...f ...
  40b0a0:	de35 6a79 a331 431a 1d6e 0def 9e77 9a58     5.yj1..Cn...w.X.
  40b0b0:	57ae 87bb 755d 337c 60c2 4367 0048 0019     .W..]u|3.`gCH...
  40b0c0:	6206 a66a 6962 69aa 699e 8767 c37b e75d     .bj.bi.i.ig.{.].
  40b0d0:	a096 db68 7f87 5dc3 93e7 5fa6 d7f0 e579     ..h....]..._..y.
  40b0e0:	c6a8 c690 cc90 55cd 0acf aaba afaa f37f     .......U........
  40b0f0:	80a5 9165 9a98 98a9 6a9a 679a 589a b701     ..e......j.g.X..
  40b100:	f70e bb86 27cf f70e bb85 2dcf 3446 3486     .....'.....-F4.4
  40b110:	dc86 fe3b ef1a 9c3c fe3b ef1a b53c 200d     ..;...<.;...<.. 
  40b120:	1bd2 ef70 6bf8 f2bc ef70 6bf8 f2bc 34d4     ..p..k..p..k...4
  40b130:	4883 c36d e1bf f3ae c3c9 e1bd f3ae 50cb     .Hm............P
  40b140:	0dd2 9921 aa9a aae3 aaaa 769e 9601 0040     ..!........v..@.
  40b150:	2666 78aa aae9 67aa 8099 701b 78ef bc6b     f&.x...g...p.xk.
  40b160:	70f2 f8ef bc6b d4f2 4863 4863 d36d f82f     .p..k...cHcHm./.
  40b170:	bc6b 70f2 f8ef bc6b d4f2 8334 6d48 bfc3     k..p..k...4.Hm..
  40b180:	aee1 c9f3 bfc3 aee1 cbf3 d250 210d 0eb7     ..........P..!..
  40b190:	86f7 cfbb 0e27 85f7 cfbb 432d 3448 dc86     ....'.....-CH4..
  40b1a0:	fe3b ef1a 9c3c de3b ef1a b53c 200d 0ed2     ;...<.;...<.. ..
  40b1b0:	e539 01e3 4696 aa62 dfe8 aec1 7eaa 260e     9....Fb......~.&
  40b1c0:	6d00 bfc3 aee1 c9f3 bfc3 aee1 cbf3 8d51     .m............Q.
  40b1d0:	8d21 b721 bf4c aee1 c9f3 bfc3 aee1 cbf3     !.!.L...........
  40b1e0:	d250 210d 0eb7 00ff bb86 27cf ff0e 8600     P..!.......'....
  40b1f0:	cfbb 432d 3448 dc86 fe3b ef1a 9c3c de3b     ..-CH4..;...<.;.
  40b200:	ef16 b53c 200d 1bd2 ef70 6b78 f2bc 774d     ..<.. ..p.xk..Mw
  40b210:	37a6 db4d 1f93 cc0c 0d35 200d 9601 6246     .7M.....5.. ..Fb
  40b220:	94ab eac6 576e 7c4c 1033 0dc0 77b8 35bc     ....nWL|3....w.5
  40b230:	79de 7738 35bc 79de 316a 31a4 36a4 dfe1     .y8w.5.yj1.1.6..
  40b240:	d7f0 e479 dfe1 d7f0 e579 69a8 9006 87db     ..y.....y..i....
  40b250:	c37f e75d 8793 c37f e75d a196 1aa4 6e43     ..].....].....Cn
  40b260:	ff1d 0d00 9e77 1d4e e5e9 76bb 797e 1a6a     ....w.N....v~yj.
  40b270:	a441 3200 07c8 0176 47b4 3f1f de3a 4e6c     A..2..v..G.?:.lN
  40b280:	5b78 d905 eecc 6bfe f531 eacb be8b ab98     x[.....k1.......
  40b290:	a9f3 e2e2 f8f7 ced3 76ce b3bb 9f0d c36c     .........v....l.
  40b2a0:	e849 f7fc d52f e6d5 6ab8 9471 36d7 61ad     I.../....jq..6.a
  40b2b0:	e0ef 55b8 2e62 8e5c d504 997e 2b9e dc91     ...Ub.\...~..+..
  40b2c0:	5f84 306b f157 5a98 b168 b34e af13 50ca     ._k0W..Zh.N....P
  40b2d0:	b7cd f1cb fc38 3615 d4f0 53cd 4415 73f1     ....8..6...S.D.s
  40b2e0:	2969 45cc 9d9d 33f6 66ed f3ba 5f18 0ede     i).E...3.f..._..
  40b2f0:	fbce f619 5db3 8c79 ef2f fb0a cccd 7fce     .....]y./.......
  40b300:	4af9 9dac ce93 ff27 8c00 9dfc 44a7 cd1c     .J....'......D..
  40b310:	033b 73d5 3113 333d ff20 a600 8c7f aad0     ;..s.1=3 .......
  40b320:	5573 dde8 7613 efee 6186 ed37 6a4f 37bb     sU...v...a7.Oj.7
  40b330:	86da f3cb 1dcd b2a7 59fd 3563 56bb 3457     .........Yc5.VW4
  40b340:	ebcd 3076 38d8 dda6 6bea 7cab 76d1 e4a9     ..v0.8...k.|.v..
  40b350:	7ba6 3788 51f8 3333 93bf e3de 9b58 822b     .{.7.Q33....X.+.
  40b360:	84bd cdc1 f4bb 3ae9 fccc 6ba1 4e6c 885f     .......:...klN_.
  40b370:	e5c0 6bf3 4713 ae06 ce14 cd93 31a4 5555     ...k.G.......1UU
  40b380:	3bd7 aeea beaa e119 0930 602a 0000 0000     .;......0.*`....
	...
  40b398:	0700 681b edae c131 eda6 63ca 98e1 a086     ...h..1....c....
  40b3a8:	e136 f0df 79d7 e1e4 f0df 79d7 a8e5 90c6     6....y.....y....
  40b3b8:	90c6 6ada 54bb aa6e 75e5 c347 0d33 9641     ...j.Tn..uG.3.A.
  40b3c8:	0040 e338 6692 1b00 ef70 6b78 f2bc ef70     @.8..f..p.xk..p.
  40b3d8:	6bf8 f2bc 63d4 6348 6d48 bdc3 aee1 cbf3     .k...cHcHm......
  40b3e8:	5513 f175 5dd7 4f55 f9bf 0ccc a0b3 3300     .Uu..]UO.......3
  40b3f8:	3113 e23b 2766 599a dee1 b7f0 e579 0da8     .1;.f'.Y....y...
  40b408:	77b8 2dbc 79de 7738 2dbc 79de 316a 31a4     .w.-.y8w.-.yj1.1
  40b418:	36a4 dfe1 d7f0 e479 dfe1 d7f0 e579 69a8     .6....y.....y..i
  40b428:	9006 87db 7f7a bb9e 27cf f70e bb85 2dcf     ....z....'.....-
  40b438:	4843 8634 3bdc 1ade 3cef 35b1 af5c 0a77     CH4..;...<.5\.w.
  40b448:	eaba f7f9 33b0 a0a1 c800 3300 5513 1333     .....3.....3.U3.
  40b458:	554d 3c53 cfd2 f40e 00ff 773d 5a9e a381     MUS<......=w.Z..
  40b468:	1d6e 00ff 770d 4e9e 7f99 5dc3 96e7 1aa3     n....w.N...]....
  40b478:	1a43 3343 5535 ea3b 6aaa 799e 1960 0064     C.C35U;..j.y`.d.
  40b488:	0000 0000 9801 baaa e938 aaaa 9967 1d9e     ........8...g...
  40b498:	0def 9e77 865a 8d86 77b8 35fc 79de 7738     ..w.Z....w.5.y8w
  40b4a8:	35fc 79de 316a 31a4 36a4 dfe1 d7f0 e479     .5.yj1.1.6....y.
  40b4b8:	dfe1 d7f0 e579 69a8 9006 87db c37b e75d     ....y..i....{.].
  40b4c8:	8793 c27b e7dc a196 1aa4 6e43 ff1d 0d00     ..{.......Cn....
  40b4d8:	9e77 1d4e 00ff 770d 5a9e 9086 0d69 77b8     w.N....w.Z..i..w
  40b4e8:	2dbc 79ce c76b 90df 9065 6600 b92a fe46     .-.yk...e..f*.F.
  40b4f8:	750d f0d3 e64e 7778 35bc 79de 1a6a a331     .u..N.xw.5.yj.1.
  40b508:	1d6e 0bef 9e77 1d4e e4e8 77bd 5a9e 698c     n...w.N....w.Z.i
  40b518:	9006 87db c37f e75d 8793 c37f e75d a196     ......].....]...
  40b528:	1aa4 6e43 ef1d 770b 4e9e ef1d 770b 5a9e     ..Cn...w.N...w.Z
  40b538:	9086 0d69 77b8 35fc 79de 7738 35fc 79de     ..i..w.5.y8w.5.y
  40b548:	1a6a a441 e136 98de 37dd cc6e 337c a8b9     j.A.6....7n.|3..
  40b558:	6177 5396 4217 6ccf 4fcd ff3f 9d00 7a98     wa.S.B.l.O?....z
  40b568:	09ee 9563 6243 bf9a ec4c 5a73 39e7 a9e6     ..c.Cb..L.sZ.9..
  40b578:	e6c3 9cd8 f6ba 1713 9866 45b1 4ebc ab23     ........f..E.N#.
  40b588:	c42a ee61 d5c4 ca4d 8ee9 eb0e f715 f177     *.a...M.......w.
  40b598:	12c7 ec5b b1ed fbad 2ca7 91d7 46fd 231a     ..[......,...F.#
  40b5a8:	15d6 d4ce 3865 56dc c637 a259 3466 388e     ....e8.V7.Y.f4.8
  40b5b8:	db54 9165 3866 c7ec 61c6 cced a4d3 c271     T.e.f8...a....q.
  40b5c8:	1154 6767 8c7d 59fb bcae 17c6 83f7 beb3     T.gg}..Y........
  40b5d8:	7dc6 d7ac 635e fb0b 39c2 eee6 ec67 12e5     .}..^c...9..g...
  40b5e8:	53f3 f639 9432 59c4 dfd9 3e63 6bd6 31af     .S9.2..Y..c>.k.1
  40b5f8:	fd85 ece0 b1ef 6b9f d735 c298 f0fe b979     .......k5.....y.
  40b608:	fb99 3c39 ced4 8c7d 31a5 7616 d877 b5cf     ..9<..}..1.vw...
  40b618:	eb9a 61cc 787f 3b3b 67ec cdda e675 bf30     ...a.x;;.g..u.0.
  40b628:	1ebc 666e ce7e 354f 9f33 2963 454c 9d9d     ..nf~.O53.c)LE..
  40b638:	33f6 66ed f3ba 5f18 0ede fbce f619 5db3     .3.f..._.......]
  40b648:	8c79 ef2f 9b07 9f99 93b3 4ccd d8e7 53ca     y./........L...S
  40b658:	6711 7d67 fb8c ae59 c6bc f717 b383 c6be     .gg}..Y.........
  40b668:	ac7d 5ed7 0b63 c1fb eee6 ec67 f3e4 3953     }..^c.....g...S9
  40b678:	32f6 3bf4 9e6c c10e 8d76 bf3b cb9a 72bd     .2.;l...v.;....r
  40b688:	a1c2 71cc 73f3 bda7 6da3 6677 411b 86d9     ...q.s...mwf.A..
  40b698:	d1ac 16f9 ab5f cda8 3471 e960 6ea2 c3da     ...._...q4`..n..
  40b6a8:	c1d8 a970 5bc4 3cb9 a639 53fd 561c b9e7     ..p..[.<9..S.V..
  40b6b8:	1b28 337d e657 c5d3 efc7 ac71 941d 5fc1     (.}3W.....q...._
  40b6c8:	e1c1 a26a 3afd ce4c 28bf 9b5a 9711 70e2     ..j..:L..(Z....p
  40b6d8:	2a18 e2ad 9a69 6a66 e399 d2e6 301f 89ee     .*..i.fj.....0..
  40b6e8:	6442 0000 0000 0000 0000 0000 0000 0000     Bd..............
	...
  40b72c:	0000 7100 0080 0000 0000 0000 0000 0000     ...q............
	...
  40b774:	7100 0080 0000 0000 0000 0000 0000 0000     .q..............
	...
  40c594:	0000 ff0f 00d9 0000 0043 0000               ........C...

0040c5a0 <_global_impure_ptr>:
  40c5a0:	0008 2040 3130 3332 3534 3736 3938 6261     ..@ 0123456789ab
  40c5b0:	6463 6665 6867 6a69 6c6b 6e6d 706f 7271     cdefghijklmnopqr
  40c5c0:	7473 7675 7877 7a79 0000 0000               stuvwxyz....

0040c5cc <zeroes.6993>:
  40c5cc:	3030 3030 3030 3030 3030 3030 3030 3030     0000000000000000
  40c5dc:	3130 3332 3534 3736 3938 4241 4443 4645     0123456789ABCDEF
  40c5ec:	0000 0000 3130 3332 3534 3736 3938 6261     ....0123456789ab
  40c5fc:	6463 6665 0000 0000 6e28 6c75 296c 0000     cdef....(null)..

0040c60c <blanks.6992>:
  40c60c:	2020 2020 2020 2020 2020 2020 2020 2020                     

0040c61c <_init>:
  40c61c:	b5f8      	push	{r3, r4, r5, r6, r7, lr}
  40c61e:	bf00      	nop
  40c620:	bcf8      	pop	{r3, r4, r5, r6, r7}
  40c622:	bc08      	pop	{r3}
  40c624:	469e      	mov	lr, r3
  40c626:	4770      	bx	lr

0040c628 <__init_array_start>:
  40c628:	00402f71 	.word	0x00402f71

0040c62c <__frame_dummy_init_array_entry>:
  40c62c:	00400165                                e.@.

0040c630 <_fini>:
  40c630:	b5f8      	push	{r3, r4, r5, r6, r7, lr}
  40c632:	bf00      	nop
  40c634:	bcf8      	pop	{r3, r4, r5, r6, r7}
  40c636:	bc08      	pop	{r3}
  40c638:	469e      	mov	lr, r3
  40c63a:	4770      	bx	lr

0040c63c <__fini_array_start>:
  40c63c:	00400141 	.word	0x00400141
